
FlutterSAMD.elf:     file format elf32-littlearm

Sections:
Idx Name          Size      VMA       LMA       File off  Algn
  0 .text         00005b60  00000000  00000000  00010000  2**2
                  CONTENTS, ALLOC, LOAD, READONLY, CODE
  1 .relocate     000000bc  20000000  00005b60  00020000  2**2
                  CONTENTS, ALLOC, LOAD, DATA
  2 .bss          000011b0  200000bc  00005c1c  000200bc  2**2
                  ALLOC
  3 .stack        00002004  2000126c  00006dcc  000200bc  2**0
                  ALLOC
  4 .ARM.attributes 00000028  00000000  00000000  000200bc  2**0
                  CONTENTS, READONLY
  5 .comment      00000059  00000000  00000000  000200e4  2**0
                  CONTENTS, READONLY
  6 .debug_info   00054dcd  00000000  00000000  0002013d  2**0
                  CONTENTS, READONLY, DEBUGGING
  7 .debug_abbrev 00006e26  00000000  00000000  00074f0a  2**0
                  CONTENTS, READONLY, DEBUGGING
  8 .debug_loc    00008f7a  00000000  00000000  0007bd30  2**0
                  CONTENTS, READONLY, DEBUGGING
  9 .debug_aranges 00000950  00000000  00000000  00084caa  2**0
                  CONTENTS, READONLY, DEBUGGING
 10 .debug_ranges 000009f0  00000000  00000000  000855fa  2**0
                  CONTENTS, READONLY, DEBUGGING
 11 .debug_macro  00020d9b  00000000  00000000  00085fea  2**0
                  CONTENTS, READONLY, DEBUGGING
 12 .debug_line   0001997a  00000000  00000000  000a6d85  2**0
                  CONTENTS, READONLY, DEBUGGING
 13 .debug_str    0008ea50  00000000  00000000  000c06ff  2**0
                  CONTENTS, READONLY, DEBUGGING
 14 .debug_frame  0000180c  00000000  00000000  0014f150  2**2
                  CONTENTS, READONLY, DEBUGGING

Disassembly of section .text:

00000000 <exception_table>:
       0:	70 32 00 20 6d 3b 00 00 69 3b 00 00 69 3b 00 00     p2. m;..i;..i;..
	...
      2c:	69 3b 00 00 00 00 00 00 00 00 00 00 69 3b 00 00     i;..........i;..
      3c:	69 3b 00 00 69 3b 00 00 69 3b 00 00 69 3b 00 00     i;..i;..i;..i;..
      4c:	69 3b 00 00 69 3b 00 00 69 3b 00 00 69 3b 00 00     i;..i;..i;..i;..
      5c:	69 3b 00 00 69 3b 00 00 79 25 00 00 89 25 00 00     i;..i;..y%...%..
      6c:	99 25 00 00 a9 25 00 00 b9 25 00 00 c9 25 00 00     .%...%...%...%..
      7c:	29 0a 00 00 39 0a 00 00 49 0a 00 00 f1 0a 00 00     )...9...I.......
      8c:	01 0b 00 00 11 0b 00 00 21 0b 00 00 31 0b 00 00     ........!...1...
      9c:	d5 20 00 00 69 3b 00 00 69 3b 00 00 69 3b 00 00     . ..i;..i;..i;..
      ac:	69 3b 00 00 00 00 00 00                             i;......

000000b4 <__do_global_dtors_aux>:
      b4:	b510      	push	{r4, lr}
      b6:	4c06      	ldr	r4, [pc, #24]	; (d0 <__do_global_dtors_aux+0x1c>)
      b8:	7823      	ldrb	r3, [r4, #0]
      ba:	2b00      	cmp	r3, #0
      bc:	d107      	bne.n	ce <__do_global_dtors_aux+0x1a>
      be:	4b05      	ldr	r3, [pc, #20]	; (d4 <__do_global_dtors_aux+0x20>)
      c0:	2b00      	cmp	r3, #0
      c2:	d002      	beq.n	ca <__do_global_dtors_aux+0x16>
      c4:	4804      	ldr	r0, [pc, #16]	; (d8 <__do_global_dtors_aux+0x24>)
      c6:	e000      	b.n	ca <__do_global_dtors_aux+0x16>
      c8:	bf00      	nop
      ca:	2301      	movs	r3, #1
      cc:	7023      	strb	r3, [r4, #0]
      ce:	bd10      	pop	{r4, pc}
      d0:	200000bc 	.word	0x200000bc
      d4:	00000000 	.word	0x00000000
      d8:	00005b60 	.word	0x00005b60

000000dc <frame_dummy>:
      dc:	4b08      	ldr	r3, [pc, #32]	; (100 <frame_dummy+0x24>)
      de:	b510      	push	{r4, lr}
      e0:	2b00      	cmp	r3, #0
      e2:	d003      	beq.n	ec <frame_dummy+0x10>
      e4:	4907      	ldr	r1, [pc, #28]	; (104 <frame_dummy+0x28>)
      e6:	4808      	ldr	r0, [pc, #32]	; (108 <frame_dummy+0x2c>)
      e8:	e000      	b.n	ec <frame_dummy+0x10>
      ea:	bf00      	nop
      ec:	4807      	ldr	r0, [pc, #28]	; (10c <frame_dummy+0x30>)
      ee:	6803      	ldr	r3, [r0, #0]
      f0:	2b00      	cmp	r3, #0
      f2:	d100      	bne.n	f6 <frame_dummy+0x1a>
      f4:	bd10      	pop	{r4, pc}
      f6:	4b06      	ldr	r3, [pc, #24]	; (110 <frame_dummy+0x34>)
      f8:	2b00      	cmp	r3, #0
      fa:	d0fb      	beq.n	f4 <frame_dummy+0x18>
      fc:	4798      	blx	r3
      fe:	e7f9      	b.n	f4 <frame_dummy+0x18>
     100:	00000000 	.word	0x00000000
     104:	200000c0 	.word	0x200000c0
     108:	00005b60 	.word	0x00005b60
     10c:	00005b60 	.word	0x00005b60
     110:	00000000 	.word	0x00000000

00000114 <port_pin_set_config>:
 *  \param[in] config    Configuration settings for the pin
 */
void port_pin_set_config(
		const uint8_t gpio_pin,
		const struct port_config *const config)
{
     114:	b500      	push	{lr}
     116:	b083      	sub	sp, #12
{
	/* Sanity check arguments */
	Assert(config);

	/* Default configuration values */
	config->mux_position = SYSTEM_PINMUX_GPIO;
     118:	ab01      	add	r3, sp, #4
     11a:	2280      	movs	r2, #128	; 0x80
     11c:	701a      	strb	r2, [r3, #0]

	struct system_pinmux_config pinmux_config;
	system_pinmux_get_config_defaults(&pinmux_config);

	pinmux_config.mux_position = SYSTEM_PINMUX_GPIO;
	pinmux_config.direction    = (enum system_pinmux_pin_dir)config->direction;
     11e:	780a      	ldrb	r2, [r1, #0]
     120:	705a      	strb	r2, [r3, #1]
	pinmux_config.input_pull   = (enum system_pinmux_pin_pull)config->input_pull;
     122:	784a      	ldrb	r2, [r1, #1]
     124:	709a      	strb	r2, [r3, #2]
	pinmux_config.powersave    = config->powersave;
     126:	788a      	ldrb	r2, [r1, #2]
     128:	70da      	strb	r2, [r3, #3]

	system_pinmux_pin_set_config(gpio_pin, &pinmux_config);
     12a:	0019      	movs	r1, r3
     12c:	4b01      	ldr	r3, [pc, #4]	; (134 <port_pin_set_config+0x20>)
     12e:	4798      	blx	r3
}
     130:	b003      	add	sp, #12
     132:	bd00      	pop	{pc}
     134:	00003b09 	.word	0x00003b09

00000138 <_i2c_master_wait_for_sync>:
{
	/* Sanity check */
	Assert(module);
	Assert(module->hw);

	SercomI2cm *const i2c_hw = &(module->hw->I2CM);
     138:	6801      	ldr	r1, [r0, #0]

#if defined(FEATURE_SERCOM_SYNCBUSY_SCHEME_VERSION_1)
	return (i2c_hw->STATUS.reg & SERCOM_I2CM_STATUS_SYNCBUSY);
#elif defined(FEATURE_SERCOM_SYNCBUSY_SCHEME_VERSION_2)
	return (i2c_hw->SYNCBUSY.reg & SERCOM_I2CM_SYNCBUSY_MASK);
     13a:	2207      	movs	r2, #7
     13c:	69cb      	ldr	r3, [r1, #28]
		const struct i2c_master_module *const module)
{
	/* Sanity check */
	Assert(module);

	while (i2c_master_is_syncing(module)) {
     13e:	421a      	tst	r2, r3
     140:	d1fc      	bne.n	13c <_i2c_master_wait_for_sync+0x4>
		/* Wait for I2C module to sync. */
	}
}
     142:	4770      	bx	lr

00000144 <i2c_master_init>:
 */
enum status_code i2c_master_init(
		struct i2c_master_module *const module,
		Sercom *const hw,
		const struct i2c_master_config *const config)
{
     144:	b5f0      	push	{r4, r5, r6, r7, lr}
     146:	46d6      	mov	lr, sl
     148:	464f      	mov	r7, r9
     14a:	4646      	mov	r6, r8
     14c:	b5c0      	push	{r6, r7, lr}
     14e:	b08a      	sub	sp, #40	; 0x28
     150:	0006      	movs	r6, r0
     152:	000f      	movs	r7, r1
     154:	0014      	movs	r4, r2
	Assert(module);
	Assert(hw);
	Assert(config);

	/* Initialize software module */
	module->hw = hw;
     156:	6031      	str	r1, [r6, #0]

	SercomI2cm *const i2c_module = &(module->hw->I2CM);

	uint32_t sercom_index = _sercom_get_sercom_inst_index(module->hw);
     158:	0008      	movs	r0, r1
     15a:	4ba0      	ldr	r3, [pc, #640]	; (3dc <i2c_master_init+0x298>)
     15c:	4798      	blx	r3
		case SYSTEM_CLOCK_APB_APBB:
			PM->APBBMASK.reg |= mask;
			break;

		case SYSTEM_CLOCK_APB_APBC:
			PM->APBCMASK.reg |= mask;
     15e:	4aa0      	ldr	r2, [pc, #640]	; (3e0 <i2c_master_init+0x29c>)
     160:	6a11      	ldr	r1, [r2, #32]
		gclk_index   = SERCOM5_GCLK_ID_CORE;
	} else {
		gclk_index   = sercom_index + SERCOM0_GCLK_ID_CORE;
	}
#else
	pm_index     = sercom_index + PM_APBCMASK_SERCOM0_Pos;
     162:	1c85      	adds	r5, r0, #2
		system_apb_clock_set_mask(SYSTEM_CLOCK_APB_APBD, 1 << pm_index);
	} else {
		system_apb_clock_set_mask(SYSTEM_CLOCK_APB_APBC, 1 << pm_index);
	}
#else
	system_apb_clock_set_mask(SYSTEM_CLOCK_APB_APBC, 1 << pm_index);
     164:	2301      	movs	r3, #1
     166:	40ab      	lsls	r3, r5
     168:	430b      	orrs	r3, r1
     16a:	6213      	str	r3, [r2, #32]
#endif

	/* Set up the GCLK for the module */
	struct system_gclk_chan_config gclk_chan_conf;
	system_gclk_chan_get_config_defaults(&gclk_chan_conf);
	gclk_chan_conf.source_generator = config->generator_source;
     16c:	a909      	add	r1, sp, #36	; 0x24
     16e:	7b23      	ldrb	r3, [r4, #12]
     170:	700b      	strb	r3, [r1, #0]
	gclk_index   = sercom_index + SERCOM0_GCLK_ID_CORE;
     172:	3014      	adds	r0, #20
	system_gclk_chan_set_config(gclk_index, &gclk_chan_conf);
     174:	b2c5      	uxtb	r5, r0
     176:	0028      	movs	r0, r5
     178:	4b9a      	ldr	r3, [pc, #616]	; (3e4 <i2c_master_init+0x2a0>)
     17a:	4798      	blx	r3
	system_gclk_chan_enable(gclk_index);
     17c:	0028      	movs	r0, r5
     17e:	4b9a      	ldr	r3, [pc, #616]	; (3e8 <i2c_master_init+0x2a4>)
     180:	4798      	blx	r3
	sercom_set_gclk_generator(config->generator_source, false);
     182:	7b20      	ldrb	r0, [r4, #12]
     184:	2100      	movs	r1, #0
     186:	4b99      	ldr	r3, [pc, #612]	; (3ec <i2c_master_init+0x2a8>)
     188:	4798      	blx	r3

	/* Check if module is enabled. */
	if (i2c_module->CTRLA.reg & SERCOM_I2CM_CTRLA_ENABLE) {
     18a:	683b      	ldr	r3, [r7, #0]
		return STATUS_ERR_DENIED;
     18c:	201c      	movs	r0, #28
	if (i2c_module->CTRLA.reg & SERCOM_I2CM_CTRLA_ENABLE) {
     18e:	079b      	lsls	r3, r3, #30
     190:	d505      	bpl.n	19e <i2c_master_init+0x5a>
	/* Set sercom module to operate in I2C master mode. */
	i2c_module->CTRLA.reg = SERCOM_I2CM_CTRLA_MODE(0x5);

	/* Set config and return status. */
	return _i2c_master_set_config(module, config);
}
     192:	b00a      	add	sp, #40	; 0x28
     194:	bc1c      	pop	{r2, r3, r4}
     196:	4690      	mov	r8, r2
     198:	4699      	mov	r9, r3
     19a:	46a2      	mov	sl, r4
     19c:	bdf0      	pop	{r4, r5, r6, r7, pc}
	if (i2c_module->CTRLA.reg & SERCOM_I2CM_CTRLA_SWRST) {
     19e:	683b      	ldr	r3, [r7, #0]
		return STATUS_BUSY;
     1a0:	3817      	subs	r0, #23
	if (i2c_module->CTRLA.reg & SERCOM_I2CM_CTRLA_SWRST) {
     1a2:	07db      	lsls	r3, r3, #31
     1a4:	d4f5      	bmi.n	192 <i2c_master_init+0x4e>
	uint8_t instance_index = _sercom_get_sercom_inst_index(module->hw);
     1a6:	6830      	ldr	r0, [r6, #0]
     1a8:	4b8c      	ldr	r3, [pc, #560]	; (3dc <i2c_master_init+0x298>)
     1aa:	4699      	mov	r9, r3
     1ac:	4798      	blx	r3
     1ae:	0005      	movs	r5, r0
	_sercom_set_handler(instance_index, _i2c_master_interrupt_handler);
     1b0:	498f      	ldr	r1, [pc, #572]	; (3f0 <i2c_master_init+0x2ac>)
     1b2:	4b90      	ldr	r3, [pc, #576]	; (3f4 <i2c_master_init+0x2b0>)
     1b4:	4798      	blx	r3
	_sercom_instances[instance_index] = module;
     1b6:	00ad      	lsls	r5, r5, #2
     1b8:	4b8f      	ldr	r3, [pc, #572]	; (3f8 <i2c_master_init+0x2b4>)
     1ba:	50ee      	str	r6, [r5, r3]
	module->registered_callback = 0;
     1bc:	2300      	movs	r3, #0
     1be:	7633      	strb	r3, [r6, #24]
	module->enabled_callback = 0;
     1c0:	7673      	strb	r3, [r6, #25]
	module->buffer_length = 0;
     1c2:	2500      	movs	r5, #0
     1c4:	8373      	strh	r3, [r6, #26]
	module->buffer_remaining = 0;
     1c6:	83b3      	strh	r3, [r6, #28]
	module->status = STATUS_OK;
     1c8:	2225      	movs	r2, #37	; 0x25
     1ca:	54b5      	strb	r5, [r6, r2]
	module->buffer = NULL;
     1cc:	6233      	str	r3, [r6, #32]
	i2c_module->CTRLA.reg = SERCOM_I2CM_CTRLA_MODE(0x5);
     1ce:	3314      	adds	r3, #20
     1d0:	603b      	str	r3, [r7, #0]
	SercomI2cm *const i2c_module = &(module->hw->I2CM);
     1d2:	6833      	ldr	r3, [r6, #0]
     1d4:	4698      	mov	r8, r3
	uint8_t sercom_index = _sercom_get_sercom_inst_index(sercom_hw);
     1d6:	0018      	movs	r0, r3
     1d8:	47c8      	blx	r9
     1da:	4681      	mov	r9, r0
     1dc:	2380      	movs	r3, #128	; 0x80
     1de:	aa08      	add	r2, sp, #32
     1e0:	7013      	strb	r3, [r2, #0]
	config->direction    = SYSTEM_PINMUX_PIN_DIR_INPUT;
     1e2:	7055      	strb	r5, [r2, #1]
	config->input_pull   = SYSTEM_PINMUX_PIN_PULL_UP;
     1e4:	2301      	movs	r3, #1
     1e6:	7093      	strb	r3, [r2, #2]
	config->powersave    = false;
     1e8:	70d5      	strb	r5, [r2, #3]
	uint32_t pad0 = config->pinmux_pad0;
     1ea:	69e0      	ldr	r0, [r4, #28]
	uint32_t pad1 = config->pinmux_pad1;
     1ec:	6a27      	ldr	r7, [r4, #32]
	if (pad0 == PINMUX_DEFAULT) {
     1ee:	2800      	cmp	r0, #0
     1f0:	d100      	bne.n	1f4 <i2c_master_init+0xb0>
     1f2:	e0af      	b.n	354 <i2c_master_init+0x210>
	pin_conf.mux_position = pad0 & 0xFFFF;
     1f4:	ab08      	add	r3, sp, #32
     1f6:	7018      	strb	r0, [r3, #0]
	pin_conf.direction    = SYSTEM_PINMUX_PIN_DIR_OUTPUT_WITH_READBACK;
     1f8:	2302      	movs	r3, #2
     1fa:	aa08      	add	r2, sp, #32
     1fc:	7053      	strb	r3, [r2, #1]
	system_pinmux_pin_set_config(pad0 >> 16, &pin_conf);
     1fe:	0c00      	lsrs	r0, r0, #16
     200:	b2c0      	uxtb	r0, r0
     202:	0011      	movs	r1, r2
     204:	4b7d      	ldr	r3, [pc, #500]	; (3fc <i2c_master_init+0x2b8>)
     206:	4798      	blx	r3
	if (pad1 == PINMUX_DEFAULT) {
     208:	2f00      	cmp	r7, #0
     20a:	d100      	bne.n	20e <i2c_master_init+0xca>
     20c:	e0a7      	b.n	35e <i2c_master_init+0x21a>
	pin_conf.mux_position = pad1 & 0xFFFF;
     20e:	ab08      	add	r3, sp, #32
     210:	701f      	strb	r7, [r3, #0]
	pin_conf.direction    = SYSTEM_PINMUX_PIN_DIR_OUTPUT_WITH_READBACK;
     212:	2302      	movs	r3, #2
     214:	aa08      	add	r2, sp, #32
     216:	7053      	strb	r3, [r2, #1]
	system_pinmux_pin_set_config(pad1 >> 16, &pin_conf);
     218:	0c3f      	lsrs	r7, r7, #16
     21a:	b2f8      	uxtb	r0, r7
     21c:	0011      	movs	r1, r2
     21e:	4b77      	ldr	r3, [pc, #476]	; (3fc <i2c_master_init+0x2b8>)
     220:	4798      	blx	r3
	module->unknown_bus_state_timeout = config->unknown_bus_state_timeout;
     222:	8aa3      	ldrh	r3, [r4, #20]
     224:	80f3      	strh	r3, [r6, #6]
	module->buffer_timeout = config->buffer_timeout;
     226:	8ae3      	ldrh	r3, [r4, #22]
     228:	8133      	strh	r3, [r6, #8]
	if (config->run_in_standby || system_is_debugger_present()) {
     22a:	7e23      	ldrb	r3, [r4, #24]
		tmp_ctrla = SERCOM_I2CM_CTRLA_RUNSTDBY;
     22c:	2280      	movs	r2, #128	; 0x80
	if (config->run_in_standby || system_is_debugger_present()) {
     22e:	2b00      	cmp	r3, #0
     230:	d104      	bne.n	23c <i2c_master_init+0xf8>
 * \retval false Debugger is not connected to the system
 *
 */
static inline bool system_is_debugger_present(void)
{
	return DSU->STATUSB.reg & DSU_STATUSB_DBGPRES;
     232:	4b73      	ldr	r3, [pc, #460]	; (400 <i2c_master_init+0x2bc>)
     234:	789b      	ldrb	r3, [r3, #2]
     236:	079b      	lsls	r3, r3, #30
		tmp_ctrla = SERCOM_I2CM_CTRLA_RUNSTDBY;
     238:	0fdb      	lsrs	r3, r3, #31
     23a:	01da      	lsls	r2, r3, #7
	tmp_ctrla |= config->transfer_speed;
     23c:	68a1      	ldr	r1, [r4, #8]
     23e:	6923      	ldr	r3, [r4, #16]
     240:	430b      	orrs	r3, r1
     242:	4313      	orrs	r3, r2
	if (config->scl_low_timeout) {
     244:	2224      	movs	r2, #36	; 0x24
     246:	5ca2      	ldrb	r2, [r4, r2]
     248:	2a00      	cmp	r2, #0
     24a:	d002      	beq.n	252 <i2c_master_init+0x10e>
		tmp_ctrla |= SERCOM_I2CM_CTRLA_LOWTOUTEN;
     24c:	2280      	movs	r2, #128	; 0x80
     24e:	05d2      	lsls	r2, r2, #23
     250:	4313      	orrs	r3, r2
		tmp_ctrla |= config->inactive_timeout;
     252:	6aa2      	ldr	r2, [r4, #40]	; 0x28
     254:	4313      	orrs	r3, r2
	if (config->scl_stretch_only_after_ack_bit || (config->transfer_speed == I2C_MASTER_SPEED_HIGH_SPEED)) {
     256:	222c      	movs	r2, #44	; 0x2c
     258:	5ca2      	ldrb	r2, [r4, r2]
     25a:	2a00      	cmp	r2, #0
     25c:	d103      	bne.n	266 <i2c_master_init+0x122>
     25e:	2280      	movs	r2, #128	; 0x80
     260:	0492      	lsls	r2, r2, #18
     262:	4291      	cmp	r1, r2
     264:	d102      	bne.n	26c <i2c_master_init+0x128>
		tmp_ctrla |= SERCOM_I2CM_CTRLA_SCLSM;
     266:	2280      	movs	r2, #128	; 0x80
     268:	0512      	lsls	r2, r2, #20
     26a:	4313      	orrs	r3, r2
	if (config->slave_scl_low_extend_timeout) {
     26c:	222d      	movs	r2, #45	; 0x2d
     26e:	5ca2      	ldrb	r2, [r4, r2]
     270:	2a00      	cmp	r2, #0
     272:	d002      	beq.n	27a <i2c_master_init+0x136>
		tmp_ctrla |= SERCOM_I2CM_CTRLA_SEXTTOEN;
     274:	2280      	movs	r2, #128	; 0x80
     276:	0412      	lsls	r2, r2, #16
     278:	4313      	orrs	r3, r2
	if (config->master_scl_low_extend_timeout) {
     27a:	222e      	movs	r2, #46	; 0x2e
     27c:	5ca2      	ldrb	r2, [r4, r2]
     27e:	2a00      	cmp	r2, #0
     280:	d002      	beq.n	288 <i2c_master_init+0x144>
		tmp_ctrla |= SERCOM_I2CM_CTRLA_MEXTTOEN;
     282:	2280      	movs	r2, #128	; 0x80
     284:	03d2      	lsls	r2, r2, #15
     286:	4313      	orrs	r3, r2
	i2c_module->CTRLA.reg |= tmp_ctrla;
     288:	4642      	mov	r2, r8
     28a:	6812      	ldr	r2, [r2, #0]
     28c:	4313      	orrs	r3, r2
     28e:	4642      	mov	r2, r8
     290:	6013      	str	r3, [r2, #0]
	i2c_module->CTRLB.reg = SERCOM_I2CM_CTRLB_SMEN;
     292:	2380      	movs	r3, #128	; 0x80
     294:	005b      	lsls	r3, r3, #1
     296:	6053      	str	r3, [r2, #4]
	uint32_t fgclk       = system_gclk_chan_get_hz(SERCOM0_GCLK_ID_CORE + sercom_index);
     298:	4648      	mov	r0, r9
     29a:	3014      	adds	r0, #20
     29c:	b2c0      	uxtb	r0, r0
     29e:	4b59      	ldr	r3, [pc, #356]	; (404 <i2c_master_init+0x2c0>)
     2a0:	4798      	blx	r3
     2a2:	9007      	str	r0, [sp, #28]
	uint32_t fscl        = 1000 * config->baud_rate;
     2a4:	23fa      	movs	r3, #250	; 0xfa
     2a6:	009b      	lsls	r3, r3, #2
     2a8:	6822      	ldr	r2, [r4, #0]
     2aa:	435a      	muls	r2, r3
     2ac:	4691      	mov	r9, r2
	uint32_t fscl_hs     = 1000 * config->baud_rate_high_speed;
     2ae:	6863      	ldr	r3, [r4, #4]
     2b0:	469a      	mov	sl, r3
	tmp_baud = (int32_t)(div_ceil(
     2b2:	4d55      	ldr	r5, [pc, #340]	; (408 <i2c_master_init+0x2c4>)
     2b4:	47a8      	blx	r5
     2b6:	9000      	str	r0, [sp, #0]
     2b8:	9101      	str	r1, [sp, #4]
     2ba:	464b      	mov	r3, r9
     2bc:	0058      	lsls	r0, r3, #1
     2be:	47a8      	blx	r5
     2c0:	9002      	str	r0, [sp, #8]
     2c2:	9103      	str	r1, [sp, #12]
     2c4:	8e20      	ldrh	r0, [r4, #48]	; 0x30
     2c6:	47a8      	blx	r5
     2c8:	9004      	str	r0, [sp, #16]
     2ca:	9105      	str	r1, [sp, #20]
     2cc:	4f4f      	ldr	r7, [pc, #316]	; (40c <i2c_master_init+0x2c8>)
     2ce:	4a50      	ldr	r2, [pc, #320]	; (410 <i2c_master_init+0x2cc>)
     2d0:	4b50      	ldr	r3, [pc, #320]	; (414 <i2c_master_init+0x2d0>)
     2d2:	9800      	ldr	r0, [sp, #0]
     2d4:	9901      	ldr	r1, [sp, #4]
     2d6:	47b8      	blx	r7
     2d8:	0002      	movs	r2, r0
     2da:	000b      	movs	r3, r1
     2dc:	9804      	ldr	r0, [sp, #16]
     2de:	9905      	ldr	r1, [sp, #20]
     2e0:	47b8      	blx	r7
     2e2:	4e4d      	ldr	r6, [pc, #308]	; (418 <i2c_master_init+0x2d4>)
     2e4:	2200      	movs	r2, #0
     2e6:	4b4d      	ldr	r3, [pc, #308]	; (41c <i2c_master_init+0x2d8>)
     2e8:	47b0      	blx	r6
     2ea:	9004      	str	r0, [sp, #16]
     2ec:	9105      	str	r1, [sp, #20]
     2ee:	4648      	mov	r0, r9
     2f0:	47a8      	blx	r5
     2f2:	0002      	movs	r2, r0
     2f4:	000b      	movs	r3, r1
     2f6:	9804      	ldr	r0, [sp, #16]
     2f8:	9905      	ldr	r1, [sp, #20]
     2fa:	47b8      	blx	r7
     2fc:	0002      	movs	r2, r0
     2fe:	000b      	movs	r3, r1
     300:	4d47      	ldr	r5, [pc, #284]	; (420 <i2c_master_init+0x2dc>)
     302:	9800      	ldr	r0, [sp, #0]
     304:	9901      	ldr	r1, [sp, #4]
     306:	47a8      	blx	r5
     308:	9a02      	ldr	r2, [sp, #8]
     30a:	9b03      	ldr	r3, [sp, #12]
     30c:	47b0      	blx	r6
     30e:	2200      	movs	r2, #0
     310:	4b44      	ldr	r3, [pc, #272]	; (424 <i2c_master_init+0x2e0>)
     312:	47a8      	blx	r5
     314:	9a02      	ldr	r2, [sp, #8]
     316:	9b03      	ldr	r3, [sp, #12]
     318:	4d43      	ldr	r5, [pc, #268]	; (428 <i2c_master_init+0x2e4>)
     31a:	47a8      	blx	r5
     31c:	4b43      	ldr	r3, [pc, #268]	; (42c <i2c_master_init+0x2e8>)
     31e:	4798      	blx	r3
     320:	0005      	movs	r5, r0
	if (config->transfer_speed == I2C_MASTER_SPEED_HIGH_SPEED) {
     322:	2380      	movs	r3, #128	; 0x80
     324:	049b      	lsls	r3, r3, #18
     326:	68a2      	ldr	r2, [r4, #8]
     328:	429a      	cmp	r2, r3
     32a:	d01e      	beq.n	36a <i2c_master_init+0x226>
	if (tmp_baud > 255 || tmp_baud < 0 || tmp_baud_hs > 255 || tmp_baud_hs < 0) {
     32c:	0003      	movs	r3, r0
     32e:	2040      	movs	r0, #64	; 0x40
     330:	2dff      	cmp	r5, #255	; 0xff
     332:	d900      	bls.n	336 <i2c_master_init+0x1f2>
     334:	e72d      	b.n	192 <i2c_master_init+0x4e>
	int32_t tmp_baudlow_hs = 0;
     336:	2400      	movs	r4, #0
	int32_t tmp_baud_hs = 0;
     338:	2000      	movs	r0, #0
		i2c_module->BAUD.reg = SERCOM_I2CM_BAUD_BAUD(tmp_baud) |
     33a:	25ff      	movs	r5, #255	; 0xff
     33c:	401d      	ands	r5, r3
			SERCOM_I2CM_BAUD_HSBAUD(tmp_baud_hs) | SERCOM_I2CM_BAUD_HSBAUDLOW(tmp_baudlow_hs);
     33e:	0624      	lsls	r4, r4, #24
     340:	4325      	orrs	r5, r4
     342:	0400      	lsls	r0, r0, #16
     344:	23ff      	movs	r3, #255	; 0xff
     346:	041b      	lsls	r3, r3, #16
     348:	4018      	ands	r0, r3
     34a:	4305      	orrs	r5, r0
		i2c_module->BAUD.reg = SERCOM_I2CM_BAUD_BAUD(tmp_baud) |
     34c:	4643      	mov	r3, r8
     34e:	60dd      	str	r5, [r3, #12]
	enum status_code tmp_status_code = STATUS_OK;
     350:	2000      	movs	r0, #0
     352:	e71e      	b.n	192 <i2c_master_init+0x4e>
		pad0 = _sercom_get_default_pad(sercom_hw, 0);
     354:	2100      	movs	r1, #0
     356:	4640      	mov	r0, r8
     358:	4b35      	ldr	r3, [pc, #212]	; (430 <i2c_master_init+0x2ec>)
     35a:	4798      	blx	r3
     35c:	e74a      	b.n	1f4 <i2c_master_init+0xb0>
		pad1 = _sercom_get_default_pad(sercom_hw, 1);
     35e:	2101      	movs	r1, #1
     360:	4640      	mov	r0, r8
     362:	4b33      	ldr	r3, [pc, #204]	; (430 <i2c_master_init+0x2ec>)
     364:	4798      	blx	r3
     366:	0007      	movs	r7, r0
     368:	e751      	b.n	20e <i2c_master_init+0xca>
	uint32_t fscl_hs     = 1000 * config->baud_rate_high_speed;
     36a:	26fa      	movs	r6, #250	; 0xfa
     36c:	00b6      	lsls	r6, r6, #2
     36e:	4653      	mov	r3, sl
     370:	435e      	muls	r6, r3
		tmp_baudlow_hs = (int32_t)((fgclk * 2.0) / (3.0 * fscl_hs) - 1);
     372:	9800      	ldr	r0, [sp, #0]
     374:	9901      	ldr	r1, [sp, #4]
     376:	0002      	movs	r2, r0
     378:	000b      	movs	r3, r1
     37a:	4c27      	ldr	r4, [pc, #156]	; (418 <i2c_master_init+0x2d4>)
     37c:	47a0      	blx	r4
     37e:	9000      	str	r0, [sp, #0]
     380:	9101      	str	r1, [sp, #4]
     382:	0030      	movs	r0, r6
     384:	4b20      	ldr	r3, [pc, #128]	; (408 <i2c_master_init+0x2c4>)
     386:	4798      	blx	r3
     388:	2200      	movs	r2, #0
     38a:	4b2a      	ldr	r3, [pc, #168]	; (434 <i2c_master_init+0x2f0>)
     38c:	47b8      	blx	r7
     38e:	0002      	movs	r2, r0
     390:	000b      	movs	r3, r1
     392:	9800      	ldr	r0, [sp, #0]
     394:	9901      	ldr	r1, [sp, #4]
     396:	4c24      	ldr	r4, [pc, #144]	; (428 <i2c_master_init+0x2e4>)
     398:	47a0      	blx	r4
     39a:	2200      	movs	r2, #0
     39c:	4b21      	ldr	r3, [pc, #132]	; (424 <i2c_master_init+0x2e0>)
     39e:	4c20      	ldr	r4, [pc, #128]	; (420 <i2c_master_init+0x2dc>)
     3a0:	47a0      	blx	r4
     3a2:	4b22      	ldr	r3, [pc, #136]	; (42c <i2c_master_init+0x2e8>)
     3a4:	4798      	blx	r3
     3a6:	1e04      	subs	r4, r0, #0
		if (tmp_baudlow_hs) {
     3a8:	d00c      	beq.n	3c4 <i2c_master_init+0x280>
			tmp_baud_hs = (int32_t)(fgclk / fscl_hs) - 2 - tmp_baudlow_hs;
     3aa:	0031      	movs	r1, r6
     3ac:	9807      	ldr	r0, [sp, #28]
     3ae:	4b22      	ldr	r3, [pc, #136]	; (438 <i2c_master_init+0x2f4>)
     3b0:	4798      	blx	r3
     3b2:	3802      	subs	r0, #2
     3b4:	1b00      	subs	r0, r0, r4
	if (tmp_baud > 255 || tmp_baud < 0 || tmp_baud_hs > 255 || tmp_baud_hs < 0) {
     3b6:	002b      	movs	r3, r5
     3b8:	2dff      	cmp	r5, #255	; 0xff
     3ba:	d80c      	bhi.n	3d6 <i2c_master_init+0x292>
     3bc:	28ff      	cmp	r0, #255	; 0xff
     3be:	d9bc      	bls.n	33a <i2c_master_init+0x1f6>
     3c0:	2040      	movs	r0, #64	; 0x40
     3c2:	e6e6      	b.n	192 <i2c_master_init+0x4e>
			tmp_baud_hs = (int32_t)(div_ceil(fgclk, 2 * fscl_hs)) - 1;
     3c4:	0071      	lsls	r1, r6, #1
     3c6:	1e48      	subs	r0, r1, #1
     3c8:	9b07      	ldr	r3, [sp, #28]
     3ca:	469c      	mov	ip, r3
     3cc:	4460      	add	r0, ip
     3ce:	4b1a      	ldr	r3, [pc, #104]	; (438 <i2c_master_init+0x2f4>)
     3d0:	4798      	blx	r3
     3d2:	3801      	subs	r0, #1
     3d4:	e7ef      	b.n	3b6 <i2c_master_init+0x272>
	if (tmp_baud > 255 || tmp_baud < 0 || tmp_baud_hs > 255 || tmp_baud_hs < 0) {
     3d6:	2040      	movs	r0, #64	; 0x40
     3d8:	e6db      	b.n	192 <i2c_master_init+0x4e>
     3da:	46c0      	nop			; (mov r8, r8)
     3dc:	000024d1 	.word	0x000024d1
     3e0:	40000400 	.word	0x40000400
     3e4:	00003a11 	.word	0x00003a11
     3e8:	00003985 	.word	0x00003985
     3ec:	0000230d 	.word	0x0000230d
     3f0:	000007f1 	.word	0x000007f1
     3f4:	0000250d 	.word	0x0000250d
     3f8:	20000f8c 	.word	0x20000f8c
     3fc:	00003b09 	.word	0x00003b09
     400:	41002000 	.word	0x41002000
     404:	00003a2d 	.word	0x00003a2d
     408:	0000567d 	.word	0x0000567d
     40c:	00004ae9 	.word	0x00004ae9
     410:	e826d695 	.word	0xe826d695
     414:	3e112e0b 	.word	0x3e112e0b
     418:	00003e61 	.word	0x00003e61
     41c:	40240000 	.word	0x40240000
     420:	00004fe9 	.word	0x00004fe9
     424:	3ff00000 	.word	0x3ff00000
     428:	00004481 	.word	0x00004481
     42c:	00005615 	.word	0x00005615
     430:	00002359 	.word	0x00002359
     434:	40080000 	.word	0x40080000
     438:	00003cf5 	.word	0x00003cf5

0000043c <_i2c_master_address_response>:
{
	/* Sanity check arguments */
	Assert(module);
	Assert(module->hw);

	SercomI2cm *const i2c_module = &(module->hw->I2CM);
     43c:	6803      	ldr	r3, [r0, #0]

	/* Check for error and ignore bus-error; workaround for BUSSTATE stuck in
	 * BUSY */
	if (i2c_module->INTFLAG.reg & SERCOM_I2CM_INTFLAG_SB) {
     43e:	7e1a      	ldrb	r2, [r3, #24]
     440:	0792      	lsls	r2, r2, #30
     442:	d507      	bpl.n	454 <_i2c_master_address_response+0x18>

		/* Clear write interrupt flag */
		i2c_module->INTFLAG.reg = SERCOM_I2CM_INTFLAG_SB;
     444:	2202      	movs	r2, #2
     446:	761a      	strb	r2, [r3, #24]

		/* Check arbitration. */
		if (i2c_module->STATUS.reg & SERCOM_I2CM_STATUS_ARBLOST) {
     448:	8b5b      	ldrh	r3, [r3, #26]
     44a:	079b      	lsls	r3, r3, #30
			/* Return packet collision. */
			return STATUS_ERR_PACKET_COLLISION;
     44c:	2041      	movs	r0, #65	; 0x41

		/* Return bad address value. */
		return STATUS_ERR_BAD_ADDRESS;
	}

	return STATUS_OK;
     44e:	17db      	asrs	r3, r3, #31
     450:	4018      	ands	r0, r3
}
     452:	4770      	bx	lr
	} else if (i2c_module->STATUS.reg & SERCOM_I2CM_STATUS_RXNACK) {
     454:	8b5a      	ldrh	r2, [r3, #26]
     456:	0752      	lsls	r2, r2, #29
     458:	d506      	bpl.n	468 <_i2c_master_address_response+0x2c>
		i2c_module->CTRLB.reg |= SERCOM_I2CM_CTRLB_CMD(3);
     45a:	6859      	ldr	r1, [r3, #4]
     45c:	22c0      	movs	r2, #192	; 0xc0
     45e:	0292      	lsls	r2, r2, #10
     460:	430a      	orrs	r2, r1
     462:	605a      	str	r2, [r3, #4]
		return STATUS_ERR_BAD_ADDRESS;
     464:	2018      	movs	r0, #24
     466:	e7f4      	b.n	452 <_i2c_master_address_response+0x16>
	return STATUS_OK;
     468:	2000      	movs	r0, #0
     46a:	e7f2      	b.n	452 <_i2c_master_address_response+0x16>

0000046c <_i2c_master_wait_for_bus>:
 * \retval STATUS_ERR_TIMEOUT  If no response was given within specified timeout
 *                             period
 */
enum status_code _i2c_master_wait_for_bus(
		struct i2c_master_module *const module)
{
     46c:	b530      	push	{r4, r5, lr}
	/* Sanity check arguments */
	Assert(module);
	Assert(module->hw);

	SercomI2cm *const i2c_module = &(module->hw->I2CM);
     46e:	6802      	ldr	r2, [r0, #0]

	/* Wait for reply. */
	uint16_t timeout_counter = 0;
     470:	2300      	movs	r3, #0
	while (!(i2c_module->INTFLAG.reg & SERCOM_I2CM_INTFLAG_MB) &&
     472:	2401      	movs	r4, #1
     474:	2502      	movs	r5, #2
     476:	7e11      	ldrb	r1, [r2, #24]
     478:	4221      	tst	r1, r4
     47a:	d10b      	bne.n	494 <_i2c_master_wait_for_bus+0x28>
			!(i2c_module->INTFLAG.reg & SERCOM_I2CM_INTFLAG_SB)) {
     47c:	7e11      	ldrb	r1, [r2, #24]
	while (!(i2c_module->INTFLAG.reg & SERCOM_I2CM_INTFLAG_MB) &&
     47e:	4229      	tst	r1, r5
     480:	d106      	bne.n	490 <_i2c_master_wait_for_bus+0x24>

		/* Check timeout condition. */
		if (++timeout_counter >= module->buffer_timeout) {
     482:	3301      	adds	r3, #1
     484:	b29b      	uxth	r3, r3
     486:	8901      	ldrh	r1, [r0, #8]
     488:	4299      	cmp	r1, r3
     48a:	d8f4      	bhi.n	476 <_i2c_master_wait_for_bus+0xa>
			return STATUS_ERR_TIMEOUT;
     48c:	2012      	movs	r0, #18
     48e:	e002      	b.n	496 <_i2c_master_wait_for_bus+0x2a>
		}
	}
	return STATUS_OK;
     490:	2000      	movs	r0, #0
     492:	e000      	b.n	496 <_i2c_master_wait_for_bus+0x2a>
     494:	2000      	movs	r0, #0
}
     496:	bd30      	pop	{r4, r5, pc}

00000498 <_i2c_master_send_hs_master_code>:
 * \retval STATUS_OK           No error happen
 */
enum status_code _i2c_master_send_hs_master_code(
		struct i2c_master_module *const module,
		uint8_t hs_master_code)
{
     498:	b510      	push	{r4, lr}
	SercomI2cm *const i2c_module = &(module->hw->I2CM);
     49a:	6804      	ldr	r4, [r0, #0]
	/* Return value. */
	enum status_code tmp_status;

	/* Set NACK for high speed code */
	i2c_module->CTRLB.reg |= SERCOM_I2CM_CTRLB_ACKACT;
     49c:	6862      	ldr	r2, [r4, #4]
     49e:	2380      	movs	r3, #128	; 0x80
     4a0:	02db      	lsls	r3, r3, #11
     4a2:	4313      	orrs	r3, r2
     4a4:	6063      	str	r3, [r4, #4]
	/* Send high speed code */
	i2c_module->ADDR.reg = hs_master_code;
     4a6:	6261      	str	r1, [r4, #36]	; 0x24
	/* Wait for response on bus. */
	tmp_status = _i2c_master_wait_for_bus(module);
     4a8:	4b02      	ldr	r3, [pc, #8]	; (4b4 <_i2c_master_send_hs_master_code+0x1c>)
     4aa:	4798      	blx	r3
	/* Clear write interrupt flag */
	i2c_module->INTFLAG.reg = SERCOM_I2CM_INTENCLR_MB;
     4ac:	2301      	movs	r3, #1
     4ae:	7623      	strb	r3, [r4, #24]

	return tmp_status;
}
     4b0:	bd10      	pop	{r4, pc}
     4b2:	46c0      	nop			; (mov r8, r8)
     4b4:	0000046d 	.word	0x0000046d

000004b8 <_i2c_master_read_packet>:
 *
 */
static enum status_code _i2c_master_read_packet(
		struct i2c_master_module *const module,
		struct i2c_master_packet *const packet)
{
     4b8:	b5f0      	push	{r4, r5, r6, r7, lr}
     4ba:	46de      	mov	lr, fp
     4bc:	4657      	mov	r7, sl
     4be:	464e      	mov	r6, r9
     4c0:	4645      	mov	r5, r8
     4c2:	b5e0      	push	{r5, r6, r7, lr}
     4c4:	b083      	sub	sp, #12
     4c6:	0006      	movs	r6, r0
     4c8:	4689      	mov	r9, r1
	/* Sanity check arguments */
	Assert(module);
	Assert(module->hw);
	Assert(packet);

	SercomI2cm *const i2c_module = &(module->hw->I2CM);
     4ca:	6805      	ldr	r5, [r0, #0]

	/* Return value. */
	enum status_code tmp_status;
	uint16_t tmp_data_length = packet->data_length;
     4cc:	884c      	ldrh	r4, [r1, #2]

	/* Written buffer counter. */
	uint16_t counter = 0;

	bool sclsm_flag = i2c_module->CTRLA.bit.SCLSM;
     4ce:	682b      	ldr	r3, [r5, #0]
     4d0:	011b      	lsls	r3, r3, #4
     4d2:	0fdb      	lsrs	r3, r3, #31
     4d4:	469a      	mov	sl, r3

	/* Switch to high speed mode */
	if (packet->high_speed) {
     4d6:	7a4b      	ldrb	r3, [r1, #9]
     4d8:	2b00      	cmp	r3, #0
     4da:	d12b      	bne.n	534 <_i2c_master_read_packet+0x7c>
		_i2c_master_send_hs_master_code(module, packet->hs_master_code);
	}

	/* Set action to ACK. */
	i2c_module->CTRLB.reg &= ~SERCOM_I2CM_CTRLB_ACKACT;
     4dc:	686b      	ldr	r3, [r5, #4]
     4de:	4a58      	ldr	r2, [pc, #352]	; (640 <_i2c_master_read_packet+0x188>)
     4e0:	4013      	ands	r3, r2
     4e2:	606b      	str	r3, [r5, #4]

	/* Set address and direction bit. Will send start command on bus. */
	if (packet->ten_bit_address) {
     4e4:	464b      	mov	r3, r9
     4e6:	7a1b      	ldrb	r3, [r3, #8]
     4e8:	2b00      	cmp	r3, #0
     4ea:	d127      	bne.n	53c <_i2c_master_read_packet+0x84>
				I2C_TRANSFER_READ;
		} else {
			return tmp_status;
		}
	} else {
		i2c_module->ADDR.reg = (packet->address << 1) | I2C_TRANSFER_READ |
     4ec:	464b      	mov	r3, r9
     4ee:	881b      	ldrh	r3, [r3, #0]
     4f0:	005b      	lsls	r3, r3, #1
			(packet->high_speed << SERCOM_I2CM_ADDR_HS_Pos);
     4f2:	464a      	mov	r2, r9
     4f4:	7a52      	ldrb	r2, [r2, #9]
     4f6:	0392      	lsls	r2, r2, #14
		i2c_module->ADDR.reg = (packet->address << 1) | I2C_TRANSFER_READ |
     4f8:	4313      	orrs	r3, r2
     4fa:	2201      	movs	r2, #1
     4fc:	4313      	orrs	r3, r2
     4fe:	626b      	str	r3, [r5, #36]	; 0x24
	}

	/* Wait for response on bus. */
	tmp_status = _i2c_master_wait_for_bus(module);
     500:	0030      	movs	r0, r6
     502:	4b50      	ldr	r3, [pc, #320]	; (644 <_i2c_master_read_packet+0x18c>)
     504:	4798      	blx	r3
     506:	9001      	str	r0, [sp, #4]

	/* Set action to ack or nack. */
	if ((sclsm_flag) && (packet->data_length == 1)) {
     508:	4653      	mov	r3, sl
     50a:	2b00      	cmp	r3, #0
     50c:	d003      	beq.n	516 <_i2c_master_read_packet+0x5e>
     50e:	464b      	mov	r3, r9
     510:	885b      	ldrh	r3, [r3, #2]
     512:	2b01      	cmp	r3, #1
     514:	d03b      	beq.n	58e <_i2c_master_read_packet+0xd6>
		i2c_module->CTRLB.reg |= SERCOM_I2CM_CTRLB_ACKACT;
	} else {
		i2c_module->CTRLB.reg &= ~SERCOM_I2CM_CTRLB_ACKACT;	
     516:	686b      	ldr	r3, [r5, #4]
     518:	4a49      	ldr	r2, [pc, #292]	; (640 <_i2c_master_read_packet+0x188>)
     51a:	4013      	ands	r3, r2
     51c:	606b      	str	r3, [r5, #4]
	}

	/* Check for address response error unless previous error is
	 * detected. */
	if (tmp_status == STATUS_OK) {
     51e:	9b01      	ldr	r3, [sp, #4]
     520:	2b00      	cmp	r3, #0
     522:	d03a      	beq.n	59a <_i2c_master_read_packet+0xe2>
		_i2c_master_wait_for_sync(module);
		packet->data[counter] = i2c_module->DATA.reg;
	}

	return tmp_status;
}
     524:	9801      	ldr	r0, [sp, #4]
     526:	b003      	add	sp, #12
     528:	bc3c      	pop	{r2, r3, r4, r5}
     52a:	4690      	mov	r8, r2
     52c:	4699      	mov	r9, r3
     52e:	46a2      	mov	sl, r4
     530:	46ab      	mov	fp, r5
     532:	bdf0      	pop	{r4, r5, r6, r7, pc}
		_i2c_master_send_hs_master_code(module, packet->hs_master_code);
     534:	7a89      	ldrb	r1, [r1, #10]
     536:	4b44      	ldr	r3, [pc, #272]	; (648 <_i2c_master_read_packet+0x190>)
     538:	4798      	blx	r3
     53a:	e7cf      	b.n	4dc <_i2c_master_read_packet+0x24>
		i2c_module->ADDR.reg = (packet->address << 1) |
     53c:	464b      	mov	r3, r9
     53e:	881b      	ldrh	r3, [r3, #0]
     540:	005b      	lsls	r3, r3, #1
			(packet->high_speed << SERCOM_I2CM_ADDR_HS_Pos) |
     542:	464a      	mov	r2, r9
     544:	7a52      	ldrb	r2, [r2, #9]
     546:	0392      	lsls	r2, r2, #14
		i2c_module->ADDR.reg = (packet->address << 1) |
     548:	4313      	orrs	r3, r2
			(packet->high_speed << SERCOM_I2CM_ADDR_HS_Pos) |
     54a:	2280      	movs	r2, #128	; 0x80
     54c:	0212      	lsls	r2, r2, #8
     54e:	4313      	orrs	r3, r2
		i2c_module->ADDR.reg = (packet->address << 1) |
     550:	626b      	str	r3, [r5, #36]	; 0x24
		tmp_status = _i2c_master_wait_for_bus(module);
     552:	0030      	movs	r0, r6
     554:	4b3b      	ldr	r3, [pc, #236]	; (644 <_i2c_master_read_packet+0x18c>)
     556:	4798      	blx	r3
     558:	9001      	str	r0, [sp, #4]
		i2c_module->CTRLB.reg &= ~SERCOM_I2CM_CTRLB_ACKACT;
     55a:	686b      	ldr	r3, [r5, #4]
     55c:	4a38      	ldr	r2, [pc, #224]	; (640 <_i2c_master_read_packet+0x188>)
     55e:	4013      	ands	r3, r2
     560:	606b      	str	r3, [r5, #4]
		if (tmp_status == STATUS_OK) {
     562:	2800      	cmp	r0, #0
     564:	d1de      	bne.n	524 <_i2c_master_read_packet+0x6c>
			tmp_status = _i2c_master_address_response(module);
     566:	0030      	movs	r0, r6
     568:	4b38      	ldr	r3, [pc, #224]	; (64c <_i2c_master_read_packet+0x194>)
     56a:	4798      	blx	r3
     56c:	9001      	str	r0, [sp, #4]
		if (tmp_status == STATUS_OK) {
     56e:	2800      	cmp	r0, #0
     570:	d1d8      	bne.n	524 <_i2c_master_read_packet+0x6c>
			i2c_module->ADDR.reg = (((packet->address >> 8) | 0x78) << 1) |
     572:	464b      	mov	r3, r9
     574:	881b      	ldrh	r3, [r3, #0]
     576:	0a1b      	lsrs	r3, r3, #8
     578:	2278      	movs	r2, #120	; 0x78
     57a:	4313      	orrs	r3, r2
     57c:	005b      	lsls	r3, r3, #1
				(packet->high_speed << SERCOM_I2CM_ADDR_HS_Pos) |
     57e:	464a      	mov	r2, r9
     580:	7a52      	ldrb	r2, [r2, #9]
     582:	0392      	lsls	r2, r2, #14
     584:	2101      	movs	r1, #1
     586:	430a      	orrs	r2, r1
     588:	4313      	orrs	r3, r2
			i2c_module->ADDR.reg = (((packet->address >> 8) | 0x78) << 1) |
     58a:	626b      	str	r3, [r5, #36]	; 0x24
     58c:	e7b8      	b.n	500 <_i2c_master_read_packet+0x48>
		i2c_module->CTRLB.reg |= SERCOM_I2CM_CTRLB_ACKACT;
     58e:	686a      	ldr	r2, [r5, #4]
     590:	2380      	movs	r3, #128	; 0x80
     592:	02db      	lsls	r3, r3, #11
     594:	4313      	orrs	r3, r2
     596:	606b      	str	r3, [r5, #4]
     598:	e7c1      	b.n	51e <_i2c_master_read_packet+0x66>
		tmp_status = _i2c_master_address_response(module);
     59a:	0030      	movs	r0, r6
     59c:	4b2b      	ldr	r3, [pc, #172]	; (64c <_i2c_master_read_packet+0x194>)
     59e:	4798      	blx	r3
     5a0:	9001      	str	r0, [sp, #4]
	if (tmp_status == STATUS_OK) {
     5a2:	2800      	cmp	r0, #0
     5a4:	d1be      	bne.n	524 <_i2c_master_read_packet+0x6c>
     5a6:	3c01      	subs	r4, #1
     5a8:	b2a4      	uxth	r4, r4
     5aa:	4680      	mov	r8, r0
		while (tmp_data_length--) {
     5ac:	4b28      	ldr	r3, [pc, #160]	; (650 <_i2c_master_read_packet+0x198>)
     5ae:	469b      	mov	fp, r3
     5b0:	e015      	b.n	5de <_i2c_master_read_packet+0x126>
					((sclsm_flag) && (tmp_data_length == 1)))) {
     5b2:	2c01      	cmp	r4, #1
     5b4:	d020      	beq.n	5f8 <_i2c_master_read_packet+0x140>
				_i2c_master_wait_for_sync(module);
     5b6:	0030      	movs	r0, r6
     5b8:	4b26      	ldr	r3, [pc, #152]	; (654 <_i2c_master_read_packet+0x19c>)
     5ba:	4798      	blx	r3
				packet->data[counter++] = i2c_module->DATA.reg;
     5bc:	4643      	mov	r3, r8
     5be:	1c5f      	adds	r7, r3, #1
     5c0:	b2bf      	uxth	r7, r7
     5c2:	2328      	movs	r3, #40	; 0x28
     5c4:	5ceb      	ldrb	r3, [r5, r3]
     5c6:	464a      	mov	r2, r9
     5c8:	6852      	ldr	r2, [r2, #4]
     5ca:	4641      	mov	r1, r8
     5cc:	5453      	strb	r3, [r2, r1]
				tmp_status = _i2c_master_wait_for_bus(module);
     5ce:	0030      	movs	r0, r6
     5d0:	4b1c      	ldr	r3, [pc, #112]	; (644 <_i2c_master_read_packet+0x18c>)
     5d2:	4798      	blx	r3
     5d4:	3c01      	subs	r4, #1
     5d6:	b2a4      	uxth	r4, r4
			if (tmp_status != STATUS_OK) {
     5d8:	2800      	cmp	r0, #0
     5da:	d115      	bne.n	608 <_i2c_master_read_packet+0x150>
				packet->data[counter++] = i2c_module->DATA.reg;
     5dc:	46b8      	mov	r8, r7
		while (tmp_data_length--) {
     5de:	455c      	cmp	r4, fp
     5e0:	d014      	beq.n	60c <_i2c_master_read_packet+0x154>
			if (!(i2c_module->STATUS.reg & SERCOM_I2CM_STATUS_BUSSTATE(2))) {
     5e2:	8b6b      	ldrh	r3, [r5, #26]
     5e4:	069b      	lsls	r3, r3, #26
     5e6:	d527      	bpl.n	638 <_i2c_master_read_packet+0x180>
			if (module->send_nack && (((!sclsm_flag) && (tmp_data_length == 0)) ||
     5e8:	7af3      	ldrb	r3, [r6, #11]
     5ea:	2b00      	cmp	r3, #0
     5ec:	d0e3      	beq.n	5b6 <_i2c_master_read_packet+0xfe>
     5ee:	4653      	mov	r3, sl
     5f0:	2b00      	cmp	r3, #0
     5f2:	d1de      	bne.n	5b2 <_i2c_master_read_packet+0xfa>
     5f4:	2c00      	cmp	r4, #0
     5f6:	d1de      	bne.n	5b6 <_i2c_master_read_packet+0xfe>
				i2c_module->CTRLB.reg |= SERCOM_I2CM_CTRLB_ACKACT;
     5f8:	686a      	ldr	r2, [r5, #4]
     5fa:	2380      	movs	r3, #128	; 0x80
     5fc:	02db      	lsls	r3, r3, #11
     5fe:	4313      	orrs	r3, r2
     600:	606b      	str	r3, [r5, #4]
     602:	3c01      	subs	r4, #1
     604:	b2a4      	uxth	r4, r4
     606:	e7ea      	b.n	5de <_i2c_master_read_packet+0x126>
				packet->data[counter++] = i2c_module->DATA.reg;
     608:	46b8      	mov	r8, r7
				tmp_status = _i2c_master_wait_for_bus(module);
     60a:	9001      	str	r0, [sp, #4]
		if (module->send_stop) {
     60c:	7ab3      	ldrb	r3, [r6, #10]
     60e:	2b00      	cmp	r3, #0
     610:	d109      	bne.n	626 <_i2c_master_read_packet+0x16e>
		_i2c_master_wait_for_sync(module);
     612:	0030      	movs	r0, r6
     614:	4b0f      	ldr	r3, [pc, #60]	; (654 <_i2c_master_read_packet+0x19c>)
     616:	4798      	blx	r3
		packet->data[counter] = i2c_module->DATA.reg;
     618:	2328      	movs	r3, #40	; 0x28
     61a:	5cea      	ldrb	r2, [r5, r3]
     61c:	464b      	mov	r3, r9
     61e:	685b      	ldr	r3, [r3, #4]
     620:	4641      	mov	r1, r8
     622:	545a      	strb	r2, [r3, r1]
     624:	e77e      	b.n	524 <_i2c_master_read_packet+0x6c>
			_i2c_master_wait_for_sync(module);
     626:	0030      	movs	r0, r6
     628:	4b0a      	ldr	r3, [pc, #40]	; (654 <_i2c_master_read_packet+0x19c>)
     62a:	4798      	blx	r3
			i2c_module->CTRLB.reg |= SERCOM_I2CM_CTRLB_CMD(3);
     62c:	686a      	ldr	r2, [r5, #4]
     62e:	23c0      	movs	r3, #192	; 0xc0
     630:	029b      	lsls	r3, r3, #10
     632:	4313      	orrs	r3, r2
     634:	606b      	str	r3, [r5, #4]
     636:	e7ec      	b.n	612 <_i2c_master_read_packet+0x15a>
				return STATUS_ERR_PACKET_COLLISION;
     638:	2341      	movs	r3, #65	; 0x41
     63a:	9301      	str	r3, [sp, #4]
     63c:	e772      	b.n	524 <_i2c_master_read_packet+0x6c>
     63e:	46c0      	nop			; (mov r8, r8)
     640:	fffbffff 	.word	0xfffbffff
     644:	0000046d 	.word	0x0000046d
     648:	00000499 	.word	0x00000499
     64c:	0000043d 	.word	0x0000043d
     650:	0000ffff 	.word	0x0000ffff
     654:	00000139 	.word	0x00000139

00000658 <i2c_master_read_packet_wait>:
 *                                      acknowledged the address
 */
enum status_code i2c_master_read_packet_wait(
		struct i2c_master_module *const module,
		struct i2c_master_packet *const packet)
{
     658:	b510      	push	{r4, lr}
	Assert(module->hw);
	Assert(packet);

#if I2C_MASTER_CALLBACK_MODE == true
	/* Check if the I2C module is busy with a job. */
	if (module->buffer_remaining > 0) {
     65a:	8b83      	ldrh	r3, [r0, #28]
     65c:	b29b      	uxth	r3, r3
		return STATUS_BUSY;
     65e:	2205      	movs	r2, #5
	if (module->buffer_remaining > 0) {
     660:	2b00      	cmp	r3, #0
     662:	d001      	beq.n	668 <i2c_master_read_packet_wait+0x10>

	module->send_stop = true;
	module->send_nack = true;

	return _i2c_master_read_packet(module, packet);
}
     664:	0010      	movs	r0, r2
     666:	bd10      	pop	{r4, pc}
	module->send_stop = true;
     668:	3301      	adds	r3, #1
     66a:	7283      	strb	r3, [r0, #10]
	module->send_nack = true;
     66c:	72c3      	strb	r3, [r0, #11]
	return _i2c_master_read_packet(module, packet);
     66e:	4b02      	ldr	r3, [pc, #8]	; (678 <i2c_master_read_packet_wait+0x20>)
     670:	4798      	blx	r3
     672:	0002      	movs	r2, r0
     674:	e7f6      	b.n	664 <i2c_master_read_packet_wait+0xc>
     676:	46c0      	nop			; (mov r8, r8)
     678:	000004b9 	.word	0x000004b9

0000067c <_i2c_master_wait_for_sync>:
	SercomI2cm *const i2c_hw = &(module->hw->I2CM);
     67c:	6801      	ldr	r1, [r0, #0]
	return (i2c_hw->SYNCBUSY.reg & SERCOM_I2CM_SYNCBUSY_MASK);
     67e:	2207      	movs	r2, #7
     680:	69cb      	ldr	r3, [r1, #28]
	while (i2c_master_is_syncing(module)) {
     682:	421a      	tst	r2, r3
     684:	d1fc      	bne.n	680 <_i2c_master_wait_for_sync+0x4>
}
     686:	4770      	bx	lr

00000688 <_i2c_master_read>:
 *
 * \param[in,out] module  Pointer to software module structure
 */
static void _i2c_master_read(
		struct i2c_master_module *const module)
{
     688:	b570      	push	{r4, r5, r6, lr}
     68a:	0004      	movs	r4, r0
	/* Sanity check arguments. */
	Assert(module);
	Assert(module->hw);

	SercomI2cm *const i2c_module = &(module->hw->I2CM);
     68c:	6806      	ldr	r6, [r0, #0]
	bool sclsm_flag = i2c_module->CTRLA.bit.SCLSM;
     68e:	6832      	ldr	r2, [r6, #0]

	/* Find index to save next value in buffer */
	uint16_t buffer_index = module->buffer_length;
     690:	8b45      	ldrh	r5, [r0, #26]
	buffer_index -= module->buffer_remaining;
     692:	8b83      	ldrh	r3, [r0, #28]
     694:	1aed      	subs	r5, r5, r3
     696:	b2ad      	uxth	r5, r5

	module->buffer_remaining--;
     698:	8b83      	ldrh	r3, [r0, #28]
     69a:	3b01      	subs	r3, #1
     69c:	b29b      	uxth	r3, r3
     69e:	8383      	strh	r3, [r0, #28]

	if (sclsm_flag) {
     6a0:	0113      	lsls	r3, r2, #4
     6a2:	d51d      	bpl.n	6e0 <_i2c_master_read+0x58>
		if (module->send_nack && module->buffer_remaining == 1) {
     6a4:	7ac3      	ldrb	r3, [r0, #11]
     6a6:	2b00      	cmp	r3, #0
     6a8:	d003      	beq.n	6b2 <_i2c_master_read+0x2a>
     6aa:	8b83      	ldrh	r3, [r0, #28]
     6ac:	b29b      	uxth	r3, r3
     6ae:	2b01      	cmp	r3, #1
     6b0:	d010      	beq.n	6d4 <_i2c_master_read+0x4c>
			/* Set action to NACK. */
			i2c_module->CTRLB.reg |= SERCOM_I2CM_CTRLB_ACKACT;
		}
	}

	if (module->buffer_remaining == 0) {
     6b2:	8ba3      	ldrh	r3, [r4, #28]
     6b4:	b29b      	uxth	r3, r3
     6b6:	2b00      	cmp	r3, #0
     6b8:	d102      	bne.n	6c0 <_i2c_master_read+0x38>
		if (module->send_stop) {
     6ba:	7aa3      	ldrb	r3, [r4, #10]
     6bc:	2b00      	cmp	r3, #0
     6be:	d11c      	bne.n	6fa <_i2c_master_read+0x72>
			i2c_module->CTRLB.reg |= SERCOM_I2CM_CTRLB_CMD(3);
		}
	}
	
	/* Read byte from slave and put in buffer */
	_i2c_master_wait_for_sync(module);
     6c0:	0020      	movs	r0, r4
     6c2:	4b12      	ldr	r3, [pc, #72]	; (70c <_i2c_master_read+0x84>)
     6c4:	4798      	blx	r3
	module->buffer[buffer_index] = i2c_module->DATA.reg;
     6c6:	6a23      	ldr	r3, [r4, #32]
     6c8:	195d      	adds	r5, r3, r5
     6ca:	2328      	movs	r3, #40	; 0x28
     6cc:	5cf3      	ldrb	r3, [r6, r3]
     6ce:	b2db      	uxtb	r3, r3
     6d0:	702b      	strb	r3, [r5, #0]
}
     6d2:	bd70      	pop	{r4, r5, r6, pc}
			i2c_module->CTRLB.reg |= SERCOM_I2CM_CTRLB_ACKACT;
     6d4:	6872      	ldr	r2, [r6, #4]
     6d6:	2380      	movs	r3, #128	; 0x80
     6d8:	02db      	lsls	r3, r3, #11
     6da:	4313      	orrs	r3, r2
     6dc:	6073      	str	r3, [r6, #4]
     6de:	e7e8      	b.n	6b2 <_i2c_master_read+0x2a>
		if (module->send_nack && module->buffer_remaining == 0) {
     6e0:	7ac3      	ldrb	r3, [r0, #11]
     6e2:	2b00      	cmp	r3, #0
     6e4:	d0e5      	beq.n	6b2 <_i2c_master_read+0x2a>
     6e6:	8b83      	ldrh	r3, [r0, #28]
     6e8:	b29b      	uxth	r3, r3
     6ea:	2b00      	cmp	r3, #0
     6ec:	d1e1      	bne.n	6b2 <_i2c_master_read+0x2a>
			i2c_module->CTRLB.reg |= SERCOM_I2CM_CTRLB_ACKACT;
     6ee:	6872      	ldr	r2, [r6, #4]
     6f0:	2380      	movs	r3, #128	; 0x80
     6f2:	02db      	lsls	r3, r3, #11
     6f4:	4313      	orrs	r3, r2
     6f6:	6073      	str	r3, [r6, #4]
     6f8:	e7db      	b.n	6b2 <_i2c_master_read+0x2a>
			_i2c_master_wait_for_sync(module);
     6fa:	0020      	movs	r0, r4
     6fc:	4b03      	ldr	r3, [pc, #12]	; (70c <_i2c_master_read+0x84>)
     6fe:	4798      	blx	r3
			i2c_module->CTRLB.reg |= SERCOM_I2CM_CTRLB_CMD(3);
     700:	6872      	ldr	r2, [r6, #4]
     702:	23c0      	movs	r3, #192	; 0xc0
     704:	029b      	lsls	r3, r3, #10
     706:	4313      	orrs	r3, r2
     708:	6073      	str	r3, [r6, #4]
     70a:	e7d9      	b.n	6c0 <_i2c_master_read+0x38>
     70c:	0000067d 	.word	0x0000067d

00000710 <_i2c_master_write>:
 * Write next data. Used by interrupt handler to send next data byte to slave.
 *
 * \param[in,out] module  Pointer to software module structure
 */
static void _i2c_master_write(struct i2c_master_module *const module)
{
     710:	b570      	push	{r4, r5, r6, lr}
     712:	0004      	movs	r4, r0
	/* Sanity check arguments. */
	Assert(module);
	Assert(module->hw);

	SercomI2cm *const i2c_module = &(module->hw->I2CM);
     714:	6805      	ldr	r5, [r0, #0]

	/* Check for ack from slave */
	if (i2c_module->STATUS.reg & SERCOM_I2CM_STATUS_RXNACK)
     716:	8b6b      	ldrh	r3, [r5, #26]
     718:	075b      	lsls	r3, r3, #29
     71a:	d503      	bpl.n	724 <_i2c_master_write+0x14>
	{
		/* Set status */
		module->status = STATUS_ERR_OVERFLOW;
     71c:	221e      	movs	r2, #30
     71e:	2325      	movs	r3, #37	; 0x25
     720:	54c2      	strb	r2, [r0, r3]
	module->buffer_remaining--;

	/* Write byte from buffer to slave */
	_i2c_master_wait_for_sync(module);
	i2c_module->DATA.reg = module->buffer[buffer_index];
}
     722:	bd70      	pop	{r4, r5, r6, pc}
	uint16_t buffer_index = module->buffer_length;
     724:	8b46      	ldrh	r6, [r0, #26]
	buffer_index -= module->buffer_remaining;
     726:	8b83      	ldrh	r3, [r0, #28]
     728:	1af6      	subs	r6, r6, r3
     72a:	b2b6      	uxth	r6, r6
	module->buffer_remaining--;
     72c:	8b83      	ldrh	r3, [r0, #28]
     72e:	3b01      	subs	r3, #1
     730:	b29b      	uxth	r3, r3
     732:	8383      	strh	r3, [r0, #28]
	_i2c_master_wait_for_sync(module);
     734:	4b04      	ldr	r3, [pc, #16]	; (748 <_i2c_master_write+0x38>)
     736:	4798      	blx	r3
	i2c_module->DATA.reg = module->buffer[buffer_index];
     738:	6a23      	ldr	r3, [r4, #32]
     73a:	199e      	adds	r6, r3, r6
     73c:	7833      	ldrb	r3, [r6, #0]
     73e:	b2db      	uxtb	r3, r3
     740:	2228      	movs	r2, #40	; 0x28
     742:	54ab      	strb	r3, [r5, r2]
     744:	e7ed      	b.n	722 <_i2c_master_write+0x12>
     746:	46c0      	nop			; (mov r8, r8)
     748:	0000067d 	.word	0x0000067d

0000074c <_i2c_master_write_packet>:
 * \retval STATUS_BUSY If module is currently busy with another transfer
 */
static enum status_code _i2c_master_write_packet(
		struct i2c_master_module *const module,
		struct i2c_master_packet *const packet)
{
     74c:	b570      	push	{r4, r5, r6, lr}
     74e:	0005      	movs	r5, r0
     750:	000c      	movs	r4, r1
	/* Sanity check */
	Assert(module);
	Assert(module->hw);

	SercomI2cm *const i2c_module = &(module->hw->I2CM);
     752:	6806      	ldr	r6, [r0, #0]

	/* Switch to high speed mode */
	if (packet->high_speed) {
     754:	7a4b      	ldrb	r3, [r1, #9]
     756:	2b00      	cmp	r3, #0
     758:	d11a      	bne.n	790 <_i2c_master_write_packet+0x44>
		_i2c_master_send_hs_master_code(module, packet->hs_master_code);
	}

	/* Set action to ACK. */
	i2c_module->CTRLB.reg &= ~SERCOM_I2CM_CTRLB_ACKACT;
     75a:	6873      	ldr	r3, [r6, #4]
     75c:	4a13      	ldr	r2, [pc, #76]	; (7ac <_i2c_master_write_packet+0x60>)
     75e:	4013      	ands	r3, r2
     760:	6073      	str	r3, [r6, #4]

	/* Save packet to software module */
	module->buffer             = packet->data;
     762:	6863      	ldr	r3, [r4, #4]
     764:	622b      	str	r3, [r5, #32]
	module->buffer_remaining   = packet->data_length;
     766:	8863      	ldrh	r3, [r4, #2]
     768:	83ab      	strh	r3, [r5, #28]
	module->transfer_direction = I2C_TRANSFER_WRITE;
     76a:	2200      	movs	r2, #0
     76c:	2324      	movs	r3, #36	; 0x24
     76e:	54ea      	strb	r2, [r5, r3]
	module->status             = STATUS_BUSY;
     770:	3205      	adds	r2, #5
     772:	3301      	adds	r3, #1
     774:	54ea      	strb	r2, [r5, r3]

	/* Enable interrupts */
	i2c_module->INTENSET.reg =
     776:	3b22      	subs	r3, #34	; 0x22
     778:	75b3      	strb	r3, [r6, #22]
			SERCOM_I2CM_INTENSET_MB | SERCOM_I2CM_INTENSET_SB;

	/* Set address and direction bit, will send start command on bus */
	if (packet->ten_bit_address) {
     77a:	7a23      	ldrb	r3, [r4, #8]
     77c:	2b00      	cmp	r3, #0
     77e:	d10b      	bne.n	798 <_i2c_master_write_packet+0x4c>
		i2c_module->ADDR.reg = (packet->address << 1) | I2C_TRANSFER_WRITE |
			(packet->high_speed << SERCOM_I2CM_ADDR_HS_Pos) |
			SERCOM_I2CM_ADDR_TENBITEN;
	} else {
		i2c_module->ADDR.reg = (packet->address << 1) | I2C_TRANSFER_WRITE |
     780:	8823      	ldrh	r3, [r4, #0]
     782:	005b      	lsls	r3, r3, #1
			(packet->high_speed << SERCOM_I2CM_ADDR_HS_Pos);
     784:	7a62      	ldrb	r2, [r4, #9]
     786:	0392      	lsls	r2, r2, #14
		i2c_module->ADDR.reg = (packet->address << 1) | I2C_TRANSFER_WRITE |
     788:	4313      	orrs	r3, r2
     78a:	6273      	str	r3, [r6, #36]	; 0x24
	}

	return STATUS_OK;
}
     78c:	2000      	movs	r0, #0
     78e:	bd70      	pop	{r4, r5, r6, pc}
		_i2c_master_send_hs_master_code(module, packet->hs_master_code);
     790:	7a89      	ldrb	r1, [r1, #10]
     792:	4b07      	ldr	r3, [pc, #28]	; (7b0 <_i2c_master_write_packet+0x64>)
     794:	4798      	blx	r3
     796:	e7e0      	b.n	75a <_i2c_master_write_packet+0xe>
		i2c_module->ADDR.reg = (packet->address << 1) | I2C_TRANSFER_WRITE |
     798:	8823      	ldrh	r3, [r4, #0]
     79a:	005b      	lsls	r3, r3, #1
			(packet->high_speed << SERCOM_I2CM_ADDR_HS_Pos) |
     79c:	7a62      	ldrb	r2, [r4, #9]
     79e:	0392      	lsls	r2, r2, #14
		i2c_module->ADDR.reg = (packet->address << 1) | I2C_TRANSFER_WRITE |
     7a0:	4313      	orrs	r3, r2
			(packet->high_speed << SERCOM_I2CM_ADDR_HS_Pos) |
     7a2:	2280      	movs	r2, #128	; 0x80
     7a4:	0212      	lsls	r2, r2, #8
     7a6:	4313      	orrs	r3, r2
		i2c_module->ADDR.reg = (packet->address << 1) | I2C_TRANSFER_WRITE |
     7a8:	6273      	str	r3, [r6, #36]	; 0x24
     7aa:	e7ef      	b.n	78c <_i2c_master_write_packet+0x40>
     7ac:	fffbffff 	.word	0xfffbffff
     7b0:	00000499 	.word	0x00000499

000007b4 <i2c_master_register_callback>:
	module->callbacks[callback_type] = callback;
     7b4:	1c93      	adds	r3, r2, #2
     7b6:	009b      	lsls	r3, r3, #2
     7b8:	18c3      	adds	r3, r0, r3
     7ba:	6059      	str	r1, [r3, #4]
	module->registered_callback |= (1 << callback_type);
     7bc:	7e03      	ldrb	r3, [r0, #24]
     7be:	2101      	movs	r1, #1
     7c0:	4091      	lsls	r1, r2
     7c2:	430b      	orrs	r3, r1
     7c4:	b2db      	uxtb	r3, r3
     7c6:	7603      	strb	r3, [r0, #24]
}
     7c8:	4770      	bx	lr
	...

000007cc <i2c_master_write_packet_job>:
 * \retval STATUS_BUSY  If module is currently busy with another transfer
 */
enum status_code i2c_master_write_packet_job(
		struct i2c_master_module *const module,
		struct i2c_master_packet *const packet)
{
     7cc:	b510      	push	{r4, lr}
	Assert(module);
	Assert(module->hw);
	Assert(packet);

	/* Check if the I2C module is busy with another job. */
	if (module->buffer_remaining > 0) {
     7ce:	8b83      	ldrh	r3, [r0, #28]
     7d0:	b29b      	uxth	r3, r3
		return STATUS_BUSY;
     7d2:	2205      	movs	r2, #5
	if (module->buffer_remaining > 0) {
     7d4:	2b00      	cmp	r3, #0
     7d6:	d001      	beq.n	7dc <i2c_master_write_packet_job+0x10>
	/* Make sure we send STOP at end*/
	module->send_stop = true;
	module->send_nack = true;
	/* Start write operation */
	return _i2c_master_write_packet(module, packet);
}
     7d8:	0010      	movs	r0, r2
     7da:	bd10      	pop	{r4, pc}
	module->send_stop = true;
     7dc:	3301      	adds	r3, #1
     7de:	7283      	strb	r3, [r0, #10]
	module->send_nack = true;
     7e0:	72c3      	strb	r3, [r0, #11]
	return _i2c_master_write_packet(module, packet);
     7e2:	4b02      	ldr	r3, [pc, #8]	; (7ec <i2c_master_write_packet_job+0x20>)
     7e4:	4798      	blx	r3
     7e6:	0002      	movs	r2, r0
     7e8:	e7f6      	b.n	7d8 <i2c_master_write_packet_job+0xc>
     7ea:	46c0      	nop			; (mov r8, r8)
     7ec:	0000074d 	.word	0x0000074d

000007f0 <_i2c_master_interrupt_handler>:
 *
 * \param[in] instance  SERCOM instance that triggered the interrupt
 */
void _i2c_master_interrupt_handler(
		uint8_t instance)
{
     7f0:	b570      	push	{r4, r5, r6, lr}
	/* Get software module for callback handling */
	struct i2c_master_module *module =
     7f2:	0080      	lsls	r0, r0, #2
     7f4:	4b75      	ldr	r3, [pc, #468]	; (9cc <_i2c_master_interrupt_handler+0x1dc>)
     7f6:	58c4      	ldr	r4, [r0, r3]
			(struct i2c_master_module*)_sercom_instances[instance];

	Assert(module);

	SercomI2cm *const i2c_module = &(module->hw->I2CM);
     7f8:	6825      	ldr	r5, [r4, #0]
	bool sclsm_flag = i2c_module->CTRLA.bit.SCLSM;
     7fa:	682b      	ldr	r3, [r5, #0]
     7fc:	011b      	lsls	r3, r3, #4
     7fe:	0fda      	lsrs	r2, r3, #31

	/* Combine callback registered and enabled masks */
	uint8_t callback_mask = module->enabled_callback;
     800:	7e63      	ldrb	r3, [r4, #25]
	callback_mask &= module->registered_callback;
     802:	7e26      	ldrb	r6, [r4, #24]
     804:	401e      	ands	r6, r3

	/* Check if the module should respond to address ack */
	if ((module->buffer_length <= 0) && (module->buffer_remaining > 0)) {
     806:	8b63      	ldrh	r3, [r4, #26]
     808:	b29b      	uxth	r3, r3
     80a:	2b00      	cmp	r3, #0
     80c:	d103      	bne.n	816 <_i2c_master_interrupt_handler+0x26>
     80e:	8ba3      	ldrh	r3, [r4, #28]
     810:	b29b      	uxth	r3, r3
     812:	2b00      	cmp	r3, #0
     814:	d123      	bne.n	85e <_i2c_master_interrupt_handler+0x6e>
		/* Call function for address response */
		_i2c_master_async_address_response(module);
	/* Check if buffer write is done */
	} else if ((module->buffer_length > 0)     && (module->buffer_remaining <= 0) &&
     816:	8b63      	ldrh	r3, [r4, #26]
     818:	b29b      	uxth	r3, r3
     81a:	2b00      	cmp	r3, #0
     81c:	d008      	beq.n	830 <_i2c_master_interrupt_handler+0x40>
     81e:	8ba3      	ldrh	r3, [r4, #28]
     820:	b29b      	uxth	r3, r3
     822:	2b00      	cmp	r3, #0
     824:	d104      	bne.n	830 <_i2c_master_interrupt_handler+0x40>
			   (module->status == STATUS_BUSY) && (module->transfer_direction == I2C_TRANSFER_WRITE)) {
     826:	3325      	adds	r3, #37	; 0x25
     828:	5ce3      	ldrb	r3, [r4, r3]
	} else if ((module->buffer_length > 0)     && (module->buffer_remaining <= 0) &&
     82a:	2b05      	cmp	r3, #5
     82c:	d100      	bne.n	830 <_i2c_master_interrupt_handler+0x40>
     82e:	e06d      	b.n	90c <_i2c_master_interrupt_handler+0x11c>
		if (callback_mask & (1 << I2C_MASTER_CALLBACK_WRITE_COMPLETE)) {
			module->callbacks[I2C_MASTER_CALLBACK_WRITE_COMPLETE](module);
		}

	/* Continue buffer write/read */
	} else if ((module->buffer_length > 0) && (module->buffer_remaining > 0)){
     830:	8b63      	ldrh	r3, [r4, #26]
     832:	b29b      	uxth	r3, r3
     834:	2b00      	cmp	r3, #0
     836:	d024      	beq.n	882 <_i2c_master_interrupt_handler+0x92>
     838:	8ba3      	ldrh	r3, [r4, #28]
     83a:	b29b      	uxth	r3, r3
     83c:	2b00      	cmp	r3, #0
     83e:	d020      	beq.n	882 <_i2c_master_interrupt_handler+0x92>
		/* Check that bus ownership is not lost */
		if ((!(i2c_module->STATUS.reg & SERCOM_I2CM_STATUS_BUSSTATE(2))) &&
     840:	8b6b      	ldrh	r3, [r5, #26]
     842:	069b      	lsls	r3, r3, #26
     844:	d500      	bpl.n	848 <_i2c_master_interrupt_handler+0x58>
     846:	e081      	b.n	94c <_i2c_master_interrupt_handler+0x15c>
     848:	2a00      	cmp	r2, #0
     84a:	d004      	beq.n	856 <_i2c_master_interrupt_handler+0x66>
				(!(sclsm_flag && (module->buffer_remaining == 1))))	{
     84c:	8ba3      	ldrh	r3, [r4, #28]
     84e:	b29b      	uxth	r3, r3
     850:	2b01      	cmp	r3, #1
     852:	d100      	bne.n	856 <_i2c_master_interrupt_handler+0x66>
     854:	e07a      	b.n	94c <_i2c_master_interrupt_handler+0x15c>
			module->status = STATUS_ERR_PACKET_COLLISION;
     856:	2241      	movs	r2, #65	; 0x41
     858:	2325      	movs	r3, #37	; 0x25
     85a:	54e2      	strb	r2, [r4, r3]
     85c:	e011      	b.n	882 <_i2c_master_interrupt_handler+0x92>
	if (i2c_module->INTFLAG.reg & SERCOM_I2CM_INTFLAG_MB)
     85e:	7e2b      	ldrb	r3, [r5, #24]
     860:	07db      	lsls	r3, r3, #31
     862:	d507      	bpl.n	874 <_i2c_master_interrupt_handler+0x84>
		i2c_module->INTFLAG.reg = SERCOM_I2CM_INTENCLR_MB;
     864:	2301      	movs	r3, #1
     866:	762b      	strb	r3, [r5, #24]
		if (i2c_module->STATUS.reg & SERCOM_I2CM_STATUS_ARBLOST) {
     868:	8b6b      	ldrh	r3, [r5, #26]
     86a:	079b      	lsls	r3, r3, #30
     86c:	d52e      	bpl.n	8cc <_i2c_master_interrupt_handler+0xdc>
			module->status = STATUS_ERR_PACKET_COLLISION;
     86e:	2241      	movs	r2, #65	; 0x41
     870:	2325      	movs	r3, #37	; 0x25
     872:	54e2      	strb	r2, [r4, r3]
	module->buffer_length = module->buffer_remaining;
     874:	8ba3      	ldrh	r3, [r4, #28]
     876:	b29b      	uxth	r3, r3
     878:	8363      	strh	r3, [r4, #26]
	if (module->status == STATUS_BUSY) {
     87a:	2325      	movs	r3, #37	; 0x25
     87c:	5ce3      	ldrb	r3, [r4, r3]
     87e:	2b05      	cmp	r3, #5
     880:	d038      	beq.n	8f4 <_i2c_master_interrupt_handler+0x104>
			_i2c_master_read(module);
		}
	}

	/* Check if read buffer transfer is complete */
	if ((module->buffer_length > 0) && (module->buffer_remaining <= 0) &&
     882:	8b63      	ldrh	r3, [r4, #26]
     884:	b29b      	uxth	r3, r3
     886:	2b00      	cmp	r3, #0
     888:	d007      	beq.n	89a <_i2c_master_interrupt_handler+0xaa>
     88a:	8ba3      	ldrh	r3, [r4, #28]
     88c:	b29b      	uxth	r3, r3
     88e:	2b00      	cmp	r3, #0
     890:	d103      	bne.n	89a <_i2c_master_interrupt_handler+0xaa>
			(module->status == STATUS_BUSY) &&
     892:	3325      	adds	r3, #37	; 0x25
     894:	5ce3      	ldrb	r3, [r4, r3]
	if ((module->buffer_length > 0) && (module->buffer_remaining <= 0) &&
     896:	2b05      	cmp	r3, #5
     898:	d064      	beq.n	964 <_i2c_master_interrupt_handler+0x174>
			module->callbacks[I2C_MASTER_CALLBACK_WRITE_COMPLETE](module);
		}
	}

	/* Check for error */
	if ((module->status != STATUS_BUSY) && (module->status != STATUS_OK)) {
     89a:	2325      	movs	r3, #37	; 0x25
     89c:	5ce3      	ldrb	r3, [r4, r3]
     89e:	2b05      	cmp	r3, #5
     8a0:	d013      	beq.n	8ca <_i2c_master_interrupt_handler+0xda>
     8a2:	2325      	movs	r3, #37	; 0x25
     8a4:	5ce3      	ldrb	r3, [r4, r3]
     8a6:	2b00      	cmp	r3, #0
     8a8:	d00f      	beq.n	8ca <_i2c_master_interrupt_handler+0xda>
		
		/* Stop packet operation */
		i2c_module->INTENCLR.reg = SERCOM_I2CM_INTENCLR_MB | SERCOM_I2CM_INTENCLR_SB;
     8aa:	2303      	movs	r3, #3
     8ac:	752b      	strb	r3, [r5, #20]

		module->buffer_length = 0;
     8ae:	2300      	movs	r3, #0
     8b0:	8363      	strh	r3, [r4, #26]
		module->buffer_remaining = 0;
     8b2:	83a3      	strh	r3, [r4, #28]

		/* Send nack and stop command unless arbitration is lost */
		if ((module->status != STATUS_ERR_PACKET_COLLISION) &&
     8b4:	3325      	adds	r3, #37	; 0x25
     8b6:	5ce3      	ldrb	r3, [r4, r3]
     8b8:	2b41      	cmp	r3, #65	; 0x41
     8ba:	d003      	beq.n	8c4 <_i2c_master_interrupt_handler+0xd4>
     8bc:	7aa3      	ldrb	r3, [r4, #10]
     8be:	2b00      	cmp	r3, #0
     8c0:	d000      	beq.n	8c4 <_i2c_master_interrupt_handler+0xd4>
     8c2:	e075      	b.n	9b0 <_i2c_master_interrupt_handler+0x1c0>
			i2c_module->CTRLB.reg |= SERCOM_I2CM_CTRLB_ACKACT |
					SERCOM_I2CM_CTRLB_CMD(3);
		}

		/* Call error callback if enabled and registered */
		if (callback_mask & (1 << I2C_MASTER_CALLBACK_ERROR)) {
     8c4:	0773      	lsls	r3, r6, #29
     8c6:	d500      	bpl.n	8ca <_i2c_master_interrupt_handler+0xda>
     8c8:	e07b      	b.n	9c2 <_i2c_master_interrupt_handler+0x1d2>
			module->callbacks[I2C_MASTER_CALLBACK_ERROR](module);
		}
	}
}
     8ca:	bd70      	pop	{r4, r5, r6, pc}
		else if (i2c_module->STATUS.reg & SERCOM_I2CM_STATUS_RXNACK) {
     8cc:	8b6b      	ldrh	r3, [r5, #26]
     8ce:	075b      	lsls	r3, r3, #29
     8d0:	d5d0      	bpl.n	874 <_i2c_master_interrupt_handler+0x84>
			module->status           = STATUS_ERR_BAD_ADDRESS;
     8d2:	2218      	movs	r2, #24
     8d4:	2325      	movs	r3, #37	; 0x25
     8d6:	54e2      	strb	r2, [r4, r3]
			module->buffer_remaining = 0;
     8d8:	2300      	movs	r3, #0
     8da:	83a3      	strh	r3, [r4, #28]
			if (module->send_stop) {
     8dc:	7aa3      	ldrb	r3, [r4, #10]
     8de:	2b00      	cmp	r3, #0
     8e0:	d0c8      	beq.n	874 <_i2c_master_interrupt_handler+0x84>
				_i2c_master_wait_for_sync(module);
     8e2:	0020      	movs	r0, r4
     8e4:	4b3a      	ldr	r3, [pc, #232]	; (9d0 <_i2c_master_interrupt_handler+0x1e0>)
     8e6:	4798      	blx	r3
				i2c_module->CTRLB.reg |= SERCOM_I2CM_CTRLB_CMD(3);
     8e8:	686a      	ldr	r2, [r5, #4]
     8ea:	23c0      	movs	r3, #192	; 0xc0
     8ec:	029b      	lsls	r3, r3, #10
     8ee:	4313      	orrs	r3, r2
     8f0:	606b      	str	r3, [r5, #4]
     8f2:	e7bf      	b.n	874 <_i2c_master_interrupt_handler+0x84>
		if (module->transfer_direction == I2C_TRANSFER_WRITE) {
     8f4:	331f      	adds	r3, #31
     8f6:	5ce3      	ldrb	r3, [r4, r3]
     8f8:	2b00      	cmp	r3, #0
     8fa:	d003      	beq.n	904 <_i2c_master_interrupt_handler+0x114>
			_i2c_master_read(module);
     8fc:	0020      	movs	r0, r4
     8fe:	4b35      	ldr	r3, [pc, #212]	; (9d4 <_i2c_master_interrupt_handler+0x1e4>)
     900:	4798      	blx	r3
     902:	e7be      	b.n	882 <_i2c_master_interrupt_handler+0x92>
			_i2c_master_write(module);
     904:	0020      	movs	r0, r4
     906:	4b34      	ldr	r3, [pc, #208]	; (9d8 <_i2c_master_interrupt_handler+0x1e8>)
     908:	4798      	blx	r3
     90a:	e7ba      	b.n	882 <_i2c_master_interrupt_handler+0x92>
			   (module->status == STATUS_BUSY) && (module->transfer_direction == I2C_TRANSFER_WRITE)) {
     90c:	331f      	adds	r3, #31
     90e:	5ce3      	ldrb	r3, [r4, r3]
     910:	2b00      	cmp	r3, #0
     912:	d000      	beq.n	916 <_i2c_master_interrupt_handler+0x126>
     914:	e78c      	b.n	830 <_i2c_master_interrupt_handler+0x40>
		i2c_module->INTENCLR.reg	=	SERCOM_I2CM_INTENCLR_MB | SERCOM_I2CM_INTENCLR_SB;
     916:	3303      	adds	r3, #3
     918:	752b      	strb	r3, [r5, #20]
		module->buffer_length		=	0;
     91a:	2300      	movs	r3, #0
     91c:	8363      	strh	r3, [r4, #26]
		module->status				=	STATUS_OK;
     91e:	3325      	adds	r3, #37	; 0x25
     920:	2200      	movs	r2, #0
     922:	54e2      	strb	r2, [r4, r3]
		if (module->send_stop) {
     924:	7aa3      	ldrb	r3, [r4, #10]
     926:	2b00      	cmp	r3, #0
     928:	d107      	bne.n	93a <_i2c_master_interrupt_handler+0x14a>
			i2c_module->INTFLAG.reg = SERCOM_I2CM_INTFLAG_MB;
     92a:	2301      	movs	r3, #1
     92c:	762b      	strb	r3, [r5, #24]
		if (callback_mask & (1 << I2C_MASTER_CALLBACK_WRITE_COMPLETE)) {
     92e:	07f3      	lsls	r3, r6, #31
     930:	d5a7      	bpl.n	882 <_i2c_master_interrupt_handler+0x92>
			module->callbacks[I2C_MASTER_CALLBACK_WRITE_COMPLETE](module);
     932:	68e3      	ldr	r3, [r4, #12]
     934:	0020      	movs	r0, r4
     936:	4798      	blx	r3
     938:	e7a3      	b.n	882 <_i2c_master_interrupt_handler+0x92>
			_i2c_master_wait_for_sync(module);
     93a:	0020      	movs	r0, r4
     93c:	4b24      	ldr	r3, [pc, #144]	; (9d0 <_i2c_master_interrupt_handler+0x1e0>)
     93e:	4798      	blx	r3
			i2c_module->CTRLB.reg |= SERCOM_I2CM_CTRLB_CMD(3);
     940:	686a      	ldr	r2, [r5, #4]
     942:	23c0      	movs	r3, #192	; 0xc0
     944:	029b      	lsls	r3, r3, #10
     946:	4313      	orrs	r3, r2
     948:	606b      	str	r3, [r5, #4]
     94a:	e7f0      	b.n	92e <_i2c_master_interrupt_handler+0x13e>
		} else if (module->transfer_direction == I2C_TRANSFER_WRITE) {
     94c:	2324      	movs	r3, #36	; 0x24
     94e:	5ce3      	ldrb	r3, [r4, r3]
     950:	2b00      	cmp	r3, #0
     952:	d103      	bne.n	95c <_i2c_master_interrupt_handler+0x16c>
			_i2c_master_write(module);
     954:	0020      	movs	r0, r4
     956:	4b20      	ldr	r3, [pc, #128]	; (9d8 <_i2c_master_interrupt_handler+0x1e8>)
     958:	4798      	blx	r3
     95a:	e792      	b.n	882 <_i2c_master_interrupt_handler+0x92>
			_i2c_master_read(module);
     95c:	0020      	movs	r0, r4
     95e:	4b1d      	ldr	r3, [pc, #116]	; (9d4 <_i2c_master_interrupt_handler+0x1e4>)
     960:	4798      	blx	r3
     962:	e78e      	b.n	882 <_i2c_master_interrupt_handler+0x92>
			(module->transfer_direction == I2C_TRANSFER_READ)) {
     964:	331f      	adds	r3, #31
     966:	5ce3      	ldrb	r3, [r4, r3]
			(module->status == STATUS_BUSY) &&
     968:	2b01      	cmp	r3, #1
     96a:	d196      	bne.n	89a <_i2c_master_interrupt_handler+0xaa>
		if (i2c_module->INTFLAG.reg & SERCOM_I2CM_INTFLAG_SB) {
     96c:	7e2b      	ldrb	r3, [r5, #24]
     96e:	079b      	lsls	r3, r3, #30
     970:	d501      	bpl.n	976 <_i2c_master_interrupt_handler+0x186>
			i2c_module->INTFLAG.reg = SERCOM_I2CM_INTFLAG_SB;
     972:	2302      	movs	r3, #2
     974:	762b      	strb	r3, [r5, #24]
		i2c_module->INTENCLR.reg =
     976:	2303      	movs	r3, #3
     978:	752b      	strb	r3, [r5, #20]
		module->buffer_length = 0;
     97a:	2300      	movs	r3, #0
     97c:	8363      	strh	r3, [r4, #26]
		module->status        = STATUS_OK;
     97e:	3325      	adds	r3, #37	; 0x25
     980:	2200      	movs	r2, #0
     982:	54e2      	strb	r2, [r4, r3]
		if ((callback_mask & (1 << I2C_MASTER_CALLBACK_READ_COMPLETE))
     984:	07b3      	lsls	r3, r6, #30
     986:	d503      	bpl.n	990 <_i2c_master_interrupt_handler+0x1a0>
				&& (module->transfer_direction == I2C_TRANSFER_READ)) {
     988:	2324      	movs	r3, #36	; 0x24
     98a:	5ce3      	ldrb	r3, [r4, r3]
     98c:	2b01      	cmp	r3, #1
     98e:	d00b      	beq.n	9a8 <_i2c_master_interrupt_handler+0x1b8>
		} else if ((callback_mask & (1 << I2C_MASTER_CALLBACK_WRITE_COMPLETE))
     990:	07f3      	lsls	r3, r6, #31
     992:	d400      	bmi.n	996 <_i2c_master_interrupt_handler+0x1a6>
     994:	e781      	b.n	89a <_i2c_master_interrupt_handler+0xaa>
				&& (module->transfer_direction == I2C_TRANSFER_WRITE)) {
     996:	2324      	movs	r3, #36	; 0x24
     998:	5ce3      	ldrb	r3, [r4, r3]
     99a:	2b00      	cmp	r3, #0
     99c:	d000      	beq.n	9a0 <_i2c_master_interrupt_handler+0x1b0>
     99e:	e77c      	b.n	89a <_i2c_master_interrupt_handler+0xaa>
			module->callbacks[I2C_MASTER_CALLBACK_WRITE_COMPLETE](module);
     9a0:	68e3      	ldr	r3, [r4, #12]
     9a2:	0020      	movs	r0, r4
     9a4:	4798      	blx	r3
     9a6:	e778      	b.n	89a <_i2c_master_interrupt_handler+0xaa>
			module->callbacks[I2C_MASTER_CALLBACK_READ_COMPLETE](module);
     9a8:	6923      	ldr	r3, [r4, #16]
     9aa:	0020      	movs	r0, r4
     9ac:	4798      	blx	r3
     9ae:	e774      	b.n	89a <_i2c_master_interrupt_handler+0xaa>
			_i2c_master_wait_for_sync(module);
     9b0:	0020      	movs	r0, r4
     9b2:	4b07      	ldr	r3, [pc, #28]	; (9d0 <_i2c_master_interrupt_handler+0x1e0>)
     9b4:	4798      	blx	r3
			i2c_module->CTRLB.reg |= SERCOM_I2CM_CTRLB_ACKACT |
     9b6:	686a      	ldr	r2, [r5, #4]
     9b8:	23e0      	movs	r3, #224	; 0xe0
     9ba:	02db      	lsls	r3, r3, #11
     9bc:	4313      	orrs	r3, r2
     9be:	606b      	str	r3, [r5, #4]
     9c0:	e780      	b.n	8c4 <_i2c_master_interrupt_handler+0xd4>
			module->callbacks[I2C_MASTER_CALLBACK_ERROR](module);
     9c2:	6963      	ldr	r3, [r4, #20]
     9c4:	0020      	movs	r0, r4
     9c6:	4798      	blx	r3
}
     9c8:	e77f      	b.n	8ca <_i2c_master_interrupt_handler+0xda>
     9ca:	46c0      	nop			; (mov r8, r8)
     9cc:	20000f8c 	.word	0x20000f8c
     9d0:	0000067d 	.word	0x0000067d
     9d4:	00000689 	.word	0x00000689
     9d8:	00000711 	.word	0x00000711

000009dc <_tcc_interrupt_handler>:
 * \param[in]  module_index  ID of the TCC instance calling the interrupt
 *                           handler
 */
void _tcc_interrupt_handler(
		uint8_t module_index)
{
     9dc:	b5f0      	push	{r4, r5, r6, r7, lr}
     9de:	46c6      	mov	lr, r8
     9e0:	b500      	push	{lr}
	int i;

	uint32_t interrupt_and_callback_status_mask;

	struct tcc_module *module =
     9e2:	0080      	lsls	r0, r0, #2
     9e4:	4b0e      	ldr	r3, [pc, #56]	; (a20 <_tcc_interrupt_handler+0x44>)
     9e6:	58c7      	ldr	r7, [r0, r3]
			(struct tcc_module *)_tcc_instances[module_index];

	interrupt_and_callback_status_mask = (module->hw->INTFLAG.reg &
     9e8:	683b      	ldr	r3, [r7, #0]
     9ea:	6ade      	ldr	r6, [r3, #44]	; 0x2c
     9ec:	6bbb      	ldr	r3, [r7, #56]	; 0x38
     9ee:	6b7a      	ldr	r2, [r7, #52]	; 0x34
     9f0:	4013      	ands	r3, r2
     9f2:	401e      	ands	r6, r3
     9f4:	2400      	movs	r4, #0
			module->register_callback_mask &
			module->enable_callback_mask);

	/* Check if callback interrupt has occured */
	for (i = 0; i < TCC_CALLBACK_N; i ++) {
		if (interrupt_and_callback_status_mask & _tcc_intflag[i]) {
     9f6:	4b0b      	ldr	r3, [pc, #44]	; (a24 <_tcc_interrupt_handler+0x48>)
     9f8:	4698      	mov	r8, r3
     9fa:	e002      	b.n	a02 <_tcc_interrupt_handler+0x26>
     9fc:	3404      	adds	r4, #4
	for (i = 0; i < TCC_CALLBACK_N; i ++) {
     9fe:	2c30      	cmp	r4, #48	; 0x30
     a00:	d00a      	beq.n	a18 <_tcc_interrupt_handler+0x3c>
		if (interrupt_and_callback_status_mask & _tcc_intflag[i]) {
     a02:	4643      	mov	r3, r8
     a04:	58e5      	ldr	r5, [r4, r3]
     a06:	4235      	tst	r5, r6
     a08:	d0f8      	beq.n	9fc <_tcc_interrupt_handler+0x20>
			/* Invoke the registered and enabled callback function */
			(module->callback[i])(module);
     a0a:	193b      	adds	r3, r7, r4
     a0c:	685b      	ldr	r3, [r3, #4]
     a0e:	0038      	movs	r0, r7
     a10:	4798      	blx	r3
			/* Clear interrupt flag */
			module->hw->INTFLAG.reg = _tcc_intflag[i];
     a12:	683b      	ldr	r3, [r7, #0]
     a14:	62dd      	str	r5, [r3, #44]	; 0x2c
     a16:	e7f1      	b.n	9fc <_tcc_interrupt_handler+0x20>
		}
	}
}
     a18:	bc04      	pop	{r2}
     a1a:	4690      	mov	r8, r2
     a1c:	bdf0      	pop	{r4, r5, r6, r7, pc}
     a1e:	46c0      	nop			; (mov r8, r8)
     a20:	20000e20 	.word	0x20000e20
     a24:	0000587c 	.word	0x0000587c

00000a28 <TCC0_Handler>:
MREPEAT(TCC_INST_NUM, _TCC_INTERRUPT_HANDLER, 0)
     a28:	b510      	push	{r4, lr}
     a2a:	2000      	movs	r0, #0
     a2c:	4b01      	ldr	r3, [pc, #4]	; (a34 <TCC0_Handler+0xc>)
     a2e:	4798      	blx	r3
     a30:	bd10      	pop	{r4, pc}
     a32:	46c0      	nop			; (mov r8, r8)
     a34:	000009dd 	.word	0x000009dd

00000a38 <TCC1_Handler>:
     a38:	b510      	push	{r4, lr}
     a3a:	2001      	movs	r0, #1
     a3c:	4b01      	ldr	r3, [pc, #4]	; (a44 <TCC1_Handler+0xc>)
     a3e:	4798      	blx	r3
     a40:	bd10      	pop	{r4, pc}
     a42:	46c0      	nop			; (mov r8, r8)
     a44:	000009dd 	.word	0x000009dd

00000a48 <TCC2_Handler>:
     a48:	b510      	push	{r4, lr}
     a4a:	2002      	movs	r0, #2
     a4c:	4b01      	ldr	r3, [pc, #4]	; (a54 <TCC2_Handler+0xc>)
     a4e:	4798      	blx	r3
     a50:	bd10      	pop	{r4, pc}
     a52:	46c0      	nop			; (mov r8, r8)
     a54:	000009dd 	.word	0x000009dd

00000a58 <tc_register_callback>:
	/* Sanity check arguments */
	Assert(module);
	Assert(callback_func);

	/* Register callback function */
	module->callback[callback_type] = callback_func;
     a58:	1c93      	adds	r3, r2, #2
     a5a:	009b      	lsls	r3, r3, #2
     a5c:	5019      	str	r1, [r3, r0]

	/* Set the bit corresponding to the callback_type */
	if (callback_type == TC_CALLBACK_CC_CHANNEL0) {
     a5e:	2a02      	cmp	r2, #2
     a60:	d009      	beq.n	a76 <tc_register_callback+0x1e>
		module->register_callback_mask |= TC_INTFLAG_MC(1);
	}
	else if (callback_type == TC_CALLBACK_CC_CHANNEL1) {
     a62:	2a03      	cmp	r2, #3
     a64:	d00c      	beq.n	a80 <tc_register_callback+0x28>
		module->register_callback_mask |= TC_INTFLAG_MC(2);
	}
	else {
		module->register_callback_mask |= (1 << callback_type);
     a66:	2301      	movs	r3, #1
     a68:	4093      	lsls	r3, r2
     a6a:	001a      	movs	r2, r3
     a6c:	7e03      	ldrb	r3, [r0, #24]
     a6e:	4313      	orrs	r3, r2
     a70:	7603      	strb	r3, [r0, #24]
	}
	return STATUS_OK;
}
     a72:	2000      	movs	r0, #0
     a74:	4770      	bx	lr
		module->register_callback_mask |= TC_INTFLAG_MC(1);
     a76:	7e03      	ldrb	r3, [r0, #24]
     a78:	2210      	movs	r2, #16
     a7a:	4313      	orrs	r3, r2
     a7c:	7603      	strb	r3, [r0, #24]
     a7e:	e7f8      	b.n	a72 <tc_register_callback+0x1a>
		module->register_callback_mask |= TC_INTFLAG_MC(2);
     a80:	7e03      	ldrb	r3, [r0, #24]
     a82:	2220      	movs	r2, #32
     a84:	4313      	orrs	r3, r2
     a86:	7603      	strb	r3, [r0, #24]
     a88:	e7f3      	b.n	a72 <tc_register_callback+0x1a>
	...

00000a8c <_tc_interrupt_handler>:
 * \param[in]  instance  ID of the TC instance calling the interrupt
 *                       handler
 */
void _tc_interrupt_handler(
		uint8_t instance)
{
     a8c:	b570      	push	{r4, r5, r6, lr}
	/* Temporary variable */
	uint8_t interrupt_and_callback_status_mask;

	/* Get device instance from the look-up table */
	struct tc_module *module
     a8e:	0080      	lsls	r0, r0, #2
     a90:	4b16      	ldr	r3, [pc, #88]	; (aec <_tc_interrupt_handler+0x60>)
     a92:	58c4      	ldr	r4, [r0, r3]
			= (struct tc_module *)_tc_instances[instance];

	/* Read and mask interrupt flag register */
	interrupt_and_callback_status_mask = module->hw->COUNT8.INTFLAG.reg &
     a94:	6823      	ldr	r3, [r4, #0]
     a96:	7b9d      	ldrb	r5, [r3, #14]
     a98:	7e22      	ldrb	r2, [r4, #24]
     a9a:	7e63      	ldrb	r3, [r4, #25]
     a9c:	4013      	ands	r3, r2
     a9e:	401d      	ands	r5, r3
			module->register_callback_mask &
			module->enable_callback_mask;

	/* Check if an Overflow interrupt has occurred */
	if (interrupt_and_callback_status_mask & TC_INTFLAG_OVF) {
     aa0:	07eb      	lsls	r3, r5, #31
     aa2:	d406      	bmi.n	ab2 <_tc_interrupt_handler+0x26>
		/* Clear interrupt flag */
		module->hw->COUNT8.INTFLAG.reg = TC_INTFLAG_OVF;
	}

	/* Check if an Error interrupt has occurred */
	if (interrupt_and_callback_status_mask & TC_INTFLAG_ERR) {
     aa4:	07ab      	lsls	r3, r5, #30
     aa6:	d40b      	bmi.n	ac0 <_tc_interrupt_handler+0x34>
		/* Clear interrupt flag */
		module->hw->COUNT8.INTFLAG.reg = TC_INTFLAG_ERR;
	}

	/* Check if an Match/Capture Channel 0 interrupt has occurred */
	if (interrupt_and_callback_status_mask & TC_INTFLAG_MC(1)) {
     aa8:	06eb      	lsls	r3, r5, #27
     aaa:	d410      	bmi.n	ace <_tc_interrupt_handler+0x42>
		/* Clear interrupt flag */
		module->hw->COUNT8.INTFLAG.reg = TC_INTFLAG_MC(1);
	}

	/* Check if an Match/Capture Channel 1 interrupt has occurred */
	if (interrupt_and_callback_status_mask & TC_INTFLAG_MC(2)) {
     aac:	06ab      	lsls	r3, r5, #26
     aae:	d415      	bmi.n	adc <_tc_interrupt_handler+0x50>
		/* Invoke registered and enabled callback function */
		(module->callback[TC_CALLBACK_CC_CHANNEL1])(module);
		/* Clear interrupt flag */
		module->hw->COUNT8.INTFLAG.reg = TC_INTFLAG_MC(2);
	}
}
     ab0:	bd70      	pop	{r4, r5, r6, pc}
		(module->callback[TC_CALLBACK_OVERFLOW])(module);
     ab2:	0020      	movs	r0, r4
     ab4:	68a3      	ldr	r3, [r4, #8]
     ab6:	4798      	blx	r3
		module->hw->COUNT8.INTFLAG.reg = TC_INTFLAG_OVF;
     ab8:	2301      	movs	r3, #1
     aba:	6822      	ldr	r2, [r4, #0]
     abc:	7393      	strb	r3, [r2, #14]
     abe:	e7f1      	b.n	aa4 <_tc_interrupt_handler+0x18>
		(module->callback[TC_CALLBACK_ERROR])(module);
     ac0:	0020      	movs	r0, r4
     ac2:	68e3      	ldr	r3, [r4, #12]
     ac4:	4798      	blx	r3
		module->hw->COUNT8.INTFLAG.reg = TC_INTFLAG_ERR;
     ac6:	2302      	movs	r3, #2
     ac8:	6822      	ldr	r2, [r4, #0]
     aca:	7393      	strb	r3, [r2, #14]
     acc:	e7ec      	b.n	aa8 <_tc_interrupt_handler+0x1c>
		(module->callback[TC_CALLBACK_CC_CHANNEL0])(module);
     ace:	0020      	movs	r0, r4
     ad0:	6923      	ldr	r3, [r4, #16]
     ad2:	4798      	blx	r3
		module->hw->COUNT8.INTFLAG.reg = TC_INTFLAG_MC(1);
     ad4:	2310      	movs	r3, #16
     ad6:	6822      	ldr	r2, [r4, #0]
     ad8:	7393      	strb	r3, [r2, #14]
     ada:	e7e7      	b.n	aac <_tc_interrupt_handler+0x20>
		(module->callback[TC_CALLBACK_CC_CHANNEL1])(module);
     adc:	0020      	movs	r0, r4
     ade:	6963      	ldr	r3, [r4, #20]
     ae0:	4798      	blx	r3
		module->hw->COUNT8.INTFLAG.reg = TC_INTFLAG_MC(2);
     ae2:	6823      	ldr	r3, [r4, #0]
     ae4:	2220      	movs	r2, #32
     ae6:	739a      	strb	r2, [r3, #14]
}
     ae8:	e7e2      	b.n	ab0 <_tc_interrupt_handler+0x24>
     aea:	46c0      	nop			; (mov r8, r8)
     aec:	20000e2c 	.word	0x20000e2c

00000af0 <TC3_Handler>:
	MRECURSION(TC_INST_NUM, _TC_INTERRUPT_HANDLER, TC_INST_MAX_ID)
     af0:	b510      	push	{r4, lr}
     af2:	2000      	movs	r0, #0
     af4:	4b01      	ldr	r3, [pc, #4]	; (afc <TC3_Handler+0xc>)
     af6:	4798      	blx	r3
     af8:	bd10      	pop	{r4, pc}
     afa:	46c0      	nop			; (mov r8, r8)
     afc:	00000a8d 	.word	0x00000a8d

00000b00 <TC4_Handler>:
     b00:	b510      	push	{r4, lr}
     b02:	2001      	movs	r0, #1
     b04:	4b01      	ldr	r3, [pc, #4]	; (b0c <TC4_Handler+0xc>)
     b06:	4798      	blx	r3
     b08:	bd10      	pop	{r4, pc}
     b0a:	46c0      	nop			; (mov r8, r8)
     b0c:	00000a8d 	.word	0x00000a8d

00000b10 <TC5_Handler>:
     b10:	b510      	push	{r4, lr}
     b12:	2002      	movs	r0, #2
     b14:	4b01      	ldr	r3, [pc, #4]	; (b1c <TC5_Handler+0xc>)
     b16:	4798      	blx	r3
     b18:	bd10      	pop	{r4, pc}
     b1a:	46c0      	nop			; (mov r8, r8)
     b1c:	00000a8d 	.word	0x00000a8d

00000b20 <TC6_Handler>:
     b20:	b510      	push	{r4, lr}
     b22:	2003      	movs	r0, #3
     b24:	4b01      	ldr	r3, [pc, #4]	; (b2c <TC6_Handler+0xc>)
     b26:	4798      	blx	r3
     b28:	bd10      	pop	{r4, pc}
     b2a:	46c0      	nop			; (mov r8, r8)
     b2c:	00000a8d 	.word	0x00000a8d

00000b30 <TC7_Handler>:
     b30:	b510      	push	{r4, lr}
     b32:	2004      	movs	r0, #4
     b34:	4b01      	ldr	r3, [pc, #4]	; (b3c <TC7_Handler+0xc>)
     b36:	4798      	blx	r3
     b38:	bd10      	pop	{r4, pc}
     b3a:	46c0      	nop			; (mov r8, r8)
     b3c:	00000a8d 	.word	0x00000a8d

00000b40 <_tc_get_inst_index>:
 *
 * \return Index of the given TC module instance.
 */
uint8_t _tc_get_inst_index(
		Tc *const hw)
{
     b40:	b530      	push	{r4, r5, lr}
     b42:	b087      	sub	sp, #28
	/* List of available TC modules. */
	Tc *const tc_modules[TC_INST_NUM] = TC_INSTS;
     b44:	a901      	add	r1, sp, #4
     b46:	4b0c      	ldr	r3, [pc, #48]	; (b78 <_tc_get_inst_index+0x38>)
     b48:	000a      	movs	r2, r1
     b4a:	cb32      	ldmia	r3!, {r1, r4, r5}
     b4c:	c232      	stmia	r2!, {r1, r4, r5}
     b4e:	cb12      	ldmia	r3!, {r1, r4}
     b50:	c212      	stmia	r2!, {r1, r4}

	/* Find index for TC instance. */
	for (uint32_t i = 0; i < TC_INST_NUM; i++) {
		if (hw == tc_modules[i]) {
     b52:	9b01      	ldr	r3, [sp, #4]
     b54:	4298      	cmp	r0, r3
     b56:	d00b      	beq.n	b70 <_tc_get_inst_index+0x30>
     b58:	2301      	movs	r3, #1
     b5a:	a901      	add	r1, sp, #4
     b5c:	009a      	lsls	r2, r3, #2
     b5e:	5852      	ldr	r2, [r2, r1]
     b60:	4282      	cmp	r2, r0
     b62:	d006      	beq.n	b72 <_tc_get_inst_index+0x32>
	for (uint32_t i = 0; i < TC_INST_NUM; i++) {
     b64:	3301      	adds	r3, #1
     b66:	2b05      	cmp	r3, #5
     b68:	d1f8      	bne.n	b5c <_tc_get_inst_index+0x1c>
		}
	}

	/* Invalid data given. */
	Assert(false);
	return 0;
     b6a:	2000      	movs	r0, #0
}
     b6c:	b007      	add	sp, #28
     b6e:	bd30      	pop	{r4, r5, pc}
	for (uint32_t i = 0; i < TC_INST_NUM; i++) {
     b70:	2300      	movs	r3, #0
			return i;
     b72:	b2d8      	uxtb	r0, r3
     b74:	e7fa      	b.n	b6c <_tc_get_inst_index+0x2c>
     b76:	46c0      	nop			; (mov r8, r8)
     b78:	000058ac 	.word	0x000058ac

00000b7c <tc_init>:
 */
enum status_code tc_init(
		struct tc_module *const module_inst,
		Tc *const hw,
		const struct tc_config *const config)
{
     b7c:	b5f0      	push	{r4, r5, r6, r7, lr}
     b7e:	b089      	sub	sp, #36	; 0x24
     b80:	0004      	movs	r4, r0
     b82:	000d      	movs	r5, r1
     b84:	0016      	movs	r6, r2
	uint8_t ctrlbset_tmp = 0;
	/* Temporary variable to hold all updates to the CTRLC
	 * register before they are written to it */
	uint8_t ctrlc_tmp = 0;
	/* Temporary variable to hold TC instance number */
	uint8_t instance = _tc_get_inst_index(hw);
     b86:	0008      	movs	r0, r1
     b88:	4b84      	ldr	r3, [pc, #528]	; (d9c <tc_init+0x220>)
     b8a:	4798      	blx	r3
     b8c:	0007      	movs	r7, r0

	/* Array of GLCK ID for different TC instances */
	uint8_t inst_gclk_id[] = TC_INST_GCLK_ID;
     b8e:	ab06      	add	r3, sp, #24
     b90:	221b      	movs	r2, #27
     b92:	701a      	strb	r2, [r3, #0]
     b94:	3201      	adds	r2, #1
     b96:	705a      	strb	r2, [r3, #1]
     b98:	709a      	strb	r2, [r3, #2]
     b9a:	3201      	adds	r2, #1
     b9c:	70da      	strb	r2, [r3, #3]
     b9e:	711a      	strb	r2, [r3, #4]
	/* Array of PM APBC mask bit position for different TC instances */
	uint16_t inst_pm_apbmask[] = TC_INST_PM_APBCMASK;
     ba0:	3a13      	subs	r2, #19
     ba2:	497f      	ldr	r1, [pc, #508]	; (da0 <tc_init+0x224>)
     ba4:	3114      	adds	r1, #20
     ba6:	a803      	add	r0, sp, #12
     ba8:	4b7e      	ldr	r3, [pc, #504]	; (da4 <tc_init+0x228>)
     baa:	4798      	blx	r3
	struct system_gclk_chan_config gclk_chan_config;

#if TC_ASYNC == true
	/* Initialize parameters */
	for (uint8_t i = 0; i < TC_CALLBACK_N; i++) {
		module_inst->callback[i]        = NULL;
     bac:	2300      	movs	r3, #0
     bae:	60a3      	str	r3, [r4, #8]
     bb0:	60e3      	str	r3, [r4, #12]
     bb2:	6123      	str	r3, [r4, #16]
     bb4:	6163      	str	r3, [r4, #20]
	}
	module_inst->register_callback_mask     = 0x00;
     bb6:	7623      	strb	r3, [r4, #24]
	module_inst->enable_callback_mask       = 0x00;
     bb8:	7663      	strb	r3, [r4, #25]

	/* Register this instance for callbacks*/
	_tc_instances[instance] = module_inst;
     bba:	00ba      	lsls	r2, r7, #2
     bbc:	4b7a      	ldr	r3, [pc, #488]	; (da8 <tc_init+0x22c>)
     bbe:	50d4      	str	r4, [r2, r3]
#endif

	/* Associate the given device instance with the hardware module */
	module_inst->hw = hw;
     bc0:	6025      	str	r5, [r4, #0]
#else
	/* Check if odd numbered TC modules are being configured in 32-bit
	 * counter size. Only even numbered counters are allowed to be
	 * configured in 32-bit counter size.
	 */
	if ((config->counter_size == TC_COUNTER_SIZE_32BIT) &&
     bc2:	78b3      	ldrb	r3, [r6, #2]
     bc4:	2b08      	cmp	r3, #8
     bc6:	d006      	beq.n	bd6 <tc_init+0x5a>
#endif

	/* Make the counter size variable in the module_inst struct reflect
	 * the counter size in the module
	 */
	module_inst->counter_size = config->counter_size;
     bc8:	7123      	strb	r3, [r4, #4]

	if (hw->COUNT8.CTRLA.reg & TC_CTRLA_SWRST) {
     bca:	882b      	ldrh	r3, [r5, #0]
		/* We are in the middle of a reset. Abort. */
		return STATUS_BUSY;
     bcc:	2005      	movs	r0, #5
	if (hw->COUNT8.CTRLA.reg & TC_CTRLA_SWRST) {
     bce:	07db      	lsls	r3, r3, #31
     bd0:	d505      	bpl.n	bde <tc_init+0x62>
			return STATUS_OK;
	}

	Assert(false);
	return STATUS_ERR_INVALID_ARG;
}
     bd2:	b009      	add	sp, #36	; 0x24
     bd4:	bdf0      	pop	{r4, r5, r6, r7, pc}
		return STATUS_ERR_INVALID_ARG;
     bd6:	2017      	movs	r0, #23
	if ((config->counter_size == TC_COUNTER_SIZE_32BIT) &&
     bd8:	07fa      	lsls	r2, r7, #31
     bda:	d5fa      	bpl.n	bd2 <tc_init+0x56>
     bdc:	e7f4      	b.n	bc8 <tc_init+0x4c>
	if (hw->COUNT8.STATUS.reg & TC_STATUS_SLAVE) {
     bde:	7beb      	ldrb	r3, [r5, #15]
		return STATUS_ERR_DENIED;
     be0:	3017      	adds	r0, #23
	if (hw->COUNT8.STATUS.reg & TC_STATUS_SLAVE) {
     be2:	06db      	lsls	r3, r3, #27
     be4:	d4f5      	bmi.n	bd2 <tc_init+0x56>
	if (hw->COUNT8.CTRLA.reg & TC_CTRLA_ENABLE) {
     be6:	882b      	ldrh	r3, [r5, #0]
     be8:	079b      	lsls	r3, r3, #30
     bea:	d4f2      	bmi.n	bd2 <tc_init+0x56>
	if (config->pwm_channel[0].enabled) {
     bec:	7c33      	ldrb	r3, [r6, #16]
     bee:	2b00      	cmp	r3, #0
     bf0:	d179      	bne.n	ce6 <tc_init+0x16a>
	if (config->pwm_channel[1].enabled) {
     bf2:	7f33      	ldrb	r3, [r6, #28]
     bf4:	2b00      	cmp	r3, #0
     bf6:	d000      	beq.n	bfa <tc_init+0x7e>
     bf8:	e081      	b.n	cfe <tc_init+0x182>
     bfa:	496c      	ldr	r1, [pc, #432]	; (dac <tc_init+0x230>)
     bfc:	6a08      	ldr	r0, [r1, #32]
			inst_pm_apbmask[instance]);
     bfe:	007a      	lsls	r2, r7, #1
	system_apb_clock_set_mask(SYSTEM_CLOCK_APB_APBC,
     c00:	ab03      	add	r3, sp, #12
     c02:	5ad3      	ldrh	r3, [r2, r3]
     c04:	4303      	orrs	r3, r0
     c06:	620b      	str	r3, [r1, #32]
	if ((config->counter_size == TC_COUNTER_SIZE_32BIT))
     c08:	78b3      	ldrb	r3, [r6, #2]
     c0a:	2b08      	cmp	r3, #8
     c0c:	d100      	bne.n	c10 <tc_init+0x94>
     c0e:	e086      	b.n	d1e <tc_init+0x1a2>
	gclk_chan_config.source_generator = config->clock_source;
     c10:	a901      	add	r1, sp, #4
     c12:	7833      	ldrb	r3, [r6, #0]
     c14:	700b      	strb	r3, [r1, #0]
	system_gclk_chan_set_config(inst_gclk_id[instance], &gclk_chan_config);
     c16:	ab06      	add	r3, sp, #24
     c18:	5ddf      	ldrb	r7, [r3, r7]
     c1a:	0038      	movs	r0, r7
     c1c:	4b64      	ldr	r3, [pc, #400]	; (db0 <tc_init+0x234>)
     c1e:	4798      	blx	r3
	system_gclk_chan_enable(inst_gclk_id[instance]);
     c20:	0038      	movs	r0, r7
     c22:	4b64      	ldr	r3, [pc, #400]	; (db4 <tc_init+0x238>)
     c24:	4798      	blx	r3
	ctrla_tmp =
     c26:	8931      	ldrh	r1, [r6, #8]
     c28:	88b3      	ldrh	r3, [r6, #4]
     c2a:	430b      	orrs	r3, r1
			(uint32_t)config->wave_generation |
     c2c:	78b1      	ldrb	r1, [r6, #2]
     c2e:	79b2      	ldrb	r2, [r6, #6]
     c30:	4311      	orrs	r1, r2
	ctrla_tmp =
     c32:	4319      	orrs	r1, r3
	if (config->run_in_standby) {
     c34:	7873      	ldrb	r3, [r6, #1]
     c36:	2b00      	cmp	r3, #0
     c38:	d002      	beq.n	c40 <tc_init+0xc4>
		ctrla_tmp |= TC_CTRLA_RUNSTDBY;
     c3a:	2380      	movs	r3, #128	; 0x80
     c3c:	011b      	lsls	r3, r3, #4
     c3e:	4319      	orrs	r1, r3
	/* Sanity check arguments */
	Assert(module_inst);
	Assert(module_inst->hw);

	/* Get a pointer to the module's hardware instance */
	TcCount8 *const tc_module = &(module_inst->hw->COUNT8);
     c40:	6822      	ldr	r2, [r4, #0]

#if (SAML21) || (SAML22) || (SAMC20) || (SAMC21) || (SAMR30)
	return (tc_module->SYNCBUSY.reg);
#else
	return (tc_module->STATUS.reg & TC_STATUS_SYNCBUSY);
     c42:	7bd3      	ldrb	r3, [r2, #15]
	while (tc_is_syncing(module_inst)) {
     c44:	b25b      	sxtb	r3, r3
     c46:	2b00      	cmp	r3, #0
     c48:	dbfb      	blt.n	c42 <tc_init+0xc6>
	hw->COUNT8.CTRLA.reg = ctrla_tmp;
     c4a:	8029      	strh	r1, [r5, #0]
	if (config->oneshot) {
     c4c:	7b71      	ldrb	r1, [r6, #13]
		ctrlbset_tmp = TC_CTRLBSET_ONESHOT;
     c4e:	1e4b      	subs	r3, r1, #1
     c50:	4199      	sbcs	r1, r3
     c52:	0089      	lsls	r1, r1, #2
	if (config->count_direction) {
     c54:	7bb3      	ldrb	r3, [r6, #14]
     c56:	2b00      	cmp	r3, #0
     c58:	d001      	beq.n	c5e <tc_init+0xe2>
		ctrlbset_tmp |= TC_CTRLBSET_DIR;
     c5a:	2301      	movs	r3, #1
     c5c:	4319      	orrs	r1, r3
	TcCount8 *const tc_module = &(module_inst->hw->COUNT8);
     c5e:	6822      	ldr	r2, [r4, #0]
	return (tc_module->STATUS.reg & TC_STATUS_SYNCBUSY);
     c60:	7bd3      	ldrb	r3, [r2, #15]
	while (tc_is_syncing(module_inst)) {
     c62:	b25b      	sxtb	r3, r3
     c64:	2b00      	cmp	r3, #0
     c66:	dbfb      	blt.n	c60 <tc_init+0xe4>
	hw->COUNT8.CTRLBCLR.reg = 0xFF;
     c68:	23ff      	movs	r3, #255	; 0xff
     c6a:	712b      	strb	r3, [r5, #4]
	if (ctrlbset_tmp) {
     c6c:	2900      	cmp	r1, #0
     c6e:	d005      	beq.n	c7c <tc_init+0x100>
	TcCount8 *const tc_module = &(module_inst->hw->COUNT8);
     c70:	6822      	ldr	r2, [r4, #0]
	return (tc_module->STATUS.reg & TC_STATUS_SYNCBUSY);
     c72:	7bd3      	ldrb	r3, [r2, #15]
		while (tc_is_syncing(module_inst)) {
     c74:	b25b      	sxtb	r3, r3
     c76:	2b00      	cmp	r3, #0
     c78:	dbfb      	blt.n	c72 <tc_init+0xf6>
		hw->COUNT8.CTRLBSET.reg = ctrlbset_tmp;
     c7a:	7169      	strb	r1, [r5, #5]
	ctrlc_tmp = config->waveform_invert_output;
     c7c:	7ab1      	ldrb	r1, [r6, #10]
		if (config->enable_capture_on_channel[i] == true) {
     c7e:	7af3      	ldrb	r3, [r6, #11]
     c80:	2b00      	cmp	r3, #0
     c82:	d001      	beq.n	c88 <tc_init+0x10c>
			ctrlc_tmp |= (TC_CTRLC_CPTEN(1) << i);
     c84:	2310      	movs	r3, #16
     c86:	4319      	orrs	r1, r3
		if (config->enable_capture_on_channel[i] == true) {
     c88:	7b33      	ldrb	r3, [r6, #12]
     c8a:	2b00      	cmp	r3, #0
     c8c:	d001      	beq.n	c92 <tc_init+0x116>
			ctrlc_tmp |= (TC_CTRLC_CPTEN(1) << i);
     c8e:	2320      	movs	r3, #32
     c90:	4319      	orrs	r1, r3
	TcCount8 *const tc_module = &(module_inst->hw->COUNT8);
     c92:	6822      	ldr	r2, [r4, #0]
	return (tc_module->STATUS.reg & TC_STATUS_SYNCBUSY);
     c94:	7bd3      	ldrb	r3, [r2, #15]
	while (tc_is_syncing(module_inst)) {
     c96:	b25b      	sxtb	r3, r3
     c98:	2b00      	cmp	r3, #0
     c9a:	dbfb      	blt.n	c94 <tc_init+0x118>
	hw->COUNT8.CTRLC.reg = ctrlc_tmp;
     c9c:	71a9      	strb	r1, [r5, #6]
	TcCount8 *const tc_module = &(module_inst->hw->COUNT8);
     c9e:	6822      	ldr	r2, [r4, #0]
	return (tc_module->STATUS.reg & TC_STATUS_SYNCBUSY);
     ca0:	7bd3      	ldrb	r3, [r2, #15]
	while (tc_is_syncing(module_inst)) {
     ca2:	b25b      	sxtb	r3, r3
     ca4:	2b00      	cmp	r3, #0
     ca6:	dbfb      	blt.n	ca0 <tc_init+0x124>
	switch (module_inst->counter_size) {
     ca8:	7923      	ldrb	r3, [r4, #4]
     caa:	2b04      	cmp	r3, #4
     cac:	d03f      	beq.n	d2e <tc_init+0x1b2>
     cae:	2b08      	cmp	r3, #8
     cb0:	d05e      	beq.n	d70 <tc_init+0x1f4>
	return STATUS_ERR_INVALID_ARG;
     cb2:	2017      	movs	r0, #23
	switch (module_inst->counter_size) {
     cb4:	2b00      	cmp	r3, #0
     cb6:	d000      	beq.n	cba <tc_init+0x13e>
     cb8:	e78b      	b.n	bd2 <tc_init+0x56>
     cba:	7bd3      	ldrb	r3, [r2, #15]
			while (tc_is_syncing(module_inst)) {
     cbc:	b25b      	sxtb	r3, r3
     cbe:	2b00      	cmp	r3, #0
     cc0:	dbfb      	blt.n	cba <tc_init+0x13e>
				= config->counter_16_bit.value;
     cc2:	8d33      	ldrh	r3, [r6, #40]	; 0x28
     cc4:	822b      	strh	r3, [r5, #16]
	TcCount8 *const tc_module = &(module_inst->hw->COUNT8);
     cc6:	6822      	ldr	r2, [r4, #0]
	return (tc_module->STATUS.reg & TC_STATUS_SYNCBUSY);
     cc8:	7bd3      	ldrb	r3, [r2, #15]
			while (tc_is_syncing(module_inst)) {
     cca:	b25b      	sxtb	r3, r3
     ccc:	2b00      	cmp	r3, #0
     cce:	dbfb      	blt.n	cc8 <tc_init+0x14c>
					config->counter_16_bit.compare_capture_channel[0];
     cd0:	8d73      	ldrh	r3, [r6, #42]	; 0x2a
			hw->COUNT16.CC[0].reg =
     cd2:	832b      	strh	r3, [r5, #24]
	TcCount8 *const tc_module = &(module_inst->hw->COUNT8);
     cd4:	6822      	ldr	r2, [r4, #0]
	return (tc_module->STATUS.reg & TC_STATUS_SYNCBUSY);
     cd6:	7bd3      	ldrb	r3, [r2, #15]
			while (tc_is_syncing(module_inst)) {
     cd8:	b25b      	sxtb	r3, r3
     cda:	2b00      	cmp	r3, #0
     cdc:	dbfb      	blt.n	cd6 <tc_init+0x15a>
					config->counter_16_bit.compare_capture_channel[1];
     cde:	8db3      	ldrh	r3, [r6, #44]	; 0x2c
			hw->COUNT16.CC[1].reg =
     ce0:	836b      	strh	r3, [r5, #26]
			return STATUS_OK;
     ce2:	2000      	movs	r0, #0
     ce4:	e775      	b.n	bd2 <tc_init+0x56>
	config->input_pull   = SYSTEM_PINMUX_PIN_PULL_UP;
     ce6:	a902      	add	r1, sp, #8
     ce8:	2301      	movs	r3, #1
     cea:	708b      	strb	r3, [r1, #2]
	config->powersave    = false;
     cec:	2200      	movs	r2, #0
     cee:	70ca      	strb	r2, [r1, #3]
		pin_config.mux_position = config->pwm_channel[0].pin_mux;
     cf0:	7e32      	ldrb	r2, [r6, #24]
     cf2:	700a      	strb	r2, [r1, #0]
		pin_config.direction = SYSTEM_PINMUX_PIN_DIR_OUTPUT;
     cf4:	704b      	strb	r3, [r1, #1]
		system_pinmux_pin_set_config(
     cf6:	7d30      	ldrb	r0, [r6, #20]
     cf8:	4b2f      	ldr	r3, [pc, #188]	; (db8 <tc_init+0x23c>)
     cfa:	4798      	blx	r3
     cfc:	e779      	b.n	bf2 <tc_init+0x76>
	config->input_pull   = SYSTEM_PINMUX_PIN_PULL_UP;
     cfe:	a902      	add	r1, sp, #8
     d00:	2301      	movs	r3, #1
     d02:	708b      	strb	r3, [r1, #2]
	config->powersave    = false;
     d04:	2200      	movs	r2, #0
     d06:	70ca      	strb	r2, [r1, #3]
		pin_config.mux_position = config->pwm_channel[1].pin_mux;
     d08:	3224      	adds	r2, #36	; 0x24
     d0a:	18b2      	adds	r2, r6, r2
     d0c:	7812      	ldrb	r2, [r2, #0]
     d0e:	700a      	strb	r2, [r1, #0]
		pin_config.direction = SYSTEM_PINMUX_PIN_DIR_OUTPUT;
     d10:	704b      	strb	r3, [r1, #1]
		system_pinmux_pin_set_config(
     d12:	331f      	adds	r3, #31
     d14:	18f3      	adds	r3, r6, r3
     d16:	7818      	ldrb	r0, [r3, #0]
     d18:	4b27      	ldr	r3, [pc, #156]	; (db8 <tc_init+0x23c>)
     d1a:	4798      	blx	r3
     d1c:	e76d      	b.n	bfa <tc_init+0x7e>
     d1e:	6a08      	ldr	r0, [r1, #32]
				inst_pm_apbmask[instance + 1]);
     d20:	1c7a      	adds	r2, r7, #1
     d22:	0052      	lsls	r2, r2, #1
		system_apb_clock_set_mask(SYSTEM_CLOCK_APB_APBC,
     d24:	ab03      	add	r3, sp, #12
     d26:	5ad3      	ldrh	r3, [r2, r3]
     d28:	4303      	orrs	r3, r0
     d2a:	620b      	str	r3, [r1, #32]
     d2c:	e770      	b.n	c10 <tc_init+0x94>
     d2e:	7bd3      	ldrb	r3, [r2, #15]
			while (tc_is_syncing(module_inst)) {
     d30:	b25b      	sxtb	r3, r3
     d32:	2b00      	cmp	r3, #0
     d34:	dbfb      	blt.n	d2e <tc_init+0x1b2>
					config->counter_8_bit.value;
     d36:	2328      	movs	r3, #40	; 0x28
     d38:	5cf3      	ldrb	r3, [r6, r3]
			hw->COUNT8.COUNT.reg =
     d3a:	742b      	strb	r3, [r5, #16]
	TcCount8 *const tc_module = &(module_inst->hw->COUNT8);
     d3c:	6822      	ldr	r2, [r4, #0]
	return (tc_module->STATUS.reg & TC_STATUS_SYNCBUSY);
     d3e:	7bd3      	ldrb	r3, [r2, #15]
			while (tc_is_syncing(module_inst)) {
     d40:	b25b      	sxtb	r3, r3
     d42:	2b00      	cmp	r3, #0
     d44:	dbfb      	blt.n	d3e <tc_init+0x1c2>
					config->counter_8_bit.period;
     d46:	2329      	movs	r3, #41	; 0x29
     d48:	5cf3      	ldrb	r3, [r6, r3]
			hw->COUNT8.PER.reg =
     d4a:	752b      	strb	r3, [r5, #20]
	TcCount8 *const tc_module = &(module_inst->hw->COUNT8);
     d4c:	6822      	ldr	r2, [r4, #0]
	return (tc_module->STATUS.reg & TC_STATUS_SYNCBUSY);
     d4e:	7bd3      	ldrb	r3, [r2, #15]
			while (tc_is_syncing(module_inst)) {
     d50:	b25b      	sxtb	r3, r3
     d52:	2b00      	cmp	r3, #0
     d54:	dbfb      	blt.n	d4e <tc_init+0x1d2>
					config->counter_8_bit.compare_capture_channel[0];
     d56:	232a      	movs	r3, #42	; 0x2a
     d58:	5cf3      	ldrb	r3, [r6, r3]
			hw->COUNT8.CC[0].reg =
     d5a:	762b      	strb	r3, [r5, #24]
	TcCount8 *const tc_module = &(module_inst->hw->COUNT8);
     d5c:	6822      	ldr	r2, [r4, #0]
	return (tc_module->STATUS.reg & TC_STATUS_SYNCBUSY);
     d5e:	7bd3      	ldrb	r3, [r2, #15]
			while (tc_is_syncing(module_inst)) {
     d60:	b25b      	sxtb	r3, r3
     d62:	2b00      	cmp	r3, #0
     d64:	dbfb      	blt.n	d5e <tc_init+0x1e2>
					config->counter_8_bit.compare_capture_channel[1];
     d66:	232b      	movs	r3, #43	; 0x2b
     d68:	5cf3      	ldrb	r3, [r6, r3]
			hw->COUNT8.CC[1].reg =
     d6a:	766b      	strb	r3, [r5, #25]
			return STATUS_OK;
     d6c:	2000      	movs	r0, #0
     d6e:	e730      	b.n	bd2 <tc_init+0x56>
     d70:	7bd3      	ldrb	r3, [r2, #15]
			while (tc_is_syncing(module_inst)) {
     d72:	b25b      	sxtb	r3, r3
     d74:	2b00      	cmp	r3, #0
     d76:	dbfb      	blt.n	d70 <tc_init+0x1f4>
				= config->counter_32_bit.value;
     d78:	6ab3      	ldr	r3, [r6, #40]	; 0x28
     d7a:	612b      	str	r3, [r5, #16]
	TcCount8 *const tc_module = &(module_inst->hw->COUNT8);
     d7c:	6822      	ldr	r2, [r4, #0]
	return (tc_module->STATUS.reg & TC_STATUS_SYNCBUSY);
     d7e:	7bd3      	ldrb	r3, [r2, #15]
			while (tc_is_syncing(module_inst)) {
     d80:	b25b      	sxtb	r3, r3
     d82:	2b00      	cmp	r3, #0
     d84:	dbfb      	blt.n	d7e <tc_init+0x202>
			hw->COUNT32.CC[0].reg =
     d86:	6af3      	ldr	r3, [r6, #44]	; 0x2c
     d88:	61ab      	str	r3, [r5, #24]
	TcCount8 *const tc_module = &(module_inst->hw->COUNT8);
     d8a:	6822      	ldr	r2, [r4, #0]
	return (tc_module->STATUS.reg & TC_STATUS_SYNCBUSY);
     d8c:	7bd3      	ldrb	r3, [r2, #15]
			while (tc_is_syncing(module_inst)) {
     d8e:	b25b      	sxtb	r3, r3
     d90:	2b00      	cmp	r3, #0
     d92:	dbfb      	blt.n	d8c <tc_init+0x210>
					config->counter_32_bit.compare_capture_channel[1];
     d94:	6b33      	ldr	r3, [r6, #48]	; 0x30
			hw->COUNT32.CC[1].reg =
     d96:	61eb      	str	r3, [r5, #28]
			return STATUS_OK;
     d98:	2000      	movs	r0, #0
     d9a:	e71a      	b.n	bd2 <tc_init+0x56>
     d9c:	00000b41 	.word	0x00000b41
     da0:	000058ac 	.word	0x000058ac
     da4:	00005785 	.word	0x00005785
     da8:	20000e2c 	.word	0x20000e2c
     dac:	40000400 	.word	0x40000400
     db0:	00003a11 	.word	0x00003a11
     db4:	00003985 	.word	0x00003985
     db8:	00003b09 	.word	0x00003b09

00000dbc <resetInput>:

#define SENSORS_I2C                                  5

void resetInput(uint8_t port)
{
	inputPort[port].address				=		0x00;
     dbc:	4b05      	ldr	r3, [pc, #20]	; (dd4 <resetInput+0x18>)
     dbe:	00c0      	lsls	r0, r0, #3
     dc0:	2200      	movs	r2, #0
     dc2:	54c2      	strb	r2, [r0, r3]
	inputPort[port].readDataLength     =		0x00;
     dc4:	1818      	adds	r0, r3, r0
     dc6:	70c2      	strb	r2, [r0, #3]
    inputPort[port].writeDataLength1   =		0x00;
     dc8:	7102      	strb	r2, [r0, #4]
	inputPort[port].writeDataLength2   =		0x00;
     dca:	7142      	strb	r2, [r0, #5]
	inputPort[port].initialization     =       false;
     dcc:	7182      	strb	r2, [r0, #6]
	inputPort[port].currentState		=		NOTHINGCONNECTED;
     dce:	7042      	strb	r2, [r0, #1]
}
     dd0:	4770      	bx	lr
     dd2:	46c0      	nop			; (mov r8, r8)
     dd4:	20001144 	.word	0x20001144

00000dd8 <selectLineLow>:


void selectLineLow(uint8_t port)
{
     dd8:	b500      	push	{lr}
     dda:	b083      	sub	sp, #12
	/* Sanity check arguments */
	Assert(config);

	/* Default configuration values */
	config->direction  = PORT_PIN_DIR_INPUT;
	config->input_pull = PORT_PIN_PULL_UP;
     ddc:	ab01      	add	r3, sp, #4
     dde:	2201      	movs	r2, #1
     de0:	705a      	strb	r2, [r3, #1]
	config->powersave  = false;
     de2:	2100      	movs	r1, #0
     de4:	7099      	strb	r1, [r3, #2]
	struct port_config config_port_pin;
	port_get_config_defaults(&config_port_pin);
	config_port_pin.direction  = PORT_PIN_DIR_OUTPUT;
     de6:	701a      	strb	r2, [r3, #0]
	
	switch(port)
     de8:	2802      	cmp	r0, #2
     dea:	d00d      	beq.n	e08 <selectLineLow+0x30>
     dec:	2803      	cmp	r0, #3
     dee:	d013      	beq.n	e18 <selectLineLow+0x40>
     df0:	2801      	cmp	r0, #1
     df2:	d001      	beq.n	df8 <selectLineLow+0x20>
			break;
		default:
			break;
	}	
	
}
     df4:	b003      	add	sp, #12
     df6:	bd00      	pop	{pc}
			port_pin_set_config(SEN1_DET_PIN, &config_port_pin);
     df8:	0019      	movs	r1, r3
     dfa:	3025      	adds	r0, #37	; 0x25
     dfc:	4b0b      	ldr	r3, [pc, #44]	; (e2c <selectLineLow+0x54>)
     dfe:	4798      	blx	r3

	/* Set the pin to high or low atomically based on the requested level */
	if (level) {
		port_base->OUTSET.reg = pin_mask;
	} else {
		port_base->OUTCLR.reg = pin_mask;
     e00:	2240      	movs	r2, #64	; 0x40
     e02:	4b0b      	ldr	r3, [pc, #44]	; (e30 <selectLineLow+0x58>)
     e04:	615a      	str	r2, [r3, #20]
     e06:	e7f5      	b.n	df4 <selectLineLow+0x1c>
			port_pin_set_config(SEN2_DET_PIN, &config_port_pin);
     e08:	a901      	add	r1, sp, #4
     e0a:	2025      	movs	r0, #37	; 0x25
     e0c:	4b07      	ldr	r3, [pc, #28]	; (e2c <selectLineLow+0x54>)
     e0e:	4798      	blx	r3
     e10:	2220      	movs	r2, #32
     e12:	4b07      	ldr	r3, [pc, #28]	; (e30 <selectLineLow+0x58>)
     e14:	615a      	str	r2, [r3, #20]
     e16:	e7ed      	b.n	df4 <selectLineLow+0x1c>
			port_pin_set_config(SEN3_DET_PIN, &config_port_pin);
     e18:	a901      	add	r1, sp, #4
     e1a:	200a      	movs	r0, #10
     e1c:	4b03      	ldr	r3, [pc, #12]	; (e2c <selectLineLow+0x54>)
     e1e:	4798      	blx	r3
     e20:	2280      	movs	r2, #128	; 0x80
     e22:	00d2      	lsls	r2, r2, #3
     e24:	4b03      	ldr	r3, [pc, #12]	; (e34 <selectLineLow+0x5c>)
     e26:	615a      	str	r2, [r3, #20]
}
     e28:	e7e4      	b.n	df4 <selectLineLow+0x1c>
     e2a:	46c0      	nop			; (mov r8, r8)
     e2c:	00000115 	.word	0x00000115
     e30:	41004480 	.word	0x41004480
     e34:	41004400 	.word	0x41004400

00000e38 <selectLineDisable>:

void selectLineDisable(uint8_t port)
{
     e38:	b500      	push	{lr}
     e3a:	b083      	sub	sp, #12
	config->direction  = PORT_PIN_DIR_INPUT;
     e3c:	ab01      	add	r3, sp, #4
     e3e:	2200      	movs	r2, #0
     e40:	701a      	strb	r2, [r3, #0]
	config->powersave  = false;
     e42:	709a      	strb	r2, [r3, #2]
	struct port_config config_port_pin;
	port_get_config_defaults(&config_port_pin);
	config_port_pin.direction  = PORT_PIN_DIR_INPUT;
	config_port_pin.input_pull  = PORT_PIN_PULL_NONE;
     e44:	705a      	strb	r2, [r3, #1]
	
	switch(port)
     e46:	2802      	cmp	r0, #2
     e48:	d00a      	beq.n	e60 <selectLineDisable+0x28>
     e4a:	2803      	cmp	r0, #3
     e4c:	d00d      	beq.n	e6a <selectLineDisable+0x32>
     e4e:	2801      	cmp	r0, #1
     e50:	d001      	beq.n	e56 <selectLineDisable+0x1e>
		break;
		default:
		break;
	}
	
}
     e52:	b003      	add	sp, #12
     e54:	bd00      	pop	{pc}
		port_pin_set_config(SEN1_DET_PIN, &config_port_pin);
     e56:	0019      	movs	r1, r3
     e58:	3025      	adds	r0, #37	; 0x25
     e5a:	4b06      	ldr	r3, [pc, #24]	; (e74 <selectLineDisable+0x3c>)
     e5c:	4798      	blx	r3
		break;
     e5e:	e7f8      	b.n	e52 <selectLineDisable+0x1a>
		port_pin_set_config(SEN2_DET_PIN, &config_port_pin);
     e60:	a901      	add	r1, sp, #4
     e62:	2025      	movs	r0, #37	; 0x25
     e64:	4b03      	ldr	r3, [pc, #12]	; (e74 <selectLineDisable+0x3c>)
     e66:	4798      	blx	r3
		break;
     e68:	e7f3      	b.n	e52 <selectLineDisable+0x1a>
		port_pin_set_config(SEN3_DET_PIN, &config_port_pin);
     e6a:	a901      	add	r1, sp, #4
     e6c:	200a      	movs	r0, #10
     e6e:	4b01      	ldr	r3, [pc, #4]	; (e74 <selectLineDisable+0x3c>)
     e70:	4798      	blx	r3
}
     e72:	e7ee      	b.n	e52 <selectLineDisable+0x1a>
     e74:	00000115 	.word	0x00000115

00000e78 <checkSetInputs>:

void  checkSetInputs()
{
     e78:	b5f0      	push	{r4, r5, r6, r7, lr}
     e7a:	46d6      	mov	lr, sl
     e7c:	464f      	mov	r7, r9
     e7e:	4646      	mov	r6, r8
     e80:	b5c0      	push	{r6, r7, lr}
     e82:	b084      	sub	sp, #16
     e84:	2501      	movs	r5, #1
     e86:	2400      	movs	r4, #0
	uint8_t inputConnected		= 0;
	static uint8_t readBufferSensors[20] ;
	
	for(i=0; i<NO_SENSORS;i++)
	{
		inputConnected	= inputsConnected[i];
     e88:	4b2d      	ldr	r3, [pc, #180]	; (f40 <checkSetInputs+0xc8>)
     e8a:	4698      	mov	r8, r3
		if(inputConnected != inputPort[i].currentState)
     e8c:	4e2d      	ldr	r6, [pc, #180]	; (f44 <checkSetInputs+0xcc>)
     e8e:	e00b      	b.n	ea8 <checkSetInputs+0x30>
					}
				//}
					break;
					
				case NOTHINGCONNECTED:
					switch(inputPort[i].currentState)
     e90:	00e2      	lsls	r2, r4, #3
     e92:	4b2c      	ldr	r3, [pc, #176]	; (f44 <checkSetInputs+0xcc>)
     e94:	469c      	mov	ip, r3
     e96:	4462      	add	r2, ip
     e98:	7853      	ldrb	r3, [r2, #1]
     e9a:	2b1b      	cmp	r3, #27
     e9c:	d044      	beq.n	f28 <checkSetInputs+0xb0>
     e9e:	3401      	adds	r4, #1
     ea0:	3501      	adds	r5, #1
     ea2:	b2ed      	uxtb	r5, r5
	for(i=0; i<NO_SENSORS;i++)
     ea4:	2c03      	cmp	r4, #3
     ea6:	d045      	beq.n	f34 <checkSetInputs+0xbc>
     ea8:	b2e0      	uxtb	r0, r4
		inputConnected	= inputsConnected[i];
     eaa:	4643      	mov	r3, r8
     eac:	5d19      	ldrb	r1, [r3, r4]
		if(inputConnected != inputPort[i].currentState)
     eae:	00e3      	lsls	r3, r4, #3
     eb0:	18f3      	adds	r3, r6, r3
     eb2:	785b      	ldrb	r3, [r3, #1]
     eb4:	b2db      	uxtb	r3, r3
     eb6:	4299      	cmp	r1, r3
     eb8:	d0f1      	beq.n	e9e <checkSetInputs+0x26>
			switch(inputConnected)
     eba:	2900      	cmp	r1, #0
     ebc:	d0e8      	beq.n	e90 <checkSetInputs+0x18>
     ebe:	291b      	cmp	r1, #27
     ec0:	d1ed      	bne.n	e9e <checkSetInputs+0x26>
					if(inputPort[i].initialization	  == 		false)
     ec2:	00e1      	lsls	r1, r4, #3
     ec4:	4b1f      	ldr	r3, [pc, #124]	; (f44 <checkSetInputs+0xcc>)
     ec6:	185b      	adds	r3, r3, r1
     ec8:	799b      	ldrb	r3, [r3, #6]
     eca:	2b00      	cmp	r3, #0
     ecc:	d1e7      	bne.n	e9e <checkSetInputs+0x26>
						inputPort[i].address 			  =		PLACEVALUE_I2C_SLAVE_ADDRESS;
     ece:	4f1d      	ldr	r7, [pc, #116]	; (f44 <checkSetInputs+0xcc>)
     ed0:	468a      	mov	sl, r1
     ed2:	2312      	movs	r3, #18
     ed4:	55cb      	strb	r3, [r1, r7]
						inputPort[i].readDataLength      =		PLACEVALUE_READ_DATA_LENGTH;
     ed6:	46b9      	mov	r9, r7
     ed8:	44d1      	add	r9, sl
     eda:	3b0e      	subs	r3, #14
     edc:	464a      	mov	r2, r9
     ede:	70d3      	strb	r3, [r2, #3]
						inputPort[i].writeDataLength1    =		PLACEVALUE_WRITE_DATA_LENGTH_1;
     ee0:	3345      	adds	r3, #69	; 0x45
     ee2:	7113      	strb	r3, [r2, #4]
						inputPort[i].writeDataLength2    =		PLACEVALUE_WRITE_DATA_LENGTH_2;
     ee4:	3b44      	subs	r3, #68	; 0x44
     ee6:	7153      	strb	r3, [r2, #5]
						enableI2CModule(SENSORS_I2C);
     ee8:	2005      	movs	r0, #5
     eea:	4b17      	ldr	r3, [pc, #92]	; (f48 <checkSetInputs+0xd0>)
     eec:	4798      	blx	r3
							.address		 = inputPort[i].address,
     eee:	4653      	mov	r3, sl
     ef0:	5ddb      	ldrb	r3, [r3, r7]
						struct i2c_master_packet rd_packet = {
     ef2:	af01      	add	r7, sp, #4
     ef4:	803b      	strh	r3, [r7, #0]
							.data_length	 = inputPort[i].readDataLength,
     ef6:	464b      	mov	r3, r9
     ef8:	78db      	ldrb	r3, [r3, #3]
						struct i2c_master_packet rd_packet = {
     efa:	807b      	strh	r3, [r7, #2]
     efc:	4b13      	ldr	r3, [pc, #76]	; (f4c <checkSetInputs+0xd4>)
     efe:	9302      	str	r3, [sp, #8]
     f00:	2300      	movs	r3, #0
     f02:	723b      	strb	r3, [r7, #8]
     f04:	727b      	strb	r3, [r7, #9]
     f06:	72bb      	strb	r3, [r7, #10]
						selectLineLow(i+1);
     f08:	0028      	movs	r0, r5
     f0a:	4b11      	ldr	r3, [pc, #68]	; (f50 <checkSetInputs+0xd8>)
     f0c:	4798      	blx	r3
						I2CRead(SENSORS_I2C , &rd_packet);
     f0e:	0039      	movs	r1, r7
     f10:	2005      	movs	r0, #5
     f12:	4b10      	ldr	r3, [pc, #64]	; (f54 <checkSetInputs+0xdc>)
     f14:	4798      	blx	r3
						selectLineDisable(i+1);
     f16:	0028      	movs	r0, r5
     f18:	4b0f      	ldr	r3, [pc, #60]	; (f58 <checkSetInputs+0xe0>)
     f1a:	4798      	blx	r3
						inputPort[i].initialization	      =		true;
     f1c:	2301      	movs	r3, #1
     f1e:	464a      	mov	r2, r9
     f20:	7193      	strb	r3, [r2, #6]
						inputPort[i].currentState		  =		INPUT_PLACEVALUE;
     f22:	331a      	adds	r3, #26
     f24:	7053      	strb	r3, [r2, #1]
     f26:	e7ba      	b.n	e9e <checkSetInputs+0x26>
					{
						case INPUT_PLACEVALUE:
							resetInput(i);
     f28:	4b0c      	ldr	r3, [pc, #48]	; (f5c <checkSetInputs+0xe4>)
     f2a:	4798      	blx	r3
							disableI2CModule(i+1);
     f2c:	0028      	movs	r0, r5
     f2e:	4b0c      	ldr	r3, [pc, #48]	; (f60 <checkSetInputs+0xe8>)
     f30:	4798      	blx	r3
							break;
     f32:	e7b4      	b.n	e9e <checkSetInputs+0x26>
			}
		}
		
	}
	
}
     f34:	b004      	add	sp, #16
     f36:	bc1c      	pop	{r2, r3, r4}
     f38:	4690      	mov	r8, r2
     f3a:	4699      	mov	r9, r3
     f3c:	46a2      	mov	sl, r4
     f3e:	bdf0      	pop	{r4, r5, r6, r7, pc}
     f40:	20000e10 	.word	0x20000e10
     f44:	20001144 	.word	0x20001144
     f48:	000015a9 	.word	0x000015a9
     f4c:	200000d8 	.word	0x200000d8
     f50:	00000dd9 	.word	0x00000dd9
     f54:	000010cd 	.word	0x000010cd
     f58:	00000e39 	.word	0x00000e39
     f5c:	00000dbd 	.word	0x00000dbd
     f60:	00001751 	.word	0x00001751

00000f64 <resetOutput>:
void  checkSetOutputs();


void resetOutput(uint8_t port)
{
	outputPort[port].address			=		0x00;
     f64:	4b05      	ldr	r3, [pc, #20]	; (f7c <resetOutput+0x18>)
     f66:	00c0      	lsls	r0, r0, #3
     f68:	2200      	movs	r2, #0
     f6a:	54c2      	strb	r2, [r0, r3]
	outputPort[port].readDataLength     =		0x00;
     f6c:	1818      	adds	r0, r3, r0
     f6e:	70c2      	strb	r2, [r0, #3]
	outputPort[port].writeDataLength1   =		0x00;
     f70:	7102      	strb	r2, [r0, #4]
	outputPort[port].writeDataLength2   =		0x00;
     f72:	7142      	strb	r2, [r0, #5]
	outputPort[port].initialization     =       false;
     f74:	7182      	strb	r2, [r0, #6]
	outputPort[port].currentState		=		NOTHINGCONNECTED;
     f76:	7042      	strb	r2, [r0, #1]
};
     f78:	4770      	bx	lr
     f7a:	46c0      	nop			; (mov r8, r8)
     f7c:	20001124 	.word	0x20001124

00000f80 <checkSetOutputs>:



void  checkSetOutputs()
{
     f80:	b5f0      	push	{r4, r5, r6, r7, lr}
     f82:	46d6      	mov	lr, sl
     f84:	464f      	mov	r7, r9
     f86:	4646      	mov	r6, r8
     f88:	b5c0      	push	{r6, r7, lr}
     f8a:	b084      	sub	sp, #16
     f8c:	2501      	movs	r5, #1
     f8e:	2400      	movs	r4, #0
	//delay_cycles_ms(5);
	//outputPort[3].currentState		  =		OUTPUT_LEDMATRIX;
	
	for(i=0; i<NO_OUTPUTS;i++)
	{
		outputConnected	= outputsConnected[i];
     f90:	4f2c      	ldr	r7, [pc, #176]	; (1044 <checkSetOutputs+0xc4>)
		if(outputConnected != outputPort[i].currentState)
     f92:	4e2d      	ldr	r6, [pc, #180]	; (1048 <checkSetOutputs+0xc8>)
     f94:	e00b      	b.n	fae <checkSetOutputs+0x2e>
						}
					//}
					break;
					
				case NOTHINGCONNECTED:
					switch(outputPort[i].currentState)
     f96:	00e2      	lsls	r2, r4, #3
     f98:	4b2b      	ldr	r3, [pc, #172]	; (1048 <checkSetOutputs+0xc8>)
     f9a:	469c      	mov	ip, r3
     f9c:	4462      	add	r2, ip
     f9e:	7853      	ldrb	r3, [r2, #1]
     fa0:	2b03      	cmp	r3, #3
     fa2:	d042      	beq.n	102a <checkSetOutputs+0xaa>
     fa4:	3401      	adds	r4, #1
     fa6:	3501      	adds	r5, #1
     fa8:	b2ed      	uxtb	r5, r5
	for(i=0; i<NO_OUTPUTS;i++)
     faa:	2c04      	cmp	r4, #4
     fac:	d043      	beq.n	1036 <checkSetOutputs+0xb6>
     fae:	b2e0      	uxtb	r0, r4
		outputConnected	= outputsConnected[i];
     fb0:	5d39      	ldrb	r1, [r7, r4]
		if(outputConnected != outputPort[i].currentState)
     fb2:	00e3      	lsls	r3, r4, #3
     fb4:	18f3      	adds	r3, r6, r3
     fb6:	785b      	ldrb	r3, [r3, #1]
     fb8:	b2db      	uxtb	r3, r3
     fba:	4299      	cmp	r1, r3
     fbc:	d0f2      	beq.n	fa4 <checkSetOutputs+0x24>
			switch(outputConnected)
     fbe:	2900      	cmp	r1, #0
     fc0:	d0e9      	beq.n	f96 <checkSetOutputs+0x16>
     fc2:	2903      	cmp	r1, #3
     fc4:	d1ee      	bne.n	fa4 <checkSetOutputs+0x24>
						if(outputPort[i].initialization	  == 		false)
     fc6:	00e1      	lsls	r1, r4, #3
     fc8:	4b1f      	ldr	r3, [pc, #124]	; (1048 <checkSetOutputs+0xc8>)
     fca:	185b      	adds	r3, r3, r1
     fcc:	799b      	ldrb	r3, [r3, #6]
     fce:	2b00      	cmp	r3, #0
     fd0:	d1e8      	bne.n	fa4 <checkSetOutputs+0x24>
							outputPort[i].address 			  =		LEDMATRIX_I2C_SLAVE_ADDRESS;
     fd2:	4b1d      	ldr	r3, [pc, #116]	; (1048 <checkSetOutputs+0xc8>)
     fd4:	4699      	mov	r9, r3
     fd6:	468a      	mov	sl, r1
     fd8:	2311      	movs	r3, #17
     fda:	464a      	mov	r2, r9
     fdc:	548b      	strb	r3, [r1, r2]
							outputPort[i].readDataLength     =		LEDMATRIX_READ_DATA_LENGTH;
     fde:	46c8      	mov	r8, r9
     fe0:	44d0      	add	r8, sl
     fe2:	3b0f      	subs	r3, #15
     fe4:	4642      	mov	r2, r8
     fe6:	70d3      	strb	r3, [r2, #3]
							outputPort[i].writeDataLength1   =		LEDMATRIX_WRITE_DATA_LENGTH_1;
     fe8:	3347      	adds	r3, #71	; 0x47
     fea:	7113      	strb	r3, [r2, #4]
							outputPort[i].writeDataLength2   =		LEDMATRIX_WRITE_DATA_LENGTH_2;
     fec:	3b44      	subs	r3, #68	; 0x44
     fee:	7153      	strb	r3, [r2, #5]
							enableI2CModule(i+1);
     ff0:	0028      	movs	r0, r5
     ff2:	4b16      	ldr	r3, [pc, #88]	; (104c <checkSetOutputs+0xcc>)
     ff4:	4798      	blx	r3
								.address     = outputPort[i].address ,
     ff6:	464b      	mov	r3, r9
     ff8:	4652      	mov	r2, sl
     ffa:	5cd3      	ldrb	r3, [r2, r3]
							struct i2c_master_packet wr_packet = {
     ffc:	a901      	add	r1, sp, #4
     ffe:	800b      	strh	r3, [r1, #0]
								.data_length = outputPort[i].writeDataLength1,
    1000:	4643      	mov	r3, r8
    1002:	791b      	ldrb	r3, [r3, #4]
							struct i2c_master_packet wr_packet = {
    1004:	804b      	strh	r3, [r1, #2]
    1006:	4b12      	ldr	r3, [pc, #72]	; (1050 <checkSetOutputs+0xd0>)
    1008:	604b      	str	r3, [r1, #4]
    100a:	2300      	movs	r3, #0
    100c:	720b      	strb	r3, [r1, #8]
    100e:	724b      	strb	r3, [r1, #9]
    1010:	728b      	strb	r3, [r1, #10]
							I2CWrite((i+1) , &wr_packet);
    1012:	0028      	movs	r0, r5
    1014:	4b0f      	ldr	r3, [pc, #60]	; (1054 <checkSetOutputs+0xd4>)
    1016:	4798      	blx	r3
							delay_cycles_ms(5);
    1018:	2005      	movs	r0, #5
    101a:	4b0f      	ldr	r3, [pc, #60]	; (1058 <checkSetOutputs+0xd8>)
    101c:	4798      	blx	r3
							outputPort[i].initialization	  =		true;
    101e:	2301      	movs	r3, #1
    1020:	4642      	mov	r2, r8
    1022:	7193      	strb	r3, [r2, #6]
							outputPort[i].currentState		  =		OUTPUT_LEDMATRIX;
    1024:	3302      	adds	r3, #2
    1026:	7053      	strb	r3, [r2, #1]
    1028:	e7bc      	b.n	fa4 <checkSetOutputs+0x24>
					{
						case OUTPUT_LEDMATRIX:
							resetOutput(i);
    102a:	4b0c      	ldr	r3, [pc, #48]	; (105c <checkSetOutputs+0xdc>)
    102c:	4798      	blx	r3
							disableI2CModule(i+1);
    102e:	0028      	movs	r0, r5
    1030:	4b0b      	ldr	r3, [pc, #44]	; (1060 <checkSetOutputs+0xe0>)
    1032:	4798      	blx	r3
							break;
    1034:	e7b6      	b.n	fa4 <checkSetOutputs+0x24>
		}
		
	}
	
	
}
    1036:	b004      	add	sp, #16
    1038:	bc1c      	pop	{r2, r3, r4}
    103a:	4690      	mov	r8, r2
    103c:	4699      	mov	r9, r3
    103e:	46a2      	mov	sl, r4
    1040:	bdf0      	pop	{r4, r5, r6, r7, pc}
    1042:	46c0      	nop			; (mov r8, r8)
    1044:	20000fc4 	.word	0x20000fc4
    1048:	20001124 	.word	0x20001124
    104c:	000015a9 	.word	0x000015a9
    1050:	20000000 	.word	0x20000000
    1054:	000013b1 	.word	0x000013b1
    1058:	00001c39 	.word	0x00001c39
    105c:	00000f65 	.word	0x00000f65
    1060:	00001751 	.word	0x00001751

00001064 <_i2c_master_wait_for_sync>:
	SercomI2cm *const i2c_hw = &(module->hw->I2CM);
    1064:	6801      	ldr	r1, [r0, #0]
	return (i2c_hw->SYNCBUSY.reg & SERCOM_I2CM_SYNCBUSY_MASK);
    1066:	2207      	movs	r2, #7
    1068:	69cb      	ldr	r3, [r1, #28]
	while (i2c_master_is_syncing(module)) {
    106a:	421a      	tst	r2, r3
    106c:	d1fc      	bne.n	1068 <_i2c_master_wait_for_sync+0x4>
}
    106e:	4770      	bx	lr

00001070 <i2c_read_complete_callback_1>:
	}
}

void i2c_read_complete_callback_1(struct i2c_master_module *const module)
{
	outputPort[0].I2CStatus = IDLE_MODE;
    1070:	2201      	movs	r2, #1
    1072:	4b01      	ldr	r3, [pc, #4]	; (1078 <i2c_read_complete_callback_1+0x8>)
    1074:	71da      	strb	r2, [r3, #7]
}
    1076:	4770      	bx	lr
    1078:	20001124 	.word	0x20001124

0000107c <i2c_read_complete_callback_2>:

void i2c_read_complete_callback_2(struct i2c_master_module *const module)
{
	outputPort[1].I2CStatus = IDLE_MODE;
    107c:	2201      	movs	r2, #1
    107e:	4b01      	ldr	r3, [pc, #4]	; (1084 <i2c_read_complete_callback_2+0x8>)
    1080:	73da      	strb	r2, [r3, #15]
}
    1082:	4770      	bx	lr
    1084:	20001124 	.word	0x20001124

00001088 <i2c_read_complete_callback_3>:

void i2c_read_complete_callback_3(struct i2c_master_module *const module)
{
	outputPort[2].I2CStatus = IDLE_MODE;
    1088:	2201      	movs	r2, #1
    108a:	4b01      	ldr	r3, [pc, #4]	; (1090 <i2c_read_complete_callback_3+0x8>)
    108c:	75da      	strb	r2, [r3, #23]
}
    108e:	4770      	bx	lr
    1090:	20001124 	.word	0x20001124

00001094 <i2c_read_complete_callback_sensors>:


void i2c_read_complete_callback_sensors(struct i2c_master_module *const module)
{
	//inputPort[3].I2CStatus = IDLE_MODE;
}
    1094:	4770      	bx	lr
	...

00001098 <i2c_write_complete_callback_1>:
	rd_packet_1.address     = outputPort[0].address;
	rd_packet_1.data_length = outputPort[0].readDataLength;
	rd_packet_1.data        = rd_buffer_1;
	i2c_master_read_packet_job(&i2c_master_instance_1,&rd_packet_1);
	*/
	outputPort[0].I2CStatus = IDLE_MODE;
    1098:	2201      	movs	r2, #1
    109a:	4b01      	ldr	r3, [pc, #4]	; (10a0 <i2c_write_complete_callback_1+0x8>)
    109c:	71da      	strb	r2, [r3, #7]
}
    109e:	4770      	bx	lr
    10a0:	20001124 	.word	0x20001124

000010a4 <i2c_write_complete_callback_2>:
	rd_packet_2.address     = outputPort[1].address;
	rd_packet_2.data_length = outputPort[1].readDataLength;
	rd_packet_2.data        = rd_buffer_2;
	i2c_master_read_packet_job(&i2c_master_instance_2,&rd_packet_2);
	*/
	outputPort[1].I2CStatus = IDLE_MODE;
    10a4:	2201      	movs	r2, #1
    10a6:	4b01      	ldr	r3, [pc, #4]	; (10ac <i2c_write_complete_callback_2+0x8>)
    10a8:	73da      	strb	r2, [r3, #15]
}
    10aa:	4770      	bx	lr
    10ac:	20001124 	.word	0x20001124

000010b0 <i2c_write_complete_callback_3>:
	rd_packet_3.address     = outputPort[2].address;
	rd_packet_3.data_length = outputPort[2].readDataLength;
	rd_packet_3.data        = rd_buffer_3;
	i2c_master_read_packet_job(&i2c_master_instance_3,&rd_packet_3);
	*/
	outputPort[2].I2CStatus = IDLE_MODE;
    10b0:	2201      	movs	r2, #1
    10b2:	4b01      	ldr	r3, [pc, #4]	; (10b8 <i2c_write_complete_callback_3+0x8>)
    10b4:	75da      	strb	r2, [r3, #23]
}
    10b6:	4770      	bx	lr
    10b8:	20001124 	.word	0x20001124

000010bc <i2c_write_complete_callback_4>:
	rd_packet_4.data_length = outputPort[3].readDataLength;
	rd_packet_4.data        = rd_buffer_4;
	i2c_master_read_packet_job(&i2c_master_instance_4,&rd_packet_4);
	*/
	
	outputPort[3].I2CStatus = IDLE_MODE;
    10bc:	2201      	movs	r2, #1
    10be:	4b01      	ldr	r3, [pc, #4]	; (10c4 <i2c_write_complete_callback_4+0x8>)
    10c0:	77da      	strb	r2, [r3, #31]
}
    10c2:	4770      	bx	lr
    10c4:	20001124 	.word	0x20001124

000010c8 <i2c_write_complete_callback_sensors>:
	rd_packet_4.data        = rd_buffer_4;
	i2c_master_read_packet_job(&i2c_master_instance_4,&rd_packet_4);
	*/
	
	//outputPort[3].I2CStatus = IDLE_MODE;
}
    10c8:	4770      	bx	lr
	...

000010cc <I2CRead>:
{
    10cc:	b5f8      	push	{r3, r4, r5, r6, r7, lr}
    10ce:	46de      	mov	lr, fp
    10d0:	4657      	mov	r7, sl
    10d2:	464e      	mov	r6, r9
    10d4:	4645      	mov	r5, r8
    10d6:	b5e0      	push	{r5, r6, r7, lr}
    10d8:	000c      	movs	r4, r1
	switch(instanceNo)
    10da:	2805      	cmp	r0, #5
    10dc:	d843      	bhi.n	1166 <I2CRead+0x9a>
    10de:	0080      	lsls	r0, r0, #2
    10e0:	4ba8      	ldr	r3, [pc, #672]	; (1384 <I2CRead+0x2b8>)
    10e2:	581b      	ldr	r3, [r3, r0]
    10e4:	469f      	mov	pc, r3
    10e6:	4da8      	ldr	r5, [pc, #672]	; (1388 <I2CRead+0x2bc>)
			while (i2c_master_read_packet_wait(&i2c_master_instance_1, rd_packet) !=STATUS_OK) {
    10e8:	4ea8      	ldr	r6, [pc, #672]	; (138c <I2CRead+0x2c0>)
    10ea:	4fa9      	ldr	r7, [pc, #676]	; (1390 <I2CRead+0x2c4>)
    10ec:	0021      	movs	r1, r4
    10ee:	0030      	movs	r0, r6
    10f0:	47b8      	blx	r7
    10f2:	2800      	cmp	r0, #0
    10f4:	d037      	beq.n	1166 <I2CRead+0x9a>
    10f6:	3d01      	subs	r5, #1
    10f8:	b2ad      	uxth	r5, r5
				if (timeout++ == TIMEOUT) {
    10fa:	2d00      	cmp	r5, #0
    10fc:	d1f6      	bne.n	10ec <I2CRead+0x20>
{
	/* Sanity check of arguments */
	Assert(module);
	Assert(module->hw);

	SercomI2cm *const i2c_module = &(module->hw->I2CM);
    10fe:	4da3      	ldr	r5, [pc, #652]	; (138c <I2CRead+0x2c0>)
    1100:	682c      	ldr	r4, [r5, #0]

#if I2C_MASTER_CALLBACK_MODE == true
		/* Disable module interrupts */
		system_interrupt_disable(_sercom_get_interrupt_vector(module->hw));
    1102:	0020      	movs	r0, r4
    1104:	4ba3      	ldr	r3, [pc, #652]	; (1394 <I2CRead+0x2c8>)
    1106:	4699      	mov	r9, r3
    1108:	4798      	blx	r3
 * \param[in] vector  Interrupt vector to disable
 */
static inline void system_interrupt_disable(
		const enum system_interrupt_vector vector)
{
	NVIC->ICER[0] = (uint32_t)(1 << ((uint32_t)vector & 0x0000001f));
    110a:	271f      	movs	r7, #31
    110c:	4038      	ands	r0, r7
    110e:	2601      	movs	r6, #1
    1110:	0032      	movs	r2, r6
    1112:	4082      	lsls	r2, r0
    1114:	4ba0      	ldr	r3, [pc, #640]	; (1398 <I2CRead+0x2cc>)
    1116:	4698      	mov	r8, r3
    1118:	2380      	movs	r3, #128	; 0x80
    111a:	4641      	mov	r1, r8
    111c:	50ca      	str	r2, [r1, r3]
#endif

	/* Wait for module to sync */
	_i2c_master_wait_for_sync(module);
    111e:	0028      	movs	r0, r5
    1120:	4b9e      	ldr	r3, [pc, #632]	; (139c <I2CRead+0x2d0>)
    1122:	469b      	mov	fp, r3
    1124:	4798      	blx	r3

	/* Disbale interrupt */
	i2c_module->INTENCLR.reg = SERCOM_I2CM_INTENCLR_MASK;
    1126:	2383      	movs	r3, #131	; 0x83
    1128:	7523      	strb	r3, [r4, #20]
	/* Clear interrupt flag */
	i2c_module->INTFLAG.reg = SERCOM_I2CM_INTFLAG_MASK;
    112a:	7623      	strb	r3, [r4, #24]

	/* Disable module */
	i2c_module->CTRLA.reg &= ~SERCOM_I2CM_CTRLA_ENABLE;
    112c:	6823      	ldr	r3, [r4, #0]
    112e:	2202      	movs	r2, #2
    1130:	4692      	mov	sl, r2
    1132:	4393      	bics	r3, r2
    1134:	6023      	str	r3, [r4, #0]
	SercomI2cm *const i2c_module = &(module->hw->I2CM);
    1136:	682c      	ldr	r4, [r5, #0]
	_i2c_master_wait_for_sync(module);
    1138:	0028      	movs	r0, r5
    113a:	47d8      	blx	fp
	i2c_module->CTRLA.reg |= SERCOM_I2CM_CTRLA_ENABLE;
    113c:	6823      	ldr	r3, [r4, #0]
    113e:	4652      	mov	r2, sl
    1140:	4313      	orrs	r3, r2
    1142:	6023      	str	r3, [r4, #0]
	system_interrupt_enable(_sercom_get_interrupt_vector(module->hw));
    1144:	6828      	ldr	r0, [r5, #0]
    1146:	47c8      	blx	r9
	NVIC->ISER[0] = (uint32_t)(1 << ((uint32_t)vector & 0x0000001f));
    1148:	4007      	ands	r7, r0
    114a:	40be      	lsls	r6, r7
    114c:	4643      	mov	r3, r8
    114e:	601e      	str	r6, [r3, #0]
		if(timeout_counter >= (module->unknown_bus_state_timeout)) {
    1150:	88e8      	ldrh	r0, [r5, #6]
	uint32_t timeout_counter = 0;
    1152:	2300      	movs	r3, #0
	while (!(i2c_module->STATUS.reg & SERCOM_I2CM_STATUS_BUSSTATE(1))) {
    1154:	2110      	movs	r1, #16
    1156:	8b62      	ldrh	r2, [r4, #26]
    1158:	420a      	tst	r2, r1
    115a:	d104      	bne.n	1166 <I2CRead+0x9a>
		timeout_counter++;
    115c:	3301      	adds	r3, #1
		if(timeout_counter >= (module->unknown_bus_state_timeout)) {
    115e:	4283      	cmp	r3, r0
    1160:	d3f9      	bcc.n	1156 <I2CRead+0x8a>
			i2c_module->STATUS.reg = SERCOM_I2CM_STATUS_BUSSTATE(1);
    1162:	2310      	movs	r3, #16
    1164:	8363      	strh	r3, [r4, #26]
}
    1166:	bc3c      	pop	{r2, r3, r4, r5}
    1168:	4690      	mov	r8, r2
    116a:	4699      	mov	r9, r3
    116c:	46a2      	mov	sl, r4
    116e:	46ab      	mov	fp, r5
    1170:	bdf8      	pop	{r3, r4, r5, r6, r7, pc}
	switch(instanceNo)
    1172:	4d85      	ldr	r5, [pc, #532]	; (1388 <I2CRead+0x2bc>)
			while (i2c_master_read_packet_wait(&i2c_master_instance_2, rd_packet) !=STATUS_OK) {
    1174:	4e8a      	ldr	r6, [pc, #552]	; (13a0 <I2CRead+0x2d4>)
    1176:	4f86      	ldr	r7, [pc, #536]	; (1390 <I2CRead+0x2c4>)
    1178:	0021      	movs	r1, r4
    117a:	0030      	movs	r0, r6
    117c:	47b8      	blx	r7
    117e:	2800      	cmp	r0, #0
    1180:	d0f1      	beq.n	1166 <I2CRead+0x9a>
    1182:	3d01      	subs	r5, #1
    1184:	b2ad      	uxth	r5, r5
				if (timeout++ == TIMEOUT) {
    1186:	2d00      	cmp	r5, #0
    1188:	d1f6      	bne.n	1178 <I2CRead+0xac>
	SercomI2cm *const i2c_module = &(module->hw->I2CM);
    118a:	4d85      	ldr	r5, [pc, #532]	; (13a0 <I2CRead+0x2d4>)
    118c:	682c      	ldr	r4, [r5, #0]
		system_interrupt_disable(_sercom_get_interrupt_vector(module->hw));
    118e:	0020      	movs	r0, r4
    1190:	4b80      	ldr	r3, [pc, #512]	; (1394 <I2CRead+0x2c8>)
    1192:	4699      	mov	r9, r3
    1194:	4798      	blx	r3
	NVIC->ICER[0] = (uint32_t)(1 << ((uint32_t)vector & 0x0000001f));
    1196:	271f      	movs	r7, #31
    1198:	4038      	ands	r0, r7
    119a:	2601      	movs	r6, #1
    119c:	0032      	movs	r2, r6
    119e:	4082      	lsls	r2, r0
    11a0:	4b7d      	ldr	r3, [pc, #500]	; (1398 <I2CRead+0x2cc>)
    11a2:	4698      	mov	r8, r3
    11a4:	2380      	movs	r3, #128	; 0x80
    11a6:	4641      	mov	r1, r8
    11a8:	50ca      	str	r2, [r1, r3]
	_i2c_master_wait_for_sync(module);
    11aa:	0028      	movs	r0, r5
    11ac:	4b7b      	ldr	r3, [pc, #492]	; (139c <I2CRead+0x2d0>)
    11ae:	469b      	mov	fp, r3
    11b0:	4798      	blx	r3
	i2c_module->INTENCLR.reg = SERCOM_I2CM_INTENCLR_MASK;
    11b2:	2383      	movs	r3, #131	; 0x83
    11b4:	7523      	strb	r3, [r4, #20]
	i2c_module->INTFLAG.reg = SERCOM_I2CM_INTFLAG_MASK;
    11b6:	7623      	strb	r3, [r4, #24]
	i2c_module->CTRLA.reg &= ~SERCOM_I2CM_CTRLA_ENABLE;
    11b8:	6823      	ldr	r3, [r4, #0]
    11ba:	2202      	movs	r2, #2
    11bc:	4692      	mov	sl, r2
    11be:	4393      	bics	r3, r2
    11c0:	6023      	str	r3, [r4, #0]
	SercomI2cm *const i2c_module = &(module->hw->I2CM);
    11c2:	682c      	ldr	r4, [r5, #0]
	_i2c_master_wait_for_sync(module);
    11c4:	0028      	movs	r0, r5
    11c6:	47d8      	blx	fp
	i2c_module->CTRLA.reg |= SERCOM_I2CM_CTRLA_ENABLE;
    11c8:	6823      	ldr	r3, [r4, #0]
    11ca:	4652      	mov	r2, sl
    11cc:	4313      	orrs	r3, r2
    11ce:	6023      	str	r3, [r4, #0]
	system_interrupt_enable(_sercom_get_interrupt_vector(module->hw));
    11d0:	6828      	ldr	r0, [r5, #0]
    11d2:	47c8      	blx	r9
	NVIC->ISER[0] = (uint32_t)(1 << ((uint32_t)vector & 0x0000001f));
    11d4:	4007      	ands	r7, r0
    11d6:	40be      	lsls	r6, r7
    11d8:	4643      	mov	r3, r8
    11da:	601e      	str	r6, [r3, #0]
		if(timeout_counter >= (module->unknown_bus_state_timeout)) {
    11dc:	88e8      	ldrh	r0, [r5, #6]
	uint32_t timeout_counter = 0;
    11de:	2300      	movs	r3, #0
	while (!(i2c_module->STATUS.reg & SERCOM_I2CM_STATUS_BUSSTATE(1))) {
    11e0:	2110      	movs	r1, #16
    11e2:	8b62      	ldrh	r2, [r4, #26]
    11e4:	420a      	tst	r2, r1
    11e6:	d1be      	bne.n	1166 <I2CRead+0x9a>
		timeout_counter++;
    11e8:	3301      	adds	r3, #1
		if(timeout_counter >= (module->unknown_bus_state_timeout)) {
    11ea:	4283      	cmp	r3, r0
    11ec:	d3f9      	bcc.n	11e2 <I2CRead+0x116>
			i2c_module->STATUS.reg = SERCOM_I2CM_STATUS_BUSSTATE(1);
    11ee:	2310      	movs	r3, #16
    11f0:	8363      	strh	r3, [r4, #26]
    11f2:	e7b8      	b.n	1166 <I2CRead+0x9a>
	switch(instanceNo)
    11f4:	4d64      	ldr	r5, [pc, #400]	; (1388 <I2CRead+0x2bc>)
			while (i2c_master_read_packet_wait(&i2c_master_instance_3, rd_packet) !=STATUS_OK) {
    11f6:	4e6b      	ldr	r6, [pc, #428]	; (13a4 <I2CRead+0x2d8>)
    11f8:	4f65      	ldr	r7, [pc, #404]	; (1390 <I2CRead+0x2c4>)
    11fa:	0021      	movs	r1, r4
    11fc:	0030      	movs	r0, r6
    11fe:	47b8      	blx	r7
    1200:	2800      	cmp	r0, #0
    1202:	d0b0      	beq.n	1166 <I2CRead+0x9a>
    1204:	3d01      	subs	r5, #1
    1206:	b2ad      	uxth	r5, r5
				if (timeout++ == TIMEOUT) {
    1208:	2d00      	cmp	r5, #0
    120a:	d1f6      	bne.n	11fa <I2CRead+0x12e>
	SercomI2cm *const i2c_module = &(module->hw->I2CM);
    120c:	4d65      	ldr	r5, [pc, #404]	; (13a4 <I2CRead+0x2d8>)
    120e:	682c      	ldr	r4, [r5, #0]
		system_interrupt_disable(_sercom_get_interrupt_vector(module->hw));
    1210:	0020      	movs	r0, r4
    1212:	4b60      	ldr	r3, [pc, #384]	; (1394 <I2CRead+0x2c8>)
    1214:	4699      	mov	r9, r3
    1216:	4798      	blx	r3
	NVIC->ICER[0] = (uint32_t)(1 << ((uint32_t)vector & 0x0000001f));
    1218:	271f      	movs	r7, #31
    121a:	4038      	ands	r0, r7
    121c:	2601      	movs	r6, #1
    121e:	0032      	movs	r2, r6
    1220:	4082      	lsls	r2, r0
    1222:	4b5d      	ldr	r3, [pc, #372]	; (1398 <I2CRead+0x2cc>)
    1224:	4698      	mov	r8, r3
    1226:	2380      	movs	r3, #128	; 0x80
    1228:	4641      	mov	r1, r8
    122a:	50ca      	str	r2, [r1, r3]
	_i2c_master_wait_for_sync(module);
    122c:	0028      	movs	r0, r5
    122e:	4b5b      	ldr	r3, [pc, #364]	; (139c <I2CRead+0x2d0>)
    1230:	469b      	mov	fp, r3
    1232:	4798      	blx	r3
	i2c_module->INTENCLR.reg = SERCOM_I2CM_INTENCLR_MASK;
    1234:	2383      	movs	r3, #131	; 0x83
    1236:	7523      	strb	r3, [r4, #20]
	i2c_module->INTFLAG.reg = SERCOM_I2CM_INTFLAG_MASK;
    1238:	7623      	strb	r3, [r4, #24]
	i2c_module->CTRLA.reg &= ~SERCOM_I2CM_CTRLA_ENABLE;
    123a:	6823      	ldr	r3, [r4, #0]
    123c:	2202      	movs	r2, #2
    123e:	4692      	mov	sl, r2
    1240:	4393      	bics	r3, r2
    1242:	6023      	str	r3, [r4, #0]
	SercomI2cm *const i2c_module = &(module->hw->I2CM);
    1244:	682c      	ldr	r4, [r5, #0]
	_i2c_master_wait_for_sync(module);
    1246:	0028      	movs	r0, r5
    1248:	47d8      	blx	fp
	i2c_module->CTRLA.reg |= SERCOM_I2CM_CTRLA_ENABLE;
    124a:	6823      	ldr	r3, [r4, #0]
    124c:	4652      	mov	r2, sl
    124e:	4313      	orrs	r3, r2
    1250:	6023      	str	r3, [r4, #0]
	system_interrupt_enable(_sercom_get_interrupt_vector(module->hw));
    1252:	6828      	ldr	r0, [r5, #0]
    1254:	47c8      	blx	r9
	NVIC->ISER[0] = (uint32_t)(1 << ((uint32_t)vector & 0x0000001f));
    1256:	4007      	ands	r7, r0
    1258:	40be      	lsls	r6, r7
    125a:	4643      	mov	r3, r8
    125c:	601e      	str	r6, [r3, #0]
		if(timeout_counter >= (module->unknown_bus_state_timeout)) {
    125e:	88e8      	ldrh	r0, [r5, #6]
	uint32_t timeout_counter = 0;
    1260:	2300      	movs	r3, #0
	while (!(i2c_module->STATUS.reg & SERCOM_I2CM_STATUS_BUSSTATE(1))) {
    1262:	2110      	movs	r1, #16
    1264:	8b62      	ldrh	r2, [r4, #26]
    1266:	420a      	tst	r2, r1
    1268:	d000      	beq.n	126c <I2CRead+0x1a0>
    126a:	e77c      	b.n	1166 <I2CRead+0x9a>
		timeout_counter++;
    126c:	3301      	adds	r3, #1
		if(timeout_counter >= (module->unknown_bus_state_timeout)) {
    126e:	4283      	cmp	r3, r0
    1270:	d3f8      	bcc.n	1264 <I2CRead+0x198>
			i2c_module->STATUS.reg = SERCOM_I2CM_STATUS_BUSSTATE(1);
    1272:	2310      	movs	r3, #16
    1274:	8363      	strh	r3, [r4, #26]
    1276:	e776      	b.n	1166 <I2CRead+0x9a>
	switch(instanceNo)
    1278:	4d43      	ldr	r5, [pc, #268]	; (1388 <I2CRead+0x2bc>)
			while (i2c_master_read_packet_wait(&i2c_master_instance_4, rd_packet) !=STATUS_OK) {
    127a:	4e4b      	ldr	r6, [pc, #300]	; (13a8 <I2CRead+0x2dc>)
    127c:	4f44      	ldr	r7, [pc, #272]	; (1390 <I2CRead+0x2c4>)
    127e:	0021      	movs	r1, r4
    1280:	0030      	movs	r0, r6
    1282:	47b8      	blx	r7
    1284:	2800      	cmp	r0, #0
    1286:	d100      	bne.n	128a <I2CRead+0x1be>
    1288:	e76d      	b.n	1166 <I2CRead+0x9a>
    128a:	3d01      	subs	r5, #1
    128c:	b2ad      	uxth	r5, r5
				if (timeout++ == TIMEOUT) {
    128e:	2d00      	cmp	r5, #0
    1290:	d1f5      	bne.n	127e <I2CRead+0x1b2>
	SercomI2cm *const i2c_module = &(module->hw->I2CM);
    1292:	4d45      	ldr	r5, [pc, #276]	; (13a8 <I2CRead+0x2dc>)
    1294:	682c      	ldr	r4, [r5, #0]
		system_interrupt_disable(_sercom_get_interrupt_vector(module->hw));
    1296:	0020      	movs	r0, r4
    1298:	4b3e      	ldr	r3, [pc, #248]	; (1394 <I2CRead+0x2c8>)
    129a:	4699      	mov	r9, r3
    129c:	4798      	blx	r3
	NVIC->ICER[0] = (uint32_t)(1 << ((uint32_t)vector & 0x0000001f));
    129e:	271f      	movs	r7, #31
    12a0:	4038      	ands	r0, r7
    12a2:	2601      	movs	r6, #1
    12a4:	0032      	movs	r2, r6
    12a6:	4082      	lsls	r2, r0
    12a8:	4b3b      	ldr	r3, [pc, #236]	; (1398 <I2CRead+0x2cc>)
    12aa:	4698      	mov	r8, r3
    12ac:	2380      	movs	r3, #128	; 0x80
    12ae:	4641      	mov	r1, r8
    12b0:	50ca      	str	r2, [r1, r3]
	_i2c_master_wait_for_sync(module);
    12b2:	0028      	movs	r0, r5
    12b4:	4b39      	ldr	r3, [pc, #228]	; (139c <I2CRead+0x2d0>)
    12b6:	469b      	mov	fp, r3
    12b8:	4798      	blx	r3
	i2c_module->INTENCLR.reg = SERCOM_I2CM_INTENCLR_MASK;
    12ba:	2383      	movs	r3, #131	; 0x83
    12bc:	7523      	strb	r3, [r4, #20]
	i2c_module->INTFLAG.reg = SERCOM_I2CM_INTFLAG_MASK;
    12be:	7623      	strb	r3, [r4, #24]
	i2c_module->CTRLA.reg &= ~SERCOM_I2CM_CTRLA_ENABLE;
    12c0:	6823      	ldr	r3, [r4, #0]
    12c2:	2202      	movs	r2, #2
    12c4:	4692      	mov	sl, r2
    12c6:	4393      	bics	r3, r2
    12c8:	6023      	str	r3, [r4, #0]
	SercomI2cm *const i2c_module = &(module->hw->I2CM);
    12ca:	682c      	ldr	r4, [r5, #0]
	_i2c_master_wait_for_sync(module);
    12cc:	0028      	movs	r0, r5
    12ce:	47d8      	blx	fp
	i2c_module->CTRLA.reg |= SERCOM_I2CM_CTRLA_ENABLE;
    12d0:	6823      	ldr	r3, [r4, #0]
    12d2:	4652      	mov	r2, sl
    12d4:	4313      	orrs	r3, r2
    12d6:	6023      	str	r3, [r4, #0]
	system_interrupt_enable(_sercom_get_interrupt_vector(module->hw));
    12d8:	6828      	ldr	r0, [r5, #0]
    12da:	47c8      	blx	r9
	NVIC->ISER[0] = (uint32_t)(1 << ((uint32_t)vector & 0x0000001f));
    12dc:	4007      	ands	r7, r0
    12de:	40be      	lsls	r6, r7
    12e0:	4643      	mov	r3, r8
    12e2:	601e      	str	r6, [r3, #0]
		if(timeout_counter >= (module->unknown_bus_state_timeout)) {
    12e4:	88e8      	ldrh	r0, [r5, #6]
	uint32_t timeout_counter = 0;
    12e6:	2300      	movs	r3, #0
	while (!(i2c_module->STATUS.reg & SERCOM_I2CM_STATUS_BUSSTATE(1))) {
    12e8:	2110      	movs	r1, #16
    12ea:	8b62      	ldrh	r2, [r4, #26]
    12ec:	420a      	tst	r2, r1
    12ee:	d000      	beq.n	12f2 <I2CRead+0x226>
    12f0:	e739      	b.n	1166 <I2CRead+0x9a>
		timeout_counter++;
    12f2:	3301      	adds	r3, #1
		if(timeout_counter >= (module->unknown_bus_state_timeout)) {
    12f4:	4283      	cmp	r3, r0
    12f6:	d3f8      	bcc.n	12ea <I2CRead+0x21e>
			i2c_module->STATUS.reg = SERCOM_I2CM_STATUS_BUSSTATE(1);
    12f8:	2310      	movs	r3, #16
    12fa:	8363      	strh	r3, [r4, #26]
    12fc:	e733      	b.n	1166 <I2CRead+0x9a>
	switch(instanceNo)
    12fe:	4d22      	ldr	r5, [pc, #136]	; (1388 <I2CRead+0x2bc>)
			while (i2c_master_read_packet_wait(&i2c_master_instance_sensors, rd_packet) !=STATUS_OK) {
    1300:	4e2a      	ldr	r6, [pc, #168]	; (13ac <I2CRead+0x2e0>)
    1302:	4f23      	ldr	r7, [pc, #140]	; (1390 <I2CRead+0x2c4>)
    1304:	0021      	movs	r1, r4
    1306:	0030      	movs	r0, r6
    1308:	47b8      	blx	r7
    130a:	2800      	cmp	r0, #0
    130c:	d100      	bne.n	1310 <I2CRead+0x244>
    130e:	e72a      	b.n	1166 <I2CRead+0x9a>
    1310:	3d01      	subs	r5, #1
    1312:	b2ad      	uxth	r5, r5
				if (timeout++ == TIMEOUT) {
    1314:	2d00      	cmp	r5, #0
    1316:	d1f5      	bne.n	1304 <I2CRead+0x238>
	SercomI2cm *const i2c_module = &(module->hw->I2CM);
    1318:	4d24      	ldr	r5, [pc, #144]	; (13ac <I2CRead+0x2e0>)
    131a:	682c      	ldr	r4, [r5, #0]
		system_interrupt_disable(_sercom_get_interrupt_vector(module->hw));
    131c:	0020      	movs	r0, r4
    131e:	4b1d      	ldr	r3, [pc, #116]	; (1394 <I2CRead+0x2c8>)
    1320:	4699      	mov	r9, r3
    1322:	4798      	blx	r3
	NVIC->ICER[0] = (uint32_t)(1 << ((uint32_t)vector & 0x0000001f));
    1324:	271f      	movs	r7, #31
    1326:	4038      	ands	r0, r7
    1328:	2601      	movs	r6, #1
    132a:	0032      	movs	r2, r6
    132c:	4082      	lsls	r2, r0
    132e:	4b1a      	ldr	r3, [pc, #104]	; (1398 <I2CRead+0x2cc>)
    1330:	4698      	mov	r8, r3
    1332:	2380      	movs	r3, #128	; 0x80
    1334:	4641      	mov	r1, r8
    1336:	50ca      	str	r2, [r1, r3]
	_i2c_master_wait_for_sync(module);
    1338:	0028      	movs	r0, r5
    133a:	4b18      	ldr	r3, [pc, #96]	; (139c <I2CRead+0x2d0>)
    133c:	469b      	mov	fp, r3
    133e:	4798      	blx	r3
	i2c_module->INTENCLR.reg = SERCOM_I2CM_INTENCLR_MASK;
    1340:	2383      	movs	r3, #131	; 0x83
    1342:	7523      	strb	r3, [r4, #20]
	i2c_module->INTFLAG.reg = SERCOM_I2CM_INTFLAG_MASK;
    1344:	7623      	strb	r3, [r4, #24]
	i2c_module->CTRLA.reg &= ~SERCOM_I2CM_CTRLA_ENABLE;
    1346:	6823      	ldr	r3, [r4, #0]
    1348:	2202      	movs	r2, #2
    134a:	4692      	mov	sl, r2
    134c:	4393      	bics	r3, r2
    134e:	6023      	str	r3, [r4, #0]
	SercomI2cm *const i2c_module = &(module->hw->I2CM);
    1350:	682c      	ldr	r4, [r5, #0]
	_i2c_master_wait_for_sync(module);
    1352:	0028      	movs	r0, r5
    1354:	47d8      	blx	fp
	i2c_module->CTRLA.reg |= SERCOM_I2CM_CTRLA_ENABLE;
    1356:	6823      	ldr	r3, [r4, #0]
    1358:	4652      	mov	r2, sl
    135a:	4313      	orrs	r3, r2
    135c:	6023      	str	r3, [r4, #0]
	system_interrupt_enable(_sercom_get_interrupt_vector(module->hw));
    135e:	6828      	ldr	r0, [r5, #0]
    1360:	47c8      	blx	r9
	NVIC->ISER[0] = (uint32_t)(1 << ((uint32_t)vector & 0x0000001f));
    1362:	4007      	ands	r7, r0
    1364:	40be      	lsls	r6, r7
    1366:	4643      	mov	r3, r8
    1368:	601e      	str	r6, [r3, #0]
		if(timeout_counter >= (module->unknown_bus_state_timeout)) {
    136a:	88e8      	ldrh	r0, [r5, #6]
	uint32_t timeout_counter = 0;
    136c:	2300      	movs	r3, #0
	while (!(i2c_module->STATUS.reg & SERCOM_I2CM_STATUS_BUSSTATE(1))) {
    136e:	2110      	movs	r1, #16
    1370:	8b62      	ldrh	r2, [r4, #26]
    1372:	420a      	tst	r2, r1
    1374:	d000      	beq.n	1378 <I2CRead+0x2ac>
    1376:	e6f6      	b.n	1166 <I2CRead+0x9a>
		timeout_counter++;
    1378:	3301      	adds	r3, #1
		if(timeout_counter >= (module->unknown_bus_state_timeout)) {
    137a:	4283      	cmp	r3, r0
    137c:	d3f8      	bcc.n	1370 <I2CRead+0x2a4>
			i2c_module->STATUS.reg = SERCOM_I2CM_STATUS_BUSSTATE(1);
    137e:	2310      	movs	r3, #16
    1380:	8363      	strh	r3, [r4, #26]
    1382:	e6f0      	b.n	1166 <I2CRead+0x9a>
    1384:	000058cc 	.word	0x000058cc
    1388:	000003e9 	.word	0x000003e9
    138c:	20000e80 	.word	0x20000e80
    1390:	00000659 	.word	0x00000659
    1394:	00002549 	.word	0x00002549
    1398:	e000e100 	.word	0xe000e100
    139c:	00001065 	.word	0x00001065
    13a0:	20000e40 	.word	0x20000e40
    13a4:	20000f10 	.word	0x20000f10
    13a8:	20000ee8 	.word	0x20000ee8
    13ac:	20000ec0 	.word	0x20000ec0

000013b0 <I2CWrite>:
{
    13b0:	b500      	push	{lr}
    13b2:	b083      	sub	sp, #12
	volatile uint32_t err_code = 0;
    13b4:	2300      	movs	r3, #0
    13b6:	9301      	str	r3, [sp, #4]
	switch(instanceNo)
    13b8:	2802      	cmp	r0, #2
    13ba:	d010      	beq.n	13de <I2CWrite+0x2e>
    13bc:	d908      	bls.n	13d0 <I2CWrite+0x20>
    13be:	2803      	cmp	r0, #3
    13c0:	d011      	beq.n	13e6 <I2CWrite+0x36>
    13c2:	2804      	cmp	r0, #4
    13c4:	d109      	bne.n	13da <I2CWrite+0x2a>
			err_code = i2c_master_write_packet_job(&i2c_master_instance_4, wr_packet);
    13c6:	480a      	ldr	r0, [pc, #40]	; (13f0 <I2CWrite+0x40>)
    13c8:	4b0a      	ldr	r3, [pc, #40]	; (13f4 <I2CWrite+0x44>)
    13ca:	4798      	blx	r3
    13cc:	9001      	str	r0, [sp, #4]
}
    13ce:	e004      	b.n	13da <I2CWrite+0x2a>
	switch(instanceNo)
    13d0:	2801      	cmp	r0, #1
    13d2:	d102      	bne.n	13da <I2CWrite+0x2a>
			 i2c_master_write_packet_job(&i2c_master_instance_1, wr_packet);
    13d4:	4808      	ldr	r0, [pc, #32]	; (13f8 <I2CWrite+0x48>)
    13d6:	4b07      	ldr	r3, [pc, #28]	; (13f4 <I2CWrite+0x44>)
    13d8:	4798      	blx	r3
}
    13da:	b003      	add	sp, #12
    13dc:	bd00      	pop	{pc}
			i2c_master_write_packet_job(&i2c_master_instance_2, wr_packet);
    13de:	4807      	ldr	r0, [pc, #28]	; (13fc <I2CWrite+0x4c>)
    13e0:	4b04      	ldr	r3, [pc, #16]	; (13f4 <I2CWrite+0x44>)
    13e2:	4798      	blx	r3
			break;
    13e4:	e7f9      	b.n	13da <I2CWrite+0x2a>
			i2c_master_write_packet_job(&i2c_master_instance_3, wr_packet);
    13e6:	4806      	ldr	r0, [pc, #24]	; (1400 <I2CWrite+0x50>)
    13e8:	4b02      	ldr	r3, [pc, #8]	; (13f4 <I2CWrite+0x44>)
    13ea:	4798      	blx	r3
			break;
    13ec:	e7f5      	b.n	13da <I2CWrite+0x2a>
    13ee:	46c0      	nop			; (mov r8, r8)
    13f0:	20000ee8 	.word	0x20000ee8
    13f4:	000007cd 	.word	0x000007cd
    13f8:	20000e80 	.word	0x20000e80
    13fc:	20000e40 	.word	0x20000e40
    1400:	20000f10 	.word	0x20000f10

00001404 <initializeI2CModules>:
{
	rewrite = true;
}
*/
void initializeI2CModules()
{
    1404:	b530      	push	{r4, r5, lr}
    1406:	b08f      	sub	sp, #60	; 0x3c
	config->baud_rate        = I2C_MASTER_BAUD_RATE_400KHZ;
    1408:	ab01      	add	r3, sp, #4
    140a:	22c8      	movs	r2, #200	; 0xc8
    140c:	0052      	lsls	r2, r2, #1
    140e:	9201      	str	r2, [sp, #4]
	config->baud_rate_high_speed = I2C_MASTER_BAUD_RATE_3400KHZ;
    1410:	4a45      	ldr	r2, [pc, #276]	; (1528 <initializeI2CModules+0x124>)
    1412:	9202      	str	r2, [sp, #8]
	config->transfer_speed       = I2C_MASTER_SPEED_STANDARD_AND_FAST;
    1414:	2200      	movs	r2, #0
    1416:	9203      	str	r2, [sp, #12]
	config->generator_source = GCLK_GENERATOR_0;
    1418:	731a      	strb	r2, [r3, #12]
	config->run_in_standby   = false;
    141a:	761a      	strb	r2, [r3, #24]
	config->start_hold_time  = I2C_MASTER_START_HOLD_TIME_300NS_600NS;
    141c:	2180      	movs	r1, #128	; 0x80
    141e:	0389      	lsls	r1, r1, #14
    1420:	9105      	str	r1, [sp, #20]
	config->buffer_timeout   = 65535;
    1422:	2101      	movs	r1, #1
    1424:	4249      	negs	r1, r1
    1426:	82d9      	strh	r1, [r3, #22]
	config->unknown_bus_state_timeout = 65535;
    1428:	8299      	strh	r1, [r3, #20]
	config->scl_low_timeout  = false;
    142a:	3125      	adds	r1, #37	; 0x25
    142c:	545a      	strb	r2, [r3, r1]
	config->inactive_timeout = I2C_MASTER_INACTIVE_TIMEOUT_DISABLED;
    142e:	920b      	str	r2, [sp, #44]	; 0x2c
	config->scl_stretch_only_after_ack_bit = false;
    1430:	3108      	adds	r1, #8
    1432:	545a      	strb	r2, [r3, r1]
	config->slave_scl_low_extend_timeout   = false;
    1434:	3101      	adds	r1, #1
    1436:	545a      	strb	r2, [r3, r1]
	config->master_scl_low_extend_timeout  = false;
    1438:	3101      	adds	r1, #1
    143a:	545a      	strb	r2, [r3, r1]
	config->sda_scl_rise_time_ns = 215;
    143c:	32d7      	adds	r2, #215	; 0xd7
    143e:	861a      	strh	r2, [r3, #48]	; 0x30
	struct i2c_master_config config_i2c_master;
	i2c_master_get_config_defaults(&config_i2c_master);
	
	config_i2c_master.generator_source = GCLK_GENERATOR_0;
	//Output 1 
	config_i2c_master.pinmux_pad0    = OUTPUT1_I2C_SDA;
    1440:	4a3a      	ldr	r2, [pc, #232]	; (152c <initializeI2CModules+0x128>)
    1442:	9208      	str	r2, [sp, #32]
	config_i2c_master.pinmux_pad1    = OUTPUT1_I2C_SCL;
    1444:	4a3a      	ldr	r2, [pc, #232]	; (1530 <initializeI2CModules+0x12c>)
    1446:	9209      	str	r2, [sp, #36]	; 0x24
	while(i2c_master_init(&i2c_master_instance_1,  CONF_I2C_MASTER_MODULE_OUTPUT_1, &config_i2c_master)   != STATUS_OK);
    1448:	4d3a      	ldr	r5, [pc, #232]	; (1534 <initializeI2CModules+0x130>)
    144a:	4c3b      	ldr	r4, [pc, #236]	; (1538 <initializeI2CModules+0x134>)
    144c:	aa01      	add	r2, sp, #4
    144e:	493b      	ldr	r1, [pc, #236]	; (153c <initializeI2CModules+0x138>)
    1450:	0028      	movs	r0, r5
    1452:	47a0      	blx	r4
    1454:	2800      	cmp	r0, #0
    1456:	d1f9      	bne.n	144c <initializeI2CModules+0x48>
	i2c_master_register_callback(&i2c_master_instance_1, i2c_write_complete_callback_1,I2C_MASTER_CALLBACK_WRITE_COMPLETE);
    1458:	4d36      	ldr	r5, [pc, #216]	; (1534 <initializeI2CModules+0x130>)
    145a:	2200      	movs	r2, #0
    145c:	4938      	ldr	r1, [pc, #224]	; (1540 <initializeI2CModules+0x13c>)
    145e:	0028      	movs	r0, r5
    1460:	4c38      	ldr	r4, [pc, #224]	; (1544 <initializeI2CModules+0x140>)
    1462:	47a0      	blx	r4
	i2c_master_register_callback(&i2c_master_instance_1, i2c_read_complete_callback_1,I2C_MASTER_CALLBACK_READ_COMPLETE);
    1464:	2201      	movs	r2, #1
    1466:	4938      	ldr	r1, [pc, #224]	; (1548 <initializeI2CModules+0x144>)
    1468:	0028      	movs	r0, r5
    146a:	47a0      	blx	r4
	
	//Output 2
	config_i2c_master.pinmux_pad0    = OUTPUT2_I2C_SDA;
    146c:	4b37      	ldr	r3, [pc, #220]	; (154c <initializeI2CModules+0x148>)
    146e:	9308      	str	r3, [sp, #32]
	config_i2c_master.pinmux_pad1    = OUTPUT2_I2C_SCL;
    1470:	4b37      	ldr	r3, [pc, #220]	; (1550 <initializeI2CModules+0x14c>)
    1472:	9309      	str	r3, [sp, #36]	; 0x24
	while(i2c_master_init(&i2c_master_instance_2,  CONF_I2C_MASTER_MODULE_OUTPUT_2, &config_i2c_master)   != STATUS_OK);
    1474:	4d37      	ldr	r5, [pc, #220]	; (1554 <initializeI2CModules+0x150>)
    1476:	4c30      	ldr	r4, [pc, #192]	; (1538 <initializeI2CModules+0x134>)
    1478:	aa01      	add	r2, sp, #4
    147a:	4937      	ldr	r1, [pc, #220]	; (1558 <initializeI2CModules+0x154>)
    147c:	0028      	movs	r0, r5
    147e:	47a0      	blx	r4
    1480:	2800      	cmp	r0, #0
    1482:	d1f9      	bne.n	1478 <initializeI2CModules+0x74>
	i2c_master_register_callback(&i2c_master_instance_2, i2c_write_complete_callback_2, I2C_MASTER_CALLBACK_WRITE_COMPLETE);
    1484:	4d33      	ldr	r5, [pc, #204]	; (1554 <initializeI2CModules+0x150>)
    1486:	2200      	movs	r2, #0
    1488:	4934      	ldr	r1, [pc, #208]	; (155c <initializeI2CModules+0x158>)
    148a:	0028      	movs	r0, r5
    148c:	4c2d      	ldr	r4, [pc, #180]	; (1544 <initializeI2CModules+0x140>)
    148e:	47a0      	blx	r4
	i2c_master_register_callback(&i2c_master_instance_2, i2c_read_complete_callback_2,  I2C_MASTER_CALLBACK_READ_COMPLETE);
    1490:	2201      	movs	r2, #1
    1492:	4933      	ldr	r1, [pc, #204]	; (1560 <initializeI2CModules+0x15c>)
    1494:	0028      	movs	r0, r5
    1496:	47a0      	blx	r4
	
	//Output 3
	config_i2c_master.pinmux_pad0    = OUTPUT3_I2C_SDA;
    1498:	4b32      	ldr	r3, [pc, #200]	; (1564 <initializeI2CModules+0x160>)
    149a:	9308      	str	r3, [sp, #32]
	config_i2c_master.pinmux_pad1    = OUTPUT3_I2C_SCL;
    149c:	4b32      	ldr	r3, [pc, #200]	; (1568 <initializeI2CModules+0x164>)
    149e:	9309      	str	r3, [sp, #36]	; 0x24
	while(i2c_master_init(&i2c_master_instance_3,  CONF_I2C_MASTER_MODULE_OUTPUT_3, &config_i2c_master)   != STATUS_OK);
    14a0:	4d32      	ldr	r5, [pc, #200]	; (156c <initializeI2CModules+0x168>)
    14a2:	4c25      	ldr	r4, [pc, #148]	; (1538 <initializeI2CModules+0x134>)
    14a4:	aa01      	add	r2, sp, #4
    14a6:	4932      	ldr	r1, [pc, #200]	; (1570 <initializeI2CModules+0x16c>)
    14a8:	0028      	movs	r0, r5
    14aa:	47a0      	blx	r4
    14ac:	2800      	cmp	r0, #0
    14ae:	d1f9      	bne.n	14a4 <initializeI2CModules+0xa0>
	i2c_master_register_callback(&i2c_master_instance_3, i2c_write_complete_callback_3,I2C_MASTER_CALLBACK_WRITE_COMPLETE);
    14b0:	4d2e      	ldr	r5, [pc, #184]	; (156c <initializeI2CModules+0x168>)
    14b2:	2200      	movs	r2, #0
    14b4:	492f      	ldr	r1, [pc, #188]	; (1574 <initializeI2CModules+0x170>)
    14b6:	0028      	movs	r0, r5
    14b8:	4c22      	ldr	r4, [pc, #136]	; (1544 <initializeI2CModules+0x140>)
    14ba:	47a0      	blx	r4
	i2c_master_register_callback(&i2c_master_instance_3, i2c_read_complete_callback_3,  I2C_MASTER_CALLBACK_READ_COMPLETE);
    14bc:	2201      	movs	r2, #1
    14be:	492e      	ldr	r1, [pc, #184]	; (1578 <initializeI2CModules+0x174>)
    14c0:	0028      	movs	r0, r5
    14c2:	47a0      	blx	r4
	
	//Output 4
	config_i2c_master.pinmux_pad0    = OUTPUT4_I2C_SDA;
    14c4:	ab01      	add	r3, sp, #4
    14c6:	4a2d      	ldr	r2, [pc, #180]	; (157c <initializeI2CModules+0x178>)
    14c8:	9208      	str	r2, [sp, #32]
	config_i2c_master.pinmux_pad1    = OUTPUT4_I2C_SCL;
    14ca:	4a2d      	ldr	r2, [pc, #180]	; (1580 <initializeI2CModules+0x17c>)
    14cc:	9209      	str	r2, [sp, #36]	; 0x24
	config_i2c_master.buffer_timeout = 1000;
    14ce:	22fa      	movs	r2, #250	; 0xfa
    14d0:	0092      	lsls	r2, r2, #2
    14d2:	82da      	strh	r2, [r3, #22]
	
	while(i2c_master_init(&i2c_master_instance_4,  CONF_I2C_MASTER_MODULE_OUTPUT_4, &config_i2c_master)   != STATUS_OK);
    14d4:	4d2b      	ldr	r5, [pc, #172]	; (1584 <initializeI2CModules+0x180>)
    14d6:	4c18      	ldr	r4, [pc, #96]	; (1538 <initializeI2CModules+0x134>)
    14d8:	aa01      	add	r2, sp, #4
    14da:	492b      	ldr	r1, [pc, #172]	; (1588 <initializeI2CModules+0x184>)
    14dc:	0028      	movs	r0, r5
    14de:	47a0      	blx	r4
    14e0:	2800      	cmp	r0, #0
    14e2:	d1f9      	bne.n	14d8 <initializeI2CModules+0xd4>
	i2c_master_register_callback(&i2c_master_instance_4, i2c_write_complete_callback_4, I2C_MASTER_CALLBACK_WRITE_COMPLETE);
    14e4:	2200      	movs	r2, #0
    14e6:	4929      	ldr	r1, [pc, #164]	; (158c <initializeI2CModules+0x188>)
    14e8:	4826      	ldr	r0, [pc, #152]	; (1584 <initializeI2CModules+0x180>)
    14ea:	4b16      	ldr	r3, [pc, #88]	; (1544 <initializeI2CModules+0x140>)
    14ec:	4798      	blx	r3
	
	//Sensors
	config_i2c_master.pinmux_pad0    = SENSORS_I2C_SDA	;
    14ee:	ab01      	add	r3, sp, #4
    14f0:	4a27      	ldr	r2, [pc, #156]	; (1590 <initializeI2CModules+0x18c>)
    14f2:	9208      	str	r2, [sp, #32]
	config_i2c_master.pinmux_pad1    = SENSORS_I2C_SCL	;
    14f4:	4a27      	ldr	r2, [pc, #156]	; (1594 <initializeI2CModules+0x190>)
    14f6:	9209      	str	r2, [sp, #36]	; 0x24
	config_i2c_master.buffer_timeout = 1000;
    14f8:	22fa      	movs	r2, #250	; 0xfa
    14fa:	0092      	lsls	r2, r2, #2
    14fc:	82da      	strh	r2, [r3, #22]
	while(i2c_master_init(&i2c_master_instance_sensors,  CONF_I2C_MASTER_MODULE_SENSORS, &config_i2c_master)   != STATUS_OK);
    14fe:	4d26      	ldr	r5, [pc, #152]	; (1598 <initializeI2CModules+0x194>)
    1500:	4c0d      	ldr	r4, [pc, #52]	; (1538 <initializeI2CModules+0x134>)
    1502:	aa01      	add	r2, sp, #4
    1504:	4925      	ldr	r1, [pc, #148]	; (159c <initializeI2CModules+0x198>)
    1506:	0028      	movs	r0, r5
    1508:	47a0      	blx	r4
    150a:	2800      	cmp	r0, #0
    150c:	d1f9      	bne.n	1502 <initializeI2CModules+0xfe>
	i2c_master_register_callback(&i2c_master_instance_sensors, i2c_write_complete_callback_sensors,I2C_MASTER_CALLBACK_WRITE_COMPLETE);
    150e:	4d22      	ldr	r5, [pc, #136]	; (1598 <initializeI2CModules+0x194>)
    1510:	2200      	movs	r2, #0
    1512:	4923      	ldr	r1, [pc, #140]	; (15a0 <initializeI2CModules+0x19c>)
    1514:	0028      	movs	r0, r5
    1516:	4c0b      	ldr	r4, [pc, #44]	; (1544 <initializeI2CModules+0x140>)
    1518:	47a0      	blx	r4
	i2c_master_register_callback(&i2c_master_instance_sensors, i2c_read_complete_callback_sensors,I2C_MASTER_CALLBACK_READ_COMPLETE);
    151a:	2201      	movs	r2, #1
    151c:	4921      	ldr	r1, [pc, #132]	; (15a4 <initializeI2CModules+0x1a0>)
    151e:	0028      	movs	r0, r5
    1520:	47a0      	blx	r4
			//	break;
			//}
		//}
	
	
}
    1522:	b00f      	add	sp, #60	; 0x3c
    1524:	bd30      	pop	{r4, r5, pc}
    1526:	46c0      	nop			; (mov r8, r8)
    1528:	00000d48 	.word	0x00000d48
    152c:	00080002 	.word	0x00080002
    1530:	00090002 	.word	0x00090002
    1534:	20000e80 	.word	0x20000e80
    1538:	00000145 	.word	0x00000145
    153c:	42000800 	.word	0x42000800
    1540:	00001099 	.word	0x00001099
    1544:	000007b5 	.word	0x000007b5
    1548:	00001071 	.word	0x00001071
    154c:	000c0002 	.word	0x000c0002
    1550:	000d0002 	.word	0x000d0002
    1554:	20000e40 	.word	0x20000e40
    1558:	42001000 	.word	0x42001000
    155c:	000010a5 	.word	0x000010a5
    1560:	0000107d 	.word	0x0000107d
    1564:	00100002 	.word	0x00100002
    1568:	00110002 	.word	0x00110002
    156c:	20000f10 	.word	0x20000f10
    1570:	42000c00 	.word	0x42000c00
    1574:	000010b1 	.word	0x000010b1
    1578:	00001089 	.word	0x00001089
    157c:	00160002 	.word	0x00160002
    1580:	00170002 	.word	0x00170002
    1584:	20000ee8 	.word	0x20000ee8
    1588:	42001400 	.word	0x42001400
    158c:	000010bd 	.word	0x000010bd
    1590:	00220003 	.word	0x00220003
    1594:	00230003 	.word	0x00230003
    1598:	20000ec0 	.word	0x20000ec0
    159c:	42001c00 	.word	0x42001c00
    15a0:	000010c9 	.word	0x000010c9
    15a4:	00001095 	.word	0x00001095

000015a8 <enableI2CModule>:

void enableI2CModule(uint8_t port)
{
    15a8:	b570      	push	{r4, r5, r6, lr}
	switch(port)
    15aa:	2805      	cmp	r0, #5
    15ac:	d829      	bhi.n	1602 <enableI2CModule+0x5a>
    15ae:	0080      	lsls	r0, r0, #2
    15b0:	4b5e      	ldr	r3, [pc, #376]	; (172c <enableI2CModule+0x184>)
    15b2:	581b      	ldr	r3, [r3, r0]
    15b4:	469f      	mov	pc, r3
	SercomI2cm *const i2c_module = &(module->hw->I2CM);
    15b6:	4d5e      	ldr	r5, [pc, #376]	; (1730 <enableI2CModule+0x188>)
    15b8:	682c      	ldr	r4, [r5, #0]
	_i2c_master_wait_for_sync(module);
    15ba:	0028      	movs	r0, r5
    15bc:	4b5d      	ldr	r3, [pc, #372]	; (1734 <enableI2CModule+0x18c>)
    15be:	4798      	blx	r3
	i2c_module->CTRLA.reg |= SERCOM_I2CM_CTRLA_ENABLE;
    15c0:	6823      	ldr	r3, [r4, #0]
    15c2:	2202      	movs	r2, #2
    15c4:	4313      	orrs	r3, r2
    15c6:	6023      	str	r3, [r4, #0]
	system_interrupt_enable(_sercom_get_interrupt_vector(module->hw));
    15c8:	6828      	ldr	r0, [r5, #0]
    15ca:	4b5b      	ldr	r3, [pc, #364]	; (1738 <enableI2CModule+0x190>)
    15cc:	4798      	blx	r3
    15ce:	231f      	movs	r3, #31
    15d0:	4018      	ands	r0, r3
    15d2:	3b1e      	subs	r3, #30
    15d4:	4083      	lsls	r3, r0
    15d6:	4a59      	ldr	r2, [pc, #356]	; (173c <enableI2CModule+0x194>)
    15d8:	6013      	str	r3, [r2, #0]
		if(timeout_counter >= (module->unknown_bus_state_timeout)) {
    15da:	88e8      	ldrh	r0, [r5, #6]
	uint32_t timeout_counter = 0;
    15dc:	2300      	movs	r3, #0
	while (!(i2c_module->STATUS.reg & SERCOM_I2CM_STATUS_BUSSTATE(1))) {
    15de:	2110      	movs	r1, #16
    15e0:	8b62      	ldrh	r2, [r4, #26]
    15e2:	420a      	tst	r2, r1
    15e4:	d104      	bne.n	15f0 <enableI2CModule+0x48>
		timeout_counter++;
    15e6:	3301      	adds	r3, #1
		if(timeout_counter >= (module->unknown_bus_state_timeout)) {
    15e8:	4283      	cmp	r3, r0
    15ea:	d3f9      	bcc.n	15e0 <enableI2CModule+0x38>
			i2c_module->STATUS.reg = SERCOM_I2CM_STATUS_BUSSTATE(1);
    15ec:	2310      	movs	r3, #16
    15ee:	8363      	strh	r3, [r4, #26]
	/* Sanity check */
	Assert(module);
	Assert(module->hw);

	/* Mark callback as enabled */
	module->enabled_callback |= (1 << callback_type);
    15f0:	4b4f      	ldr	r3, [pc, #316]	; (1730 <enableI2CModule+0x188>)
    15f2:	7e5a      	ldrb	r2, [r3, #25]
    15f4:	2101      	movs	r1, #1
    15f6:	430a      	orrs	r2, r1
    15f8:	765a      	strb	r2, [r3, #25]
    15fa:	7e5a      	ldrb	r2, [r3, #25]
    15fc:	3101      	adds	r1, #1
    15fe:	430a      	orrs	r2, r1
    1600:	765a      	strb	r2, [r3, #25]
			
		default:
			break;
	}
	
}
    1602:	bd70      	pop	{r4, r5, r6, pc}
	SercomI2cm *const i2c_module = &(module->hw->I2CM);
    1604:	4d4e      	ldr	r5, [pc, #312]	; (1740 <enableI2CModule+0x198>)
    1606:	682c      	ldr	r4, [r5, #0]
	_i2c_master_wait_for_sync(module);
    1608:	0028      	movs	r0, r5
    160a:	4b4a      	ldr	r3, [pc, #296]	; (1734 <enableI2CModule+0x18c>)
    160c:	4798      	blx	r3
	i2c_module->CTRLA.reg |= SERCOM_I2CM_CTRLA_ENABLE;
    160e:	6823      	ldr	r3, [r4, #0]
    1610:	2202      	movs	r2, #2
    1612:	4313      	orrs	r3, r2
    1614:	6023      	str	r3, [r4, #0]
	system_interrupt_enable(_sercom_get_interrupt_vector(module->hw));
    1616:	6828      	ldr	r0, [r5, #0]
    1618:	4b47      	ldr	r3, [pc, #284]	; (1738 <enableI2CModule+0x190>)
    161a:	4798      	blx	r3
    161c:	231f      	movs	r3, #31
    161e:	4018      	ands	r0, r3
    1620:	3b1e      	subs	r3, #30
    1622:	4083      	lsls	r3, r0
    1624:	4a45      	ldr	r2, [pc, #276]	; (173c <enableI2CModule+0x194>)
    1626:	6013      	str	r3, [r2, #0]
		if(timeout_counter >= (module->unknown_bus_state_timeout)) {
    1628:	88e8      	ldrh	r0, [r5, #6]
	uint32_t timeout_counter = 0;
    162a:	2300      	movs	r3, #0
	while (!(i2c_module->STATUS.reg & SERCOM_I2CM_STATUS_BUSSTATE(1))) {
    162c:	2110      	movs	r1, #16
    162e:	8b62      	ldrh	r2, [r4, #26]
    1630:	420a      	tst	r2, r1
    1632:	d104      	bne.n	163e <enableI2CModule+0x96>
		timeout_counter++;
    1634:	3301      	adds	r3, #1
		if(timeout_counter >= (module->unknown_bus_state_timeout)) {
    1636:	4283      	cmp	r3, r0
    1638:	d3f9      	bcc.n	162e <enableI2CModule+0x86>
			i2c_module->STATUS.reg = SERCOM_I2CM_STATUS_BUSSTATE(1);
    163a:	2310      	movs	r3, #16
    163c:	8363      	strh	r3, [r4, #26]
    163e:	4b40      	ldr	r3, [pc, #256]	; (1740 <enableI2CModule+0x198>)
    1640:	7e5a      	ldrb	r2, [r3, #25]
    1642:	2101      	movs	r1, #1
    1644:	430a      	orrs	r2, r1
    1646:	765a      	strb	r2, [r3, #25]
    1648:	7e5a      	ldrb	r2, [r3, #25]
    164a:	3101      	adds	r1, #1
    164c:	430a      	orrs	r2, r1
    164e:	765a      	strb	r2, [r3, #25]
    1650:	e7d7      	b.n	1602 <enableI2CModule+0x5a>
	SercomI2cm *const i2c_module = &(module->hw->I2CM);
    1652:	4d3c      	ldr	r5, [pc, #240]	; (1744 <enableI2CModule+0x19c>)
    1654:	682c      	ldr	r4, [r5, #0]
	_i2c_master_wait_for_sync(module);
    1656:	0028      	movs	r0, r5
    1658:	4b36      	ldr	r3, [pc, #216]	; (1734 <enableI2CModule+0x18c>)
    165a:	4798      	blx	r3
	i2c_module->CTRLA.reg |= SERCOM_I2CM_CTRLA_ENABLE;
    165c:	6823      	ldr	r3, [r4, #0]
    165e:	2202      	movs	r2, #2
    1660:	4313      	orrs	r3, r2
    1662:	6023      	str	r3, [r4, #0]
	system_interrupt_enable(_sercom_get_interrupt_vector(module->hw));
    1664:	6828      	ldr	r0, [r5, #0]
    1666:	4b34      	ldr	r3, [pc, #208]	; (1738 <enableI2CModule+0x190>)
    1668:	4798      	blx	r3
    166a:	231f      	movs	r3, #31
    166c:	4018      	ands	r0, r3
    166e:	3b1e      	subs	r3, #30
    1670:	4083      	lsls	r3, r0
    1672:	4a32      	ldr	r2, [pc, #200]	; (173c <enableI2CModule+0x194>)
    1674:	6013      	str	r3, [r2, #0]
		if(timeout_counter >= (module->unknown_bus_state_timeout)) {
    1676:	88e8      	ldrh	r0, [r5, #6]
	uint32_t timeout_counter = 0;
    1678:	2300      	movs	r3, #0
	while (!(i2c_module->STATUS.reg & SERCOM_I2CM_STATUS_BUSSTATE(1))) {
    167a:	2110      	movs	r1, #16
    167c:	8b62      	ldrh	r2, [r4, #26]
    167e:	420a      	tst	r2, r1
    1680:	d104      	bne.n	168c <enableI2CModule+0xe4>
		timeout_counter++;
    1682:	3301      	adds	r3, #1
		if(timeout_counter >= (module->unknown_bus_state_timeout)) {
    1684:	4283      	cmp	r3, r0
    1686:	d3f9      	bcc.n	167c <enableI2CModule+0xd4>
			i2c_module->STATUS.reg = SERCOM_I2CM_STATUS_BUSSTATE(1);
    1688:	2310      	movs	r3, #16
    168a:	8363      	strh	r3, [r4, #26]
    168c:	4b2d      	ldr	r3, [pc, #180]	; (1744 <enableI2CModule+0x19c>)
    168e:	7e5a      	ldrb	r2, [r3, #25]
    1690:	2101      	movs	r1, #1
    1692:	430a      	orrs	r2, r1
    1694:	765a      	strb	r2, [r3, #25]
    1696:	7e5a      	ldrb	r2, [r3, #25]
    1698:	3101      	adds	r1, #1
    169a:	430a      	orrs	r2, r1
    169c:	765a      	strb	r2, [r3, #25]
    169e:	e7b0      	b.n	1602 <enableI2CModule+0x5a>
	SercomI2cm *const i2c_module = &(module->hw->I2CM);
    16a0:	4d29      	ldr	r5, [pc, #164]	; (1748 <enableI2CModule+0x1a0>)
    16a2:	682c      	ldr	r4, [r5, #0]
	_i2c_master_wait_for_sync(module);
    16a4:	0028      	movs	r0, r5
    16a6:	4b23      	ldr	r3, [pc, #140]	; (1734 <enableI2CModule+0x18c>)
    16a8:	4798      	blx	r3
	i2c_module->CTRLA.reg |= SERCOM_I2CM_CTRLA_ENABLE;
    16aa:	6823      	ldr	r3, [r4, #0]
    16ac:	2202      	movs	r2, #2
    16ae:	4313      	orrs	r3, r2
    16b0:	6023      	str	r3, [r4, #0]
	system_interrupt_enable(_sercom_get_interrupt_vector(module->hw));
    16b2:	6828      	ldr	r0, [r5, #0]
    16b4:	4b20      	ldr	r3, [pc, #128]	; (1738 <enableI2CModule+0x190>)
    16b6:	4798      	blx	r3
    16b8:	231f      	movs	r3, #31
    16ba:	4018      	ands	r0, r3
    16bc:	3b1e      	subs	r3, #30
    16be:	4083      	lsls	r3, r0
    16c0:	4a1e      	ldr	r2, [pc, #120]	; (173c <enableI2CModule+0x194>)
    16c2:	6013      	str	r3, [r2, #0]
		if(timeout_counter >= (module->unknown_bus_state_timeout)) {
    16c4:	88e8      	ldrh	r0, [r5, #6]
	uint32_t timeout_counter = 0;
    16c6:	2300      	movs	r3, #0
	while (!(i2c_module->STATUS.reg & SERCOM_I2CM_STATUS_BUSSTATE(1))) {
    16c8:	2110      	movs	r1, #16
    16ca:	8b62      	ldrh	r2, [r4, #26]
    16cc:	420a      	tst	r2, r1
    16ce:	d104      	bne.n	16da <enableI2CModule+0x132>
		timeout_counter++;
    16d0:	3301      	adds	r3, #1
		if(timeout_counter >= (module->unknown_bus_state_timeout)) {
    16d2:	4283      	cmp	r3, r0
    16d4:	d3f9      	bcc.n	16ca <enableI2CModule+0x122>
			i2c_module->STATUS.reg = SERCOM_I2CM_STATUS_BUSSTATE(1);
    16d6:	2310      	movs	r3, #16
    16d8:	8363      	strh	r3, [r4, #26]
    16da:	4a1b      	ldr	r2, [pc, #108]	; (1748 <enableI2CModule+0x1a0>)
    16dc:	7e53      	ldrb	r3, [r2, #25]
    16de:	2101      	movs	r1, #1
    16e0:	430b      	orrs	r3, r1
    16e2:	7653      	strb	r3, [r2, #25]
    16e4:	e78d      	b.n	1602 <enableI2CModule+0x5a>
	SercomI2cm *const i2c_module = &(module->hw->I2CM);
    16e6:	4d19      	ldr	r5, [pc, #100]	; (174c <enableI2CModule+0x1a4>)
    16e8:	682c      	ldr	r4, [r5, #0]
	_i2c_master_wait_for_sync(module);
    16ea:	0028      	movs	r0, r5
    16ec:	4b11      	ldr	r3, [pc, #68]	; (1734 <enableI2CModule+0x18c>)
    16ee:	4798      	blx	r3
	i2c_module->CTRLA.reg |= SERCOM_I2CM_CTRLA_ENABLE;
    16f0:	6823      	ldr	r3, [r4, #0]
    16f2:	2202      	movs	r2, #2
    16f4:	4313      	orrs	r3, r2
    16f6:	6023      	str	r3, [r4, #0]
	system_interrupt_enable(_sercom_get_interrupt_vector(module->hw));
    16f8:	6828      	ldr	r0, [r5, #0]
    16fa:	4b0f      	ldr	r3, [pc, #60]	; (1738 <enableI2CModule+0x190>)
    16fc:	4798      	blx	r3
    16fe:	231f      	movs	r3, #31
    1700:	4018      	ands	r0, r3
    1702:	3b1e      	subs	r3, #30
    1704:	4083      	lsls	r3, r0
    1706:	4a0d      	ldr	r2, [pc, #52]	; (173c <enableI2CModule+0x194>)
    1708:	6013      	str	r3, [r2, #0]
		if(timeout_counter >= (module->unknown_bus_state_timeout)) {
    170a:	88e8      	ldrh	r0, [r5, #6]
	uint32_t timeout_counter = 0;
    170c:	2300      	movs	r3, #0
	while (!(i2c_module->STATUS.reg & SERCOM_I2CM_STATUS_BUSSTATE(1))) {
    170e:	2110      	movs	r1, #16
    1710:	8b62      	ldrh	r2, [r4, #26]
    1712:	420a      	tst	r2, r1
    1714:	d104      	bne.n	1720 <enableI2CModule+0x178>
		timeout_counter++;
    1716:	3301      	adds	r3, #1
		if(timeout_counter >= (module->unknown_bus_state_timeout)) {
    1718:	4283      	cmp	r3, r0
    171a:	d3f9      	bcc.n	1710 <enableI2CModule+0x168>
			i2c_module->STATUS.reg = SERCOM_I2CM_STATUS_BUSSTATE(1);
    171c:	2310      	movs	r3, #16
    171e:	8363      	strh	r3, [r4, #26]
    1720:	4a0a      	ldr	r2, [pc, #40]	; (174c <enableI2CModule+0x1a4>)
    1722:	7e53      	ldrb	r3, [r2, #25]
    1724:	2101      	movs	r1, #1
    1726:	430b      	orrs	r3, r1
    1728:	7653      	strb	r3, [r2, #25]
    172a:	e76a      	b.n	1602 <enableI2CModule+0x5a>
    172c:	000058e4 	.word	0x000058e4
    1730:	20000e80 	.word	0x20000e80
    1734:	00001065 	.word	0x00001065
    1738:	00002549 	.word	0x00002549
    173c:	e000e100 	.word	0xe000e100
    1740:	20000e40 	.word	0x20000e40
    1744:	20000f10 	.word	0x20000f10
    1748:	20000ee8 	.word	0x20000ee8
    174c:	20000ec0 	.word	0x20000ec0

00001750 <disableI2CModule>:

void disableI2CModule(uint8_t port)
{
    1750:	b570      	push	{r4, r5, r6, lr}

	switch(port)
    1752:	2805      	cmp	r0, #5
    1754:	d81d      	bhi.n	1792 <disableI2CModule+0x42>
    1756:	0080      	lsls	r0, r0, #2
    1758:	4b44      	ldr	r3, [pc, #272]	; (186c <disableI2CModule+0x11c>)
    175a:	581b      	ldr	r3, [r3, r0]
    175c:	469f      	mov	pc, r3
	SercomI2cm *const i2c_module = &(module->hw->I2CM);
    175e:	4d44      	ldr	r5, [pc, #272]	; (1870 <disableI2CModule+0x120>)
    1760:	682c      	ldr	r4, [r5, #0]
		system_interrupt_disable(_sercom_get_interrupt_vector(module->hw));
    1762:	0020      	movs	r0, r4
    1764:	4b43      	ldr	r3, [pc, #268]	; (1874 <disableI2CModule+0x124>)
    1766:	4798      	blx	r3
	NVIC->ICER[0] = (uint32_t)(1 << ((uint32_t)vector & 0x0000001f));
    1768:	231f      	movs	r3, #31
    176a:	4018      	ands	r0, r3
    176c:	2601      	movs	r6, #1
    176e:	0031      	movs	r1, r6
    1770:	4081      	lsls	r1, r0
    1772:	3361      	adds	r3, #97	; 0x61
    1774:	4a40      	ldr	r2, [pc, #256]	; (1878 <disableI2CModule+0x128>)
    1776:	50d1      	str	r1, [r2, r3]
	_i2c_master_wait_for_sync(module);
    1778:	0028      	movs	r0, r5
    177a:	4b40      	ldr	r3, [pc, #256]	; (187c <disableI2CModule+0x12c>)
    177c:	4798      	blx	r3
	i2c_module->INTENCLR.reg = SERCOM_I2CM_INTENCLR_MASK;
    177e:	2383      	movs	r3, #131	; 0x83
    1780:	7523      	strb	r3, [r4, #20]
	i2c_module->INTFLAG.reg = SERCOM_I2CM_INTFLAG_MASK;
    1782:	7623      	strb	r3, [r4, #24]
	i2c_module->CTRLA.reg &= ~SERCOM_I2CM_CTRLA_ENABLE;
    1784:	6823      	ldr	r3, [r4, #0]
    1786:	2202      	movs	r2, #2
    1788:	4393      	bics	r3, r2
    178a:	6023      	str	r3, [r4, #0]
	/* Sanity check */
	Assert(module);
	Assert(module->hw);

	/* Mark callback as disabled */
	module->enabled_callback &= ~(1 << callback_type);
    178c:	7e6b      	ldrb	r3, [r5, #25]
    178e:	43b3      	bics	r3, r6
    1790:	766b      	strb	r3, [r5, #25]
		
		default:
			break;
	}
	
}
    1792:	bd70      	pop	{r4, r5, r6, pc}
	SercomI2cm *const i2c_module = &(module->hw->I2CM);
    1794:	4d3a      	ldr	r5, [pc, #232]	; (1880 <disableI2CModule+0x130>)
    1796:	682c      	ldr	r4, [r5, #0]
		system_interrupt_disable(_sercom_get_interrupt_vector(module->hw));
    1798:	0020      	movs	r0, r4
    179a:	4b36      	ldr	r3, [pc, #216]	; (1874 <disableI2CModule+0x124>)
    179c:	4798      	blx	r3
    179e:	231f      	movs	r3, #31
    17a0:	4018      	ands	r0, r3
    17a2:	2601      	movs	r6, #1
    17a4:	0031      	movs	r1, r6
    17a6:	4081      	lsls	r1, r0
    17a8:	3361      	adds	r3, #97	; 0x61
    17aa:	4a33      	ldr	r2, [pc, #204]	; (1878 <disableI2CModule+0x128>)
    17ac:	50d1      	str	r1, [r2, r3]
	_i2c_master_wait_for_sync(module);
    17ae:	0028      	movs	r0, r5
    17b0:	4b32      	ldr	r3, [pc, #200]	; (187c <disableI2CModule+0x12c>)
    17b2:	4798      	blx	r3
	i2c_module->INTENCLR.reg = SERCOM_I2CM_INTENCLR_MASK;
    17b4:	2383      	movs	r3, #131	; 0x83
    17b6:	7523      	strb	r3, [r4, #20]
	i2c_module->INTFLAG.reg = SERCOM_I2CM_INTFLAG_MASK;
    17b8:	7623      	strb	r3, [r4, #24]
	i2c_module->CTRLA.reg &= ~SERCOM_I2CM_CTRLA_ENABLE;
    17ba:	6823      	ldr	r3, [r4, #0]
    17bc:	2202      	movs	r2, #2
    17be:	4393      	bics	r3, r2
    17c0:	6023      	str	r3, [r4, #0]
    17c2:	7e6b      	ldrb	r3, [r5, #25]
    17c4:	43b3      	bics	r3, r6
    17c6:	766b      	strb	r3, [r5, #25]
    17c8:	e7e3      	b.n	1792 <disableI2CModule+0x42>
	SercomI2cm *const i2c_module = &(module->hw->I2CM);
    17ca:	4d2e      	ldr	r5, [pc, #184]	; (1884 <disableI2CModule+0x134>)
    17cc:	682c      	ldr	r4, [r5, #0]
		system_interrupt_disable(_sercom_get_interrupt_vector(module->hw));
    17ce:	0020      	movs	r0, r4
    17d0:	4b28      	ldr	r3, [pc, #160]	; (1874 <disableI2CModule+0x124>)
    17d2:	4798      	blx	r3
    17d4:	231f      	movs	r3, #31
    17d6:	4018      	ands	r0, r3
    17d8:	2601      	movs	r6, #1
    17da:	0031      	movs	r1, r6
    17dc:	4081      	lsls	r1, r0
    17de:	3361      	adds	r3, #97	; 0x61
    17e0:	4a25      	ldr	r2, [pc, #148]	; (1878 <disableI2CModule+0x128>)
    17e2:	50d1      	str	r1, [r2, r3]
	_i2c_master_wait_for_sync(module);
    17e4:	0028      	movs	r0, r5
    17e6:	4b25      	ldr	r3, [pc, #148]	; (187c <disableI2CModule+0x12c>)
    17e8:	4798      	blx	r3
	i2c_module->INTENCLR.reg = SERCOM_I2CM_INTENCLR_MASK;
    17ea:	2383      	movs	r3, #131	; 0x83
    17ec:	7523      	strb	r3, [r4, #20]
	i2c_module->INTFLAG.reg = SERCOM_I2CM_INTFLAG_MASK;
    17ee:	7623      	strb	r3, [r4, #24]
	i2c_module->CTRLA.reg &= ~SERCOM_I2CM_CTRLA_ENABLE;
    17f0:	6823      	ldr	r3, [r4, #0]
    17f2:	2202      	movs	r2, #2
    17f4:	4393      	bics	r3, r2
    17f6:	6023      	str	r3, [r4, #0]
    17f8:	7e6b      	ldrb	r3, [r5, #25]
    17fa:	43b3      	bics	r3, r6
    17fc:	766b      	strb	r3, [r5, #25]
    17fe:	e7c8      	b.n	1792 <disableI2CModule+0x42>
	SercomI2cm *const i2c_module = &(module->hw->I2CM);
    1800:	4d21      	ldr	r5, [pc, #132]	; (1888 <disableI2CModule+0x138>)
    1802:	682c      	ldr	r4, [r5, #0]
		system_interrupt_disable(_sercom_get_interrupt_vector(module->hw));
    1804:	0020      	movs	r0, r4
    1806:	4b1b      	ldr	r3, [pc, #108]	; (1874 <disableI2CModule+0x124>)
    1808:	4798      	blx	r3
    180a:	231f      	movs	r3, #31
    180c:	4018      	ands	r0, r3
    180e:	2601      	movs	r6, #1
    1810:	0031      	movs	r1, r6
    1812:	4081      	lsls	r1, r0
    1814:	3361      	adds	r3, #97	; 0x61
    1816:	4a18      	ldr	r2, [pc, #96]	; (1878 <disableI2CModule+0x128>)
    1818:	50d1      	str	r1, [r2, r3]
	_i2c_master_wait_for_sync(module);
    181a:	0028      	movs	r0, r5
    181c:	4b17      	ldr	r3, [pc, #92]	; (187c <disableI2CModule+0x12c>)
    181e:	4798      	blx	r3
	i2c_module->INTENCLR.reg = SERCOM_I2CM_INTENCLR_MASK;
    1820:	2383      	movs	r3, #131	; 0x83
    1822:	7523      	strb	r3, [r4, #20]
	i2c_module->INTFLAG.reg = SERCOM_I2CM_INTFLAG_MASK;
    1824:	7623      	strb	r3, [r4, #24]
	i2c_module->CTRLA.reg &= ~SERCOM_I2CM_CTRLA_ENABLE;
    1826:	6823      	ldr	r3, [r4, #0]
    1828:	2202      	movs	r2, #2
    182a:	4393      	bics	r3, r2
    182c:	6023      	str	r3, [r4, #0]
    182e:	7e6b      	ldrb	r3, [r5, #25]
    1830:	43b3      	bics	r3, r6
    1832:	766b      	strb	r3, [r5, #25]
    1834:	e7ad      	b.n	1792 <disableI2CModule+0x42>
	SercomI2cm *const i2c_module = &(module->hw->I2CM);
    1836:	4d15      	ldr	r5, [pc, #84]	; (188c <disableI2CModule+0x13c>)
    1838:	682c      	ldr	r4, [r5, #0]
		system_interrupt_disable(_sercom_get_interrupt_vector(module->hw));
    183a:	0020      	movs	r0, r4
    183c:	4b0d      	ldr	r3, [pc, #52]	; (1874 <disableI2CModule+0x124>)
    183e:	4798      	blx	r3
    1840:	231f      	movs	r3, #31
    1842:	4018      	ands	r0, r3
    1844:	2601      	movs	r6, #1
    1846:	0031      	movs	r1, r6
    1848:	4081      	lsls	r1, r0
    184a:	3361      	adds	r3, #97	; 0x61
    184c:	4a0a      	ldr	r2, [pc, #40]	; (1878 <disableI2CModule+0x128>)
    184e:	50d1      	str	r1, [r2, r3]
	_i2c_master_wait_for_sync(module);
    1850:	0028      	movs	r0, r5
    1852:	4b0a      	ldr	r3, [pc, #40]	; (187c <disableI2CModule+0x12c>)
    1854:	4798      	blx	r3
	i2c_module->INTENCLR.reg = SERCOM_I2CM_INTENCLR_MASK;
    1856:	2383      	movs	r3, #131	; 0x83
    1858:	7523      	strb	r3, [r4, #20]
	i2c_module->INTFLAG.reg = SERCOM_I2CM_INTFLAG_MASK;
    185a:	7623      	strb	r3, [r4, #24]
	i2c_module->CTRLA.reg &= ~SERCOM_I2CM_CTRLA_ENABLE;
    185c:	6823      	ldr	r3, [r4, #0]
    185e:	2202      	movs	r2, #2
    1860:	4393      	bics	r3, r2
    1862:	6023      	str	r3, [r4, #0]
    1864:	7e6b      	ldrb	r3, [r5, #25]
    1866:	43b3      	bics	r3, r6
    1868:	766b      	strb	r3, [r5, #25]
    186a:	e792      	b.n	1792 <disableI2CModule+0x42>
    186c:	000058fc 	.word	0x000058fc
    1870:	20000e80 	.word	0x20000e80
    1874:	00002549 	.word	0x00002549
    1878:	e000e100 	.word	0xe000e100
    187c:	00001065 	.word	0x00001065
    1880:	20000e40 	.word	0x20000e40
    1884:	20000f10 	.word	0x20000f10
    1888:	20000ee8 	.word	0x20000ee8
    188c:	20000ec0 	.word	0x20000ec0

00001890 <checkSendInputs>:
extern volatile struct inputPorts  inputPort[4];



void checkSendInputs()
{
    1890:	b5f0      	push	{r4, r5, r6, r7, lr}
    1892:	46ce      	mov	lr, r9
    1894:	4647      	mov	r7, r8
    1896:	b580      	push	{r7, lr}
    1898:	b085      	sub	sp, #20
	uint8_t i =0;
	uint8_t temp =0;
	static uint8_t rd_buffer[20] ;
	
	if(readySendI2CReadInput == true)
    189a:	4b25      	ldr	r3, [pc, #148]	; (1930 <checkSendInputs+0xa0>)
    189c:	781b      	ldrb	r3, [r3, #0]
    189e:	2b00      	cmp	r3, #0
    18a0:	d041      	beq.n	1926 <checkSendInputs+0x96>
	{
		readySendI2CReadInput = false;
    18a2:	2200      	movs	r2, #0
    18a4:	4b22      	ldr	r3, [pc, #136]	; (1930 <checkSendInputs+0xa0>)
    18a6:	701a      	strb	r2, [r3, #0]
    18a8:	4d22      	ldr	r5, [pc, #136]	; (1934 <checkSendInputs+0xa4>)
    18aa:	2400      	movs	r4, #0
		for(i=0;i<NO_SENSORS;i++)
		{
			if(inputPort[i].currentState != NOTHINGCONNECTED)
    18ac:	4e22      	ldr	r6, [pc, #136]	; (1938 <checkSendInputs+0xa8>)
    18ae:	e003      	b.n	18b8 <checkSendInputs+0x28>
    18b0:	3401      	adds	r4, #1
    18b2:	3505      	adds	r5, #5
		for(i=0;i<NO_SENSORS;i++)
    18b4:	2c03      	cmp	r4, #3
    18b6:	d036      	beq.n	1926 <checkSendInputs+0x96>
			if(inputPort[i].currentState != NOTHINGCONNECTED)
    18b8:	00e3      	lsls	r3, r4, #3
    18ba:	18f3      	adds	r3, r6, r3
    18bc:	785b      	ldrb	r3, [r3, #1]
    18be:	2b00      	cmp	r3, #0
    18c0:	d0f6      	beq.n	18b0 <checkSendInputs+0x20>
			{
				switch(inputPort[i].currentState)
    18c2:	00e3      	lsls	r3, r4, #3
    18c4:	491c      	ldr	r1, [pc, #112]	; (1938 <checkSendInputs+0xa8>)
    18c6:	468c      	mov	ip, r1
    18c8:	4463      	add	r3, ip
    18ca:	785b      	ldrb	r3, [r3, #1]
    18cc:	2b1b      	cmp	r3, #27
    18ce:	d1ef      	bne.n	18b0 <checkSendInputs+0x20>
    18d0:	1c63      	adds	r3, r4, #1
    18d2:	b2db      	uxtb	r3, r3
    18d4:	4698      	mov	r8, r3
				{
					case INPUT_PLACEVALUE:
					
						sensorOutputs[4 + i*5]		=	 i + 1;
    18d6:	712b      	strb	r3, [r5, #4]
						struct i2c_master_packet rd_packet = {
							.address		 = inputPort[i].address,
    18d8:	00e2      	lsls	r2, r4, #3
    18da:	5c53      	ldrb	r3, [r2, r1]
						struct i2c_master_packet rd_packet = {
    18dc:	af01      	add	r7, sp, #4
    18de:	803b      	strh	r3, [r7, #0]
							.data_length	 = inputPort[i].readDataLength,
    18e0:	4462      	add	r2, ip
    18e2:	78d3      	ldrb	r3, [r2, #3]
						struct i2c_master_packet rd_packet = {
    18e4:	807b      	strh	r3, [r7, #2]
    18e6:	4b15      	ldr	r3, [pc, #84]	; (193c <checkSendInputs+0xac>)
    18e8:	4699      	mov	r9, r3
    18ea:	9302      	str	r3, [sp, #8]
    18ec:	2300      	movs	r3, #0
    18ee:	723b      	strb	r3, [r7, #8]
    18f0:	727b      	strb	r3, [r7, #9]
    18f2:	72bb      	strb	r3, [r7, #10]
							.data			 = rd_buffer,
							.ten_bit_address = false,
							.high_speed      = false,
							.hs_master_code  = 0x0,
						};
					    selectLineLow(i+1);
    18f4:	4640      	mov	r0, r8
    18f6:	4b12      	ldr	r3, [pc, #72]	; (1940 <checkSendInputs+0xb0>)
    18f8:	4798      	blx	r3
						I2CRead(SENSORS , &rd_packet);
    18fa:	0039      	movs	r1, r7
    18fc:	2005      	movs	r0, #5
    18fe:	4b11      	ldr	r3, [pc, #68]	; (1944 <checkSendInputs+0xb4>)
    1900:	4798      	blx	r3
						selectLineDisable(i+1);
    1902:	4640      	mov	r0, r8
    1904:	4b10      	ldr	r3, [pc, #64]	; (1948 <checkSendInputs+0xb8>)
    1906:	4798      	blx	r3
						sensorOutputs[4 + i*5]		=	 i + 1;
    1908:	4643      	mov	r3, r8
    190a:	712b      	strb	r3, [r5, #4]
						sensorOutputs[4 + i*5 + 1] =     rd_buffer[0] ;
    190c:	464b      	mov	r3, r9
    190e:	781b      	ldrb	r3, [r3, #0]
    1910:	716b      	strb	r3, [r5, #5]
						sensorOutputs[4 + i*5 + 2] = 	 rd_buffer[1] ;
    1912:	464b      	mov	r3, r9
    1914:	785b      	ldrb	r3, [r3, #1]
    1916:	71ab      	strb	r3, [r5, #6]
						sensorOutputs[4 + i*5 + 3] =     rd_buffer[2] ;
    1918:	464b      	mov	r3, r9
    191a:	789b      	ldrb	r3, [r3, #2]
    191c:	71eb      	strb	r3, [r5, #7]
						sensorOutputs[4 + i*5 + 4] = 	 rd_buffer[3] ;
    191e:	464b      	mov	r3, r9
    1920:	78db      	ldrb	r3, [r3, #3]
    1922:	722b      	strb	r3, [r5, #8]
					
						break;
    1924:	e7c4      	b.n	18b0 <checkSendInputs+0x20>
					break;
				}
			}
		}
	}
}
    1926:	b005      	add	sp, #20
    1928:	bc0c      	pop	{r2, r3}
    192a:	4690      	mov	r8, r2
    192c:	4699      	mov	r9, r3
    192e:	bdf0      	pop	{r4, r5, r6, r7, pc}
    1930:	20000e15 	.word	0x20000e15
    1934:	20000fc8 	.word	0x20000fc8
    1938:	20001144 	.word	0x20001144
    193c:	200000ec 	.word	0x200000ec
    1940:	00000dd9 	.word	0x00000dd9
    1944:	000010cd 	.word	0x000010cd
    1948:	00000e39 	.word	0x00000e39

0000194c <checkSendOutputs>:
static bool timerOutput = false;

extern volatile struct outputPorts  outputPort[4];

void checkSendOutputs()
{
    194c:	b5f0      	push	{r4, r5, r6, r7, lr}
    194e:	46d6      	mov	lr, sl
    1950:	464f      	mov	r7, r9
    1952:	b580      	push	{r7, lr}
    1954:	b085      	sub	sp, #20
	uint8_t i =0;
	uint8_t temp =0;
	static uint8_t rd_buffer[20] ;
	
	if(readySendI2CRead == true)
    1956:	4b20      	ldr	r3, [pc, #128]	; (19d8 <checkSendOutputs+0x8c>)
    1958:	781b      	ldrb	r3, [r3, #0]
    195a:	2b00      	cmp	r3, #0
    195c:	d037      	beq.n	19ce <checkSendOutputs+0x82>
	{
		readySendI2CRead = false;
    195e:	2200      	movs	r2, #0
    1960:	4b1d      	ldr	r3, [pc, #116]	; (19d8 <checkSendOutputs+0x8c>)
    1962:	701a      	strb	r2, [r3, #0]
    1964:	4f1d      	ldr	r7, [pc, #116]	; (19dc <checkSendOutputs+0x90>)
    1966:	2401      	movs	r4, #1
    1968:	2600      	movs	r6, #0
		for(i=0;i<NO_OUTPUTS;i++)
		{
			if(outputPort[i].currentState != NOTHINGCONNECTED)
    196a:	4d1d      	ldr	r5, [pc, #116]	; (19e0 <checkSendOutputs+0x94>)
    196c:	e005      	b.n	197a <checkSendOutputs+0x2e>
    196e:	3601      	adds	r6, #1
    1970:	3401      	adds	r4, #1
    1972:	b2e4      	uxtb	r4, r4
    1974:	3705      	adds	r7, #5
		for(i=0;i<NO_OUTPUTS;i++)
    1976:	2c05      	cmp	r4, #5
    1978:	d029      	beq.n	19ce <checkSendOutputs+0x82>
			if(outputPort[i].currentState != NOTHINGCONNECTED)
    197a:	00f3      	lsls	r3, r6, #3
    197c:	18eb      	adds	r3, r5, r3
    197e:	785b      	ldrb	r3, [r3, #1]
    1980:	2b00      	cmp	r3, #0
    1982:	d0f4      	beq.n	196e <checkSendOutputs+0x22>
			{
				switch(outputPort[i].currentState)
    1984:	00f3      	lsls	r3, r6, #3
    1986:	4916      	ldr	r1, [pc, #88]	; (19e0 <checkSendOutputs+0x94>)
    1988:	468c      	mov	ip, r1
    198a:	4463      	add	r3, ip
    198c:	785b      	ldrb	r3, [r3, #1]
    198e:	2b03      	cmp	r3, #3
    1990:	d1ed      	bne.n	196e <checkSendOutputs+0x22>
					case OUTPUT_LEDMATRIX:
						
						//Read the dial values regularly 
						//if(i == 3)
						//{
						sensorOutputs[20 + i*5]		=	 i + 4;
    1992:	1ce3      	adds	r3, r4, #3
    1994:	b2db      	uxtb	r3, r3
    1996:	4699      	mov	r9, r3
    1998:	753b      	strb	r3, [r7, #20]
						struct i2c_master_packet rd_packet = {
							.address		 = outputPort[i].address, 
    199a:	00f2      	lsls	r2, r6, #3
    199c:	5c53      	ldrb	r3, [r2, r1]
						struct i2c_master_packet rd_packet = {
    199e:	a901      	add	r1, sp, #4
    19a0:	800b      	strh	r3, [r1, #0]
							.data_length	 = outputPort[i].readDataLength,
    19a2:	4462      	add	r2, ip
    19a4:	78d3      	ldrb	r3, [r2, #3]
						struct i2c_master_packet rd_packet = {
    19a6:	804b      	strh	r3, [r1, #2]
    19a8:	4b0e      	ldr	r3, [pc, #56]	; (19e4 <checkSendOutputs+0x98>)
    19aa:	469a      	mov	sl, r3
    19ac:	604b      	str	r3, [r1, #4]
    19ae:	2300      	movs	r3, #0
    19b0:	720b      	strb	r3, [r1, #8]
    19b2:	724b      	strb	r3, [r1, #9]
    19b4:	728b      	strb	r3, [r1, #10]
							.hs_master_code  = 0x0,
						};
							
						//outputPort[i].I2CStatus =	BUSY_MODE; 
						
						I2CRead((i+1) , &rd_packet);
    19b6:	0020      	movs	r0, r4
    19b8:	4b0b      	ldr	r3, [pc, #44]	; (19e8 <checkSendOutputs+0x9c>)
    19ba:	4798      	blx	r3
						sensorOutputs[20 + i*5]		=	 i + 4;
    19bc:	464b      	mov	r3, r9
    19be:	753b      	strb	r3, [r7, #20]
						sensorOutputs[20 + i*5 + 1] =    rd_buffer[0] ;
    19c0:	4653      	mov	r3, sl
    19c2:	781b      	ldrb	r3, [r3, #0]
    19c4:	757b      	strb	r3, [r7, #21]
						sensorOutputs[20 + i*5 + 2] = 	 rd_buffer[1] ;
    19c6:	4653      	mov	r3, sl
    19c8:	785b      	ldrb	r3, [r3, #1]
    19ca:	75bb      	strb	r3, [r7, #22]
						//delay_cycles_ms(3);
						//sensor
						//read the sensor values 
						//}
						
						break;
    19cc:	e7cf      	b.n	196e <checkSendOutputs+0x22>
						break;
				}
			}
		}
	}
}
    19ce:	b005      	add	sp, #20
    19d0:	bc0c      	pop	{r2, r3}
    19d2:	4691      	mov	r9, r2
    19d4:	469a      	mov	sl, r3
    19d6:	bdf0      	pop	{r4, r5, r6, r7, pc}
    19d8:	20000e14 	.word	0x20000e14
    19dc:	20000fc8 	.word	0x20000fc8
    19e0:	20001124 	.word	0x20001124
    19e4:	20000100 	.word	0x20000100
    19e8:	000010cd 	.word	0x000010cd

000019ec <sendInfoCallback>:
}

void sendInfoCallback()
{
	static uint8_t tempCount = 0;
	tempCount++;
    19ec:	4b09      	ldr	r3, [pc, #36]	; (1a14 <sendInfoCallback+0x28>)
    19ee:	781b      	ldrb	r3, [r3, #0]
    19f0:	3301      	adds	r3, #1
    19f2:	b2db      	uxtb	r3, r3
	if(tempCount>1)
    19f4:	2b01      	cmp	r3, #1
    19f6:	d90a      	bls.n	1a0e <sendInfoCallback+0x22>
	{
		tempCount = 0;
    19f8:	2200      	movs	r2, #0
    19fa:	4b06      	ldr	r3, [pc, #24]	; (1a14 <sendInfoCallback+0x28>)
    19fc:	701a      	strb	r2, [r3, #0]
		readySendData = true;
    19fe:	2301      	movs	r3, #1
    1a00:	4a05      	ldr	r2, [pc, #20]	; (1a18 <sendInfoCallback+0x2c>)
    1a02:	7013      	strb	r3, [r2, #0]
		readySendI2CRead = true;
    1a04:	4a05      	ldr	r2, [pc, #20]	; (1a1c <sendInfoCallback+0x30>)
    1a06:	7013      	strb	r3, [r2, #0]
		readySendI2CReadInput = true;
    1a08:	4a05      	ldr	r2, [pc, #20]	; (1a20 <sendInfoCallback+0x34>)
    1a0a:	7013      	strb	r3, [r2, #0]
	}
	
	//usart_write_buffer_wait(&usart_instance, transmit_value ,VERSION_SET_LEN);
}
    1a0c:	4770      	bx	lr
	tempCount++;
    1a0e:	4a01      	ldr	r2, [pc, #4]	; (1a14 <sendInfoCallback+0x28>)
    1a10:	7013      	strb	r3, [r2, #0]
    1a12:	e7fb      	b.n	1a0c <sendInfoCallback+0x20>
    1a14:	20000128 	.word	0x20000128
    1a18:	20000e13 	.word	0x20000e13
    1a1c:	20000e14 	.word	0x20000e14
    1a20:	20000e15 	.word	0x20000e15

00001a24 <configureTimer>:
{
    1a24:	b510      	push	{r4, lr}
    1a26:	b08e      	sub	sp, #56	; 0x38

	/* Write default config to config struct */
	config->clock_source               = GCLK_GENERATOR_0;
	config->counter_size               = TC_COUNTER_SIZE_16BIT;
	config->clock_prescaler            = TC_CLOCK_PRESCALER_DIV1;
	config->wave_generation            = TC_WAVE_GENERATION_NORMAL_FREQ;
    1a28:	aa01      	add	r2, sp, #4
    1a2a:	2300      	movs	r3, #0
    1a2c:	2100      	movs	r1, #0
    1a2e:	7193      	strb	r3, [r2, #6]
	config->reload_action              = TC_RELOAD_ACTION_GCLK;
    1a30:	8113      	strh	r3, [r2, #8]
	config->run_in_standby             = false;
    1a32:	2000      	movs	r0, #0
    1a34:	7050      	strb	r0, [r2, #1]
#if (SAML21) || (SAML22) || (SAMC20) || (SAMC21) || (SAMR30)
	config->on_demand                  = false;
#endif
	config->waveform_invert_output     = TC_WAVEFORM_INVERT_OUTPUT_NONE;
    1a36:	7291      	strb	r1, [r2, #10]
	config->enable_capture_on_channel[TC_COMPARE_CAPTURE_CHANNEL_0] = false;
	config->enable_capture_on_channel[TC_COMPARE_CAPTURE_CHANNEL_1] = false;
    1a38:	7311      	strb	r1, [r2, #12]
#ifdef 	FEATURE_TC_IO_CAPTURE
	config->enable_capture_on_IO[TC_COMPARE_CAPTURE_CHANNEL_0] = false;
	config->enable_capture_on_IO[TC_COMPARE_CAPTURE_CHANNEL_1] = false;
#endif

	config->count_direction            = TC_COUNT_DIRECTION_UP;
    1a3a:	7391      	strb	r1, [r2, #14]
	config->oneshot                    = false;
    1a3c:	7351      	strb	r1, [r2, #13]

	config->pwm_channel[TC_COMPARE_CAPTURE_CHANNEL_0].enabled = false;
    1a3e:	7411      	strb	r1, [r2, #16]
	config->pwm_channel[TC_COMPARE_CAPTURE_CHANNEL_0].pin_out = 0;
    1a40:	6153      	str	r3, [r2, #20]
	config->pwm_channel[TC_COMPARE_CAPTURE_CHANNEL_0].pin_mux = 0;
    1a42:	6193      	str	r3, [r2, #24]

	config->pwm_channel[TC_COMPARE_CAPTURE_CHANNEL_1].enabled = false;
    1a44:	7711      	strb	r1, [r2, #28]
	config->pwm_channel[TC_COMPARE_CAPTURE_CHANNEL_1].pin_out = 0;
    1a46:	6213      	str	r3, [r2, #32]
	config->pwm_channel[TC_COMPARE_CAPTURE_CHANNEL_1].pin_mux = 0;
    1a48:	6253      	str	r3, [r2, #36]	; 0x24

	config->counter_16_bit.value                   = 0x0000;
    1a4a:	8513      	strh	r3, [r2, #40]	; 0x28
	config->counter_16_bit.compare_capture_channel\
		[TC_COMPARE_CAPTURE_CHANNEL_0]                        = 0x0000;
    1a4c:	8553      	strh	r3, [r2, #42]	; 0x2a
	config->counter_16_bit.compare_capture_channel\
		[TC_COMPARE_CAPTURE_CHANNEL_1]                        = 0x0000;
    1a4e:	8593      	strh	r3, [r2, #44]	; 0x2c
	config_tc.enable_capture_on_channel[0]		=		true;
    1a50:	3301      	adds	r3, #1
    1a52:	72d3      	strb	r3, [r2, #11]
	config_tc.counter_size						=		TC_COUNTER_SIZE_8BIT; //8
    1a54:	3303      	adds	r3, #3
    1a56:	7093      	strb	r3, [r2, #2]
	config_tc.clock_source						=		GCLK_GENERATOR_3;
    1a58:	3b01      	subs	r3, #1
    1a5a:	7013      	strb	r3, [r2, #0]
	config_tc.clock_prescaler					=		TC_CLOCK_PRESCALER_DIV1024; //1024
    1a5c:	23e0      	movs	r3, #224	; 0xe0
    1a5e:	00db      	lsls	r3, r3, #3
    1a60:	8093      	strh	r3, [r2, #4]
	config_tc.counter_8_bit.period				=		0xFF;
    1a62:	21ff      	movs	r1, #255	; 0xff
    1a64:	2329      	movs	r3, #41	; 0x29
    1a66:	54d1      	strb	r1, [r2, r3]
	tc_init(&tc_encoder_capture, SEND_TIMER , &config_tc);
    1a68:	4c07      	ldr	r4, [pc, #28]	; (1a88 <configureTimer+0x64>)
    1a6a:	4908      	ldr	r1, [pc, #32]	; (1a8c <configureTimer+0x68>)
    1a6c:	0020      	movs	r0, r4
    1a6e:	4b08      	ldr	r3, [pc, #32]	; (1a90 <configureTimer+0x6c>)
    1a70:	4798      	blx	r3
	/* Sanity check arguments */
	Assert(module_inst);
	Assert(module_inst->hw);

	/* Get a pointer to the module's hardware instance */
	TcCount8 *const tc_module = &(module_inst->hw->COUNT8);
    1a72:	6822      	ldr	r2, [r4, #0]
	return (tc_module->STATUS.reg & TC_STATUS_SYNCBUSY);
    1a74:	7bd3      	ldrb	r3, [r2, #15]

	while (tc_is_syncing(module_inst)) {
    1a76:	b25b      	sxtb	r3, r3
    1a78:	2b00      	cmp	r3, #0
    1a7a:	dbfb      	blt.n	1a74 <configureTimer+0x50>
		/* Wait for sync */
	}

	/* Enable TC module */
	tc_module->CTRLA.reg |= TC_CTRLA_ENABLE;
    1a7c:	8813      	ldrh	r3, [r2, #0]
    1a7e:	2102      	movs	r1, #2
    1a80:	430b      	orrs	r3, r1
    1a82:	8013      	strh	r3, [r2, #0]
}
    1a84:	b00e      	add	sp, #56	; 0x38
    1a86:	bd10      	pop	{r4, pc}
    1a88:	20000f6c 	.word	0x20000f6c
    1a8c:	42003c00 	.word	0x42003c00
    1a90:	00000b7d 	.word	0x00000b7d

00001a94 <arrangeSensorData>:
{
    1a94:	b5f0      	push	{r4, r5, r6, r7, lr}
    1a96:	2300      	movs	r3, #0
		sendSensorOutputs[i]	= sensorOutputs[i];
    1a98:	492d      	ldr	r1, [pc, #180]	; (1b50 <arrangeSensorData+0xbc>)
    1a9a:	5cca      	ldrb	r2, [r1, r3]
    1a9c:	54c2      	strb	r2, [r0, r3]
    1a9e:	3301      	adds	r3, #1
	for(i=0;i<4;i++)
    1aa0:	2b04      	cmp	r3, #4
    1aa2:	d1fa      	bne.n	1a9a <arrangeSensorData+0x6>
    1aa4:	2500      	movs	r5, #0
    1aa6:	2400      	movs	r4, #0
		if(inputsConnected[i] != NOTHINGCONNECTED )
    1aa8:	4e2a      	ldr	r6, [pc, #168]	; (1b54 <arrangeSensorData+0xc0>)
    1aaa:	e004      	b.n	1ab6 <arrangeSensorData+0x22>
			countSensorOutputs++;
    1aac:	3401      	adds	r4, #1
    1aae:	b2e4      	uxtb	r4, r4
    1ab0:	3501      	adds	r5, #1
	for(i=0;i<3;i++)
    1ab2:	2d03      	cmp	r5, #3
    1ab4:	d014      	beq.n	1ae0 <arrangeSensorData+0x4c>
		if(inputsConnected[i] != NOTHINGCONNECTED )
    1ab6:	5d73      	ldrb	r3, [r6, r5]
    1ab8:	2b00      	cmp	r3, #0
    1aba:	d0f9      	beq.n	1ab0 <arrangeSensorData+0x1c>
    1abc:	00ab      	lsls	r3, r5, #2
    1abe:	195b      	adds	r3, r3, r5
    1ac0:	3304      	adds	r3, #4
    1ac2:	4a23      	ldr	r2, [pc, #140]	; (1b50 <arrangeSensorData+0xbc>)
    1ac4:	4694      	mov	ip, r2
    1ac6:	4463      	add	r3, ip
				sendSensorOutputs[countSensorOutputs*5 + j + 4] = sensorOutputs[5*i + 4+j];
    1ac8:	00a1      	lsls	r1, r4, #2
    1aca:	1909      	adds	r1, r1, r4
    1acc:	1842      	adds	r2, r0, r1
    1ace:	3105      	adds	r1, #5
    1ad0:	1841      	adds	r1, r0, r1
    1ad2:	781f      	ldrb	r7, [r3, #0]
    1ad4:	7117      	strb	r7, [r2, #4]
    1ad6:	3301      	adds	r3, #1
    1ad8:	3201      	adds	r2, #1
			for(j=0;j<5;j++)
    1ada:	428a      	cmp	r2, r1
    1adc:	d1f9      	bne.n	1ad2 <arrangeSensorData+0x3e>
    1ade:	e7e5      	b.n	1aac <arrangeSensorData+0x18>
    1ae0:	2300      	movs	r3, #0
		if(outputsConnected[i] != NOTHINGCONNECTED )
    1ae2:	4d1d      	ldr	r5, [pc, #116]	; (1b58 <arrangeSensorData+0xc4>)
    1ae4:	e004      	b.n	1af0 <arrangeSensorData+0x5c>
					countSensorOutputs++;
    1ae6:	3401      	adds	r4, #1
    1ae8:	b2e4      	uxtb	r4, r4
    1aea:	3301      	adds	r3, #1
	for(i=0;i<4;i++)
    1aec:	2b04      	cmp	r3, #4
    1aee:	d016      	beq.n	1b1e <arrangeSensorData+0x8a>
			if(outputsConnected[i] == OUTPUT_LEDMATRIX)
    1af0:	5cea      	ldrb	r2, [r5, r3]
    1af2:	2a03      	cmp	r2, #3
    1af4:	d1f9      	bne.n	1aea <arrangeSensorData+0x56>
				if(countSensorOutputs < 3)
    1af6:	2c02      	cmp	r4, #2
    1af8:	d8f7      	bhi.n	1aea <arrangeSensorData+0x56>
    1afa:	009a      	lsls	r2, r3, #2
    1afc:	18d2      	adds	r2, r2, r3
    1afe:	3214      	adds	r2, #20
    1b00:	4913      	ldr	r1, [pc, #76]	; (1b50 <arrangeSensorData+0xbc>)
    1b02:	468c      	mov	ip, r1
    1b04:	4462      	add	r2, ip
						sendSensorOutputs[countSensorOutputs*5 + j + 4] = sensorOutputs[5*i + 20+j];
    1b06:	00a6      	lsls	r6, r4, #2
    1b08:	1936      	adds	r6, r6, r4
    1b0a:	1981      	adds	r1, r0, r6
    1b0c:	3605      	adds	r6, #5
    1b0e:	1986      	adds	r6, r0, r6
    1b10:	7817      	ldrb	r7, [r2, #0]
    1b12:	710f      	strb	r7, [r1, #4]
    1b14:	3201      	adds	r2, #1
    1b16:	3101      	adds	r1, #1
					for(j=0;j<5;j++)
    1b18:	42b1      	cmp	r1, r6
    1b1a:	d1f9      	bne.n	1b10 <arrangeSensorData+0x7c>
    1b1c:	e7e3      	b.n	1ae6 <arrangeSensorData+0x52>
	while(countSensorOutputs<3)
    1b1e:	2c02      	cmp	r4, #2
    1b20:	d815      	bhi.n	1b4e <arrangeSensorData+0xba>
    1b22:	00a3      	lsls	r3, r4, #2
    1b24:	191b      	adds	r3, r3, r4
    1b26:	18c3      	adds	r3, r0, r3
    1b28:	2202      	movs	r2, #2
    1b2a:	1b12      	subs	r2, r2, r4
    1b2c:	b2d2      	uxtb	r2, r2
    1b2e:	3401      	adds	r4, #1
    1b30:	1914      	adds	r4, r2, r4
    1b32:	00a2      	lsls	r2, r4, #2
    1b34:	1914      	adds	r4, r2, r4
    1b36:	1900      	adds	r0, r0, r4
			sendSensorOutputs[countSensorOutputs*5 + i + 4] = 0;
    1b38:	2100      	movs	r1, #0
    1b3a:	e002      	b.n	1b42 <arrangeSensorData+0xae>
    1b3c:	0013      	movs	r3, r2
	while(countSensorOutputs<3)
    1b3e:	4282      	cmp	r2, r0
    1b40:	d005      	beq.n	1b4e <arrangeSensorData+0xba>
    1b42:	1d5a      	adds	r2, r3, #5
			sendSensorOutputs[countSensorOutputs*5 + i + 4] = 0;
    1b44:	7119      	strb	r1, [r3, #4]
    1b46:	3301      	adds	r3, #1
		for(i=0;i<5;i++)
    1b48:	429a      	cmp	r2, r3
    1b4a:	d1fb      	bne.n	1b44 <arrangeSensorData+0xb0>
    1b4c:	e7f6      	b.n	1b3c <arrangeSensorData+0xa8>
}
    1b4e:	bdf0      	pop	{r4, r5, r6, r7, pc}
    1b50:	20000fc8 	.word	0x20000fc8
    1b54:	20000e10 	.word	0x20000e10
    1b58:	20000fc4 	.word	0x20000fc4

00001b5c <sendDataBLE>:
{
    1b5c:	b510      	push	{r4, lr}
	if(readySendData)
    1b5e:	4b09      	ldr	r3, [pc, #36]	; (1b84 <sendDataBLE+0x28>)
    1b60:	781b      	ldrb	r3, [r3, #0]
    1b62:	2b00      	cmp	r3, #0
    1b64:	d100      	bne.n	1b68 <sendDataBLE+0xc>
}
    1b66:	bd10      	pop	{r4, pc}
		readySendData = false;
    1b68:	2200      	movs	r2, #0
    1b6a:	4b06      	ldr	r3, [pc, #24]	; (1b84 <sendDataBLE+0x28>)
    1b6c:	701a      	strb	r2, [r3, #0]
		arrangeSensorData(sendSensorOutputs);
    1b6e:	4c06      	ldr	r4, [pc, #24]	; (1b88 <sendDataBLE+0x2c>)
    1b70:	0020      	movs	r0, r4
    1b72:	4b06      	ldr	r3, [pc, #24]	; (1b8c <sendDataBLE+0x30>)
    1b74:	4798      	blx	r3
		usart_write_buffer_wait(&usart_instance, sendSensorOutputs, LENGTH_SENSORS_DATA );
    1b76:	2214      	movs	r2, #20
    1b78:	0021      	movs	r1, r4
    1b7a:	4805      	ldr	r0, [pc, #20]	; (1b90 <sendDataBLE+0x34>)
    1b7c:	4b05      	ldr	r3, [pc, #20]	; (1b94 <sendDataBLE+0x38>)
    1b7e:	4798      	blx	r3
}
    1b80:	e7f1      	b.n	1b66 <sendDataBLE+0xa>
    1b82:	46c0      	nop			; (mov r8, r8)
    1b84:	20000e13 	.word	0x20000e13
    1b88:	20000114 	.word	0x20000114
    1b8c:	00001a95 	.word	0x00001a95
    1b90:	20000f38 	.word	0x20000f38
    1b94:	00002949 	.word	0x00002949

00001b98 <configureTimerCallbacks>:


void configureTimerCallbacks()
{
    1b98:	b510      	push	{r4, lr}
	tc_register_callback(&tc_encoder_capture, sendInfoCallback,TC_CALLBACK_OVERFLOW);
    1b9a:	4c0c      	ldr	r4, [pc, #48]	; (1bcc <configureTimerCallbacks+0x34>)
    1b9c:	2200      	movs	r2, #0
    1b9e:	490c      	ldr	r1, [pc, #48]	; (1bd0 <configureTimerCallbacks+0x38>)
    1ba0:	0020      	movs	r0, r4
    1ba2:	4b0c      	ldr	r3, [pc, #48]	; (1bd4 <configureTimerCallbacks+0x3c>)
    1ba4:	4798      	blx	r3
	/* Sanity check arguments */
	Assert(module);


	/* Enable interrupts for this TC module */
	system_interrupt_enable(_tc_interrupt_get_interrupt_vector(_tc_get_inst_index(module->hw)));
    1ba6:	6820      	ldr	r0, [r4, #0]
    1ba8:	4b0b      	ldr	r3, [pc, #44]	; (1bd8 <configureTimerCallbacks+0x40>)
    1baa:	4798      	blx	r3
	return (enum system_interrupt_vector)tc_interrupt_vectors[inst_num];
    1bac:	4b0b      	ldr	r3, [pc, #44]	; (1bdc <configureTimerCallbacks+0x44>)
	NVIC->ISER[0] = (uint32_t)(1 << ((uint32_t)vector & 0x0000001f));
    1bae:	5c1a      	ldrb	r2, [r3, r0]
    1bb0:	231f      	movs	r3, #31
    1bb2:	4013      	ands	r3, r2
    1bb4:	2201      	movs	r2, #1
    1bb6:	0011      	movs	r1, r2
    1bb8:	4099      	lsls	r1, r3
    1bba:	4b09      	ldr	r3, [pc, #36]	; (1be0 <configureTimerCallbacks+0x48>)
    1bbc:	6019      	str	r1, [r3, #0]
	else if (callback_type == TC_CALLBACK_CC_CHANNEL1) {
		module->enable_callback_mask |= TC_INTFLAG_MC(2);
		module->hw->COUNT8.INTENSET.reg = TC_INTFLAG_MC(2);
	}
	else {
		module->enable_callback_mask |= (1 << callback_type);
    1bbe:	7e63      	ldrb	r3, [r4, #25]
    1bc0:	2101      	movs	r1, #1
    1bc2:	430b      	orrs	r3, r1
    1bc4:	7663      	strb	r3, [r4, #25]
		module->hw->COUNT8.INTENSET.reg = (1 << callback_type);
    1bc6:	6823      	ldr	r3, [r4, #0]
    1bc8:	735a      	strb	r2, [r3, #13]
	tc_enable_callback(&tc_encoder_capture, TC_CALLBACK_OVERFLOW);
}
    1bca:	bd10      	pop	{r4, pc}
    1bcc:	20000f6c 	.word	0x20000f6c
    1bd0:	000019ed 	.word	0x000019ed
    1bd4:	00000a59 	.word	0x00000a59
    1bd8:	00000b41 	.word	0x00000b41
    1bdc:	00005914 	.word	0x00005914
    1be0:	e000e100 	.word	0xe000e100

00001be4 <configureSendInfo>:


//Send data to BLE every 60msec so that notifications can be sent in a timely manner
void configureSendInfo()
{
    1be4:	b510      	push	{r4, lr}
	configureTimer();
    1be6:	4b02      	ldr	r3, [pc, #8]	; (1bf0 <configureSendInfo+0xc>)
    1be8:	4798      	blx	r3
	configureTimerCallbacks();
    1bea:	4b02      	ldr	r3, [pc, #8]	; (1bf4 <configureSendInfo+0x10>)
    1bec:	4798      	blx	r3
    1bee:	bd10      	pop	{r4, pc}
    1bf0:	00001a25 	.word	0x00001a25
    1bf4:	00001b99 	.word	0x00001b99

00001bf8 <delay_init>:
 *
 * This must be called during start up to initialize the delay routine with
 * the current used main clock. It must run any time the main CPU clock is changed.
 */
void delay_init(void)
{
    1bf8:	b570      	push	{r4, r5, r6, lr}
	cycles_per_ms = system_gclk_gen_get_hz(0);
    1bfa:	2000      	movs	r0, #0
    1bfc:	4b08      	ldr	r3, [pc, #32]	; (1c20 <delay_init+0x28>)
    1bfe:	4798      	blx	r3
    1c00:	0005      	movs	r5, r0
	cycles_per_ms /= 1000;
    1c02:	4c08      	ldr	r4, [pc, #32]	; (1c24 <delay_init+0x2c>)
    1c04:	21fa      	movs	r1, #250	; 0xfa
    1c06:	0089      	lsls	r1, r1, #2
    1c08:	47a0      	blx	r4
    1c0a:	4b07      	ldr	r3, [pc, #28]	; (1c28 <delay_init+0x30>)
    1c0c:	6018      	str	r0, [r3, #0]
	cycles_per_us = cycles_per_ms / 1000;
    1c0e:	4907      	ldr	r1, [pc, #28]	; (1c2c <delay_init+0x34>)
    1c10:	0028      	movs	r0, r5
    1c12:	47a0      	blx	r4
    1c14:	4b06      	ldr	r3, [pc, #24]	; (1c30 <delay_init+0x38>)
    1c16:	6018      	str	r0, [r3, #0]

	SysTick->CTRL = SysTick_CTRL_CLKSOURCE_Msk | SysTick_CTRL_ENABLE_Msk;
    1c18:	2205      	movs	r2, #5
    1c1a:	4b06      	ldr	r3, [pc, #24]	; (1c34 <delay_init+0x3c>)
    1c1c:	601a      	str	r2, [r3, #0]
}
    1c1e:	bd70      	pop	{r4, r5, r6, pc}
    1c20:	000038f9 	.word	0x000038f9
    1c24:	00003cf5 	.word	0x00003cf5
    1c28:	2000004c 	.word	0x2000004c
    1c2c:	000f4240 	.word	0x000f4240
    1c30:	20000050 	.word	0x20000050
    1c34:	e000e010 	.word	0xe000e010

00001c38 <delay_cycles_ms>:
 *
 * \param n  Number of milliseconds to wait
 */
void delay_cycles_ms(
		uint32_t n)
{
    1c38:	b530      	push	{r4, r5, lr}
	while (n--) {
		/* Devide up to blocks of 1ms */
		delay_cycles(cycles_per_ms);
    1c3a:	4b08      	ldr	r3, [pc, #32]	; (1c5c <delay_cycles_ms+0x24>)
    1c3c:	681c      	ldr	r4, [r3, #0]
 */
static inline void delay_cycles(
		const uint32_t n)
{
	if (n > 0) {
		SysTick->LOAD = n;
    1c3e:	4a08      	ldr	r2, [pc, #32]	; (1c60 <delay_cycles_ms+0x28>)
		SysTick->VAL = 0;
    1c40:	2500      	movs	r5, #0

		while (!(SysTick->CTRL & SysTick_CTRL_COUNTFLAG_Msk)) {
    1c42:	2180      	movs	r1, #128	; 0x80
    1c44:	0249      	lsls	r1, r1, #9
	while (n--) {
    1c46:	3801      	subs	r0, #1
    1c48:	d307      	bcc.n	1c5a <delay_cycles_ms+0x22>
	if (n > 0) {
    1c4a:	2c00      	cmp	r4, #0
    1c4c:	d0fb      	beq.n	1c46 <delay_cycles_ms+0xe>
		SysTick->LOAD = n;
    1c4e:	6054      	str	r4, [r2, #4]
		SysTick->VAL = 0;
    1c50:	6095      	str	r5, [r2, #8]
		while (!(SysTick->CTRL & SysTick_CTRL_COUNTFLAG_Msk)) {
    1c52:	6813      	ldr	r3, [r2, #0]
    1c54:	420b      	tst	r3, r1
    1c56:	d0fc      	beq.n	1c52 <delay_cycles_ms+0x1a>
    1c58:	e7f5      	b.n	1c46 <delay_cycles_ms+0xe>
	}
}
    1c5a:	bd30      	pop	{r4, r5, pc}
    1c5c:	2000004c 	.word	0x2000004c
    1c60:	e000e010 	.word	0xe000e010

00001c64 <adc_get_config_defaults>:
 *
 * \param[out] config  Pointer to configuration struct to initialize to
 *                     default values
 */
void adc_get_config_defaults(struct adc_config *const config)
{
    1c64:	b510      	push	{r4, lr}
	Assert(config);
	config->clock_source                  = GCLK_GENERATOR_0;
    1c66:	2200      	movs	r2, #0
    1c68:	2300      	movs	r3, #0
    1c6a:	7002      	strb	r2, [r0, #0]
	config->reference                     = ADC_REFERENCE_INT1V;
    1c6c:	7042      	strb	r2, [r0, #1]
	config->clock_prescaler               = ADC_CLOCK_PRESCALER_DIV4;
    1c6e:	2100      	movs	r1, #0
    1c70:	8042      	strh	r2, [r0, #2]
	config->resolution                    = ADC_RESOLUTION_12BIT;
    1c72:	7101      	strb	r1, [r0, #4]
	config->window.window_mode            = ADC_WINDOW_MODE_DISABLE;
    1c74:	7603      	strb	r3, [r0, #24]
	config->window.window_upper_value     = 0;
    1c76:	6202      	str	r2, [r0, #32]
	config->window.window_lower_value     = 0;
    1c78:	61c2      	str	r2, [r0, #28]
	config->gain_factor                   = ADC_GAIN_FACTOR_1X;
    1c7a:	6082      	str	r2, [r0, #8]
#if SAMR21
	config->positive_input                = ADC_POSITIVE_INPUT_PIN6 ;
#else
 	config->positive_input                = ADC_POSITIVE_INPUT_PIN0 ;
    1c7c:	7303      	strb	r3, [r0, #12]
#endif
	config->negative_input                = ADC_NEGATIVE_INPUT_GND ;
    1c7e:	24c0      	movs	r4, #192	; 0xc0
    1c80:	0164      	lsls	r4, r4, #5
    1c82:	81c4      	strh	r4, [r0, #14]
	config->accumulate_samples            = ADC_ACCUMULATE_DISABLE;
    1c84:	7403      	strb	r3, [r0, #16]
	config->divide_result                 = ADC_DIVIDE_RESULT_DISABLE;
    1c86:	7443      	strb	r3, [r0, #17]
	config->left_adjust                   = false;
    1c88:	7483      	strb	r3, [r0, #18]
	config->differential_mode             = false;
    1c8a:	74c3      	strb	r3, [r0, #19]
	config->freerunning                   = false;
    1c8c:	7503      	strb	r3, [r0, #20]
	config->event_action                  = ADC_EVENT_ACTION_DISABLED;
    1c8e:	242a      	movs	r4, #42	; 0x2a
    1c90:	5503      	strb	r3, [r0, r4]
	config->run_in_standby                = false;
    1c92:	7543      	strb	r3, [r0, #21]
	config->reference_compensation_enable = false;
    1c94:	7583      	strb	r3, [r0, #22]
	config->correction.correction_enable  = false;
    1c96:	3c06      	subs	r4, #6
    1c98:	5503      	strb	r3, [r0, r4]
	config->correction.gain_correction    = ADC_GAINCORR_RESETVALUE;
    1c9a:	84c2      	strh	r2, [r0, #38]	; 0x26
	config->correction.offset_correction  = ADC_OFFSETCORR_RESETVALUE;
    1c9c:	8502      	strh	r2, [r0, #40]	; 0x28
	config->sample_length                 = 0;
    1c9e:	75c1      	strb	r1, [r0, #23]
	config->pin_scan.offset_start_scan    = 0;
    1ca0:	232b      	movs	r3, #43	; 0x2b
    1ca2:	54c1      	strb	r1, [r0, r3]
	config->pin_scan.inputs_to_scan       = 0;
    1ca4:	3301      	adds	r3, #1
    1ca6:	54c1      	strb	r1, [r0, r3]
}
    1ca8:	bd10      	pop	{r4, pc}
	...

00001cac <adc_init>:
 */
enum status_code adc_init(
		struct adc_module *const module_inst,
		Adc *hw,
		struct adc_config *config)
{
    1cac:	b5f0      	push	{r4, r5, r6, r7, lr}
    1cae:	46d6      	mov	lr, sl
    1cb0:	464f      	mov	r7, r9
    1cb2:	4646      	mov	r6, r8
    1cb4:	b5c0      	push	{r6, r7, lr}
    1cb6:	b096      	sub	sp, #88	; 0x58
    1cb8:	0007      	movs	r7, r0
    1cba:	0016      	movs	r6, r2
	Assert(module_inst);
	Assert(hw);
	Assert(config);

	/* Associate the software module instance with the hardware module */
	module_inst->hw = hw;
    1cbc:	6001      	str	r1, [r0, #0]
    1cbe:	4ac6      	ldr	r2, [pc, #792]	; (1fd8 <adc_init+0x32c>)
    1cc0:	6a10      	ldr	r0, [r2, #32]
    1cc2:	2380      	movs	r3, #128	; 0x80
    1cc4:	025b      	lsls	r3, r3, #9
    1cc6:	4303      	orrs	r3, r0
    1cc8:	6213      	str	r3, [r2, #32]

	/* Turn on the digital interface clock */
	system_apb_clock_set_mask(SYSTEM_CLOCK_APB_APBC, PM_APBCMASK_ADC);

	if (hw->CTRLA.reg & ADC_CTRLA_SWRST) {
    1cca:	780b      	ldrb	r3, [r1, #0]
		/* We are in the middle of a reset. Abort. */
		return STATUS_BUSY;
    1ccc:	2005      	movs	r0, #5
	if (hw->CTRLA.reg & ADC_CTRLA_SWRST) {
    1cce:	07db      	lsls	r3, r3, #31
    1cd0:	d505      	bpl.n	1cde <adc_init+0x32>
	}
#endif

	/* Write configuration to module */
	return _adc_set_config(module_inst, config);
}
    1cd2:	b016      	add	sp, #88	; 0x58
    1cd4:	bc1c      	pop	{r2, r3, r4}
    1cd6:	4690      	mov	r8, r2
    1cd8:	4699      	mov	r9, r3
    1cda:	46a2      	mov	sl, r4
    1cdc:	bdf0      	pop	{r4, r5, r6, r7, pc}
	if (hw->CTRLA.reg & ADC_CTRLA_ENABLE) {
    1cde:	780b      	ldrb	r3, [r1, #0]
		return STATUS_ERR_DENIED;
    1ce0:	3017      	adds	r0, #23
	if (hw->CTRLA.reg & ADC_CTRLA_ENABLE) {
    1ce2:	079b      	lsls	r3, r3, #30
    1ce4:	d4f5      	bmi.n	1cd2 <adc_init+0x26>
	module_inst->reference = config->reference;
    1ce6:	7873      	ldrb	r3, [r6, #1]
    1ce8:	713b      	strb	r3, [r7, #4]
	if (module_inst->reference == ADC_REFERENCE_INT1V) {
    1cea:	2b00      	cmp	r3, #0
    1cec:	d104      	bne.n	1cf8 <adc_init+0x4c>
		case SYSTEM_VOLTAGE_REFERENCE_TEMPSENSE:
			SYSCTRL->VREF.reg |= SYSCTRL_VREF_TSEN;
			break;

		case SYSTEM_VOLTAGE_REFERENCE_BANDGAP:
			SYSCTRL->VREF.reg |= SYSCTRL_VREF_BGOUTEN;
    1cee:	4abb      	ldr	r2, [pc, #748]	; (1fdc <adc_init+0x330>)
    1cf0:	6c13      	ldr	r3, [r2, #64]	; 0x40
    1cf2:	2104      	movs	r1, #4
    1cf4:	430b      	orrs	r3, r1
    1cf6:	6413      	str	r3, [r2, #64]	; 0x40
		module_inst->callback[i] = NULL;
    1cf8:	2300      	movs	r3, #0
    1cfa:	60bb      	str	r3, [r7, #8]
    1cfc:	60fb      	str	r3, [r7, #12]
    1cfe:	613b      	str	r3, [r7, #16]
	module_inst->registered_callback_mask = 0;
    1d00:	76bb      	strb	r3, [r7, #26]
	module_inst->enabled_callback_mask = 0;
    1d02:	76fb      	strb	r3, [r7, #27]
	module_inst->remaining_conversions = 0;
    1d04:	833b      	strh	r3, [r7, #24]
	module_inst->job_status = STATUS_OK;
    1d06:	773b      	strb	r3, [r7, #28]
	_adc_instances[0] = module_inst;
    1d08:	4bb5      	ldr	r3, [pc, #724]	; (1fe0 <adc_init+0x334>)
    1d0a:	601f      	str	r7, [r3, #0]
	if (config->event_action == ADC_EVENT_ACTION_DISABLED &&
    1d0c:	232a      	movs	r3, #42	; 0x2a
    1d0e:	5cf3      	ldrb	r3, [r6, r3]
    1d10:	2b00      	cmp	r3, #0
    1d12:	d105      	bne.n	1d20 <adc_init+0x74>
    1d14:	7d33      	ldrb	r3, [r6, #20]
    1d16:	2b00      	cmp	r3, #0
    1d18:	d102      	bne.n	1d20 <adc_init+0x74>
		module_inst->software_trigger = true;
    1d1a:	3301      	adds	r3, #1
    1d1c:	777b      	strb	r3, [r7, #29]
    1d1e:	e001      	b.n	1d24 <adc_init+0x78>
		module_inst->software_trigger = false;
    1d20:	2300      	movs	r3, #0
    1d22:	777b      	strb	r3, [r7, #29]
	Adc *const adc_module = module_inst->hw;
    1d24:	683b      	ldr	r3, [r7, #0]
    1d26:	4698      	mov	r8, r3
	gclk_chan_conf.source_generator = config->clock_source;
    1d28:	7833      	ldrb	r3, [r6, #0]
    1d2a:	466a      	mov	r2, sp
    1d2c:	7013      	strb	r3, [r2, #0]
	system_gclk_chan_set_config(ADC_GCLK_ID, &gclk_chan_conf);
    1d2e:	4669      	mov	r1, sp
    1d30:	201e      	movs	r0, #30
    1d32:	4bac      	ldr	r3, [pc, #688]	; (1fe4 <adc_init+0x338>)
    1d34:	4798      	blx	r3
	system_gclk_chan_enable(ADC_GCLK_ID);
    1d36:	201e      	movs	r0, #30
    1d38:	4bab      	ldr	r3, [pc, #684]	; (1fe8 <adc_init+0x33c>)
    1d3a:	4798      	blx	r3
	if (config->pin_scan.inputs_to_scan != 0) {
    1d3c:	232c      	movs	r3, #44	; 0x2c
    1d3e:	5cf2      	ldrb	r2, [r6, r3]
    1d40:	2a00      	cmp	r2, #0
    1d42:	d054      	beq.n	1dee <adc_init+0x142>
		uint8_t offset = config->pin_scan.offset_start_scan;
    1d44:	3b01      	subs	r3, #1
    1d46:	5cf5      	ldrb	r5, [r6, r3]
		uint8_t start_pin =
    1d48:	7b33      	ldrb	r3, [r6, #12]
    1d4a:	18eb      	adds	r3, r5, r3
    1d4c:	b2db      	uxtb	r3, r3
		uint8_t end_pin =
    1d4e:	18d1      	adds	r1, r2, r3
		while (start_pin < end_pin) {
    1d50:	b2c9      	uxtb	r1, r1
    1d52:	428b      	cmp	r3, r1
    1d54:	d221      	bcs.n	1d9a <adc_init+0xee>
    1d56:	1952      	adds	r2, r2, r5
    1d58:	b2d3      	uxtb	r3, r2
    1d5a:	4699      	mov	r9, r3
	const uint32_t pinmapping[] = {
    1d5c:	4ba3      	ldr	r3, [pc, #652]	; (1fec <adc_init+0x340>)
    1d5e:	469a      	mov	sl, r3
    1d60:	e003      	b.n	1d6a <adc_init+0xbe>
			offset++;
    1d62:	3501      	adds	r5, #1
    1d64:	b2ed      	uxtb	r5, r5
		while (start_pin < end_pin) {
    1d66:	454d      	cmp	r5, r9
    1d68:	d017      	beq.n	1d9a <adc_init+0xee>
			_adc_configure_ain_pin((offset % 16)+(uint8_t)config->positive_input);
    1d6a:	240f      	movs	r4, #15
    1d6c:	402c      	ands	r4, r5
    1d6e:	7b33      	ldrb	r3, [r6, #12]
    1d70:	18e4      	adds	r4, r4, r3
	const uint32_t pinmapping[] = {
    1d72:	2250      	movs	r2, #80	; 0x50
    1d74:	499e      	ldr	r1, [pc, #632]	; (1ff0 <adc_init+0x344>)
    1d76:	a802      	add	r0, sp, #8
    1d78:	47d0      	blx	sl
	if (pin <= ADC_EXTCHANNEL_MSB) {
    1d7a:	2c13      	cmp	r4, #19
    1d7c:	d8f1      	bhi.n	1d62 <adc_init+0xb6>
		pin_map_result = pinmapping[pin >> ADC_INPUTCTRL_MUXPOS_Pos];
    1d7e:	00a4      	lsls	r4, r4, #2
    1d80:	ab02      	add	r3, sp, #8
    1d82:	58e0      	ldr	r0, [r4, r3]
	config->direction    = SYSTEM_PINMUX_PIN_DIR_INPUT;
    1d84:	a901      	add	r1, sp, #4
    1d86:	2300      	movs	r3, #0
    1d88:	704b      	strb	r3, [r1, #1]
	config->powersave    = false;
    1d8a:	70cb      	strb	r3, [r1, #3]
		config.input_pull   = SYSTEM_PINMUX_PIN_PULL_NONE;
    1d8c:	708b      	strb	r3, [r1, #2]
		config.mux_position = 1;
    1d8e:	3301      	adds	r3, #1
    1d90:	700b      	strb	r3, [r1, #0]
		system_pinmux_pin_set_config(pin_map_result, &config);
    1d92:	b2c0      	uxtb	r0, r0
    1d94:	4b97      	ldr	r3, [pc, #604]	; (1ff4 <adc_init+0x348>)
    1d96:	4798      	blx	r3
    1d98:	e7e3      	b.n	1d62 <adc_init+0xb6>
		_adc_configure_ain_pin(config->negative_input);
    1d9a:	89f4      	ldrh	r4, [r6, #14]
	const uint32_t pinmapping[] = {
    1d9c:	2250      	movs	r2, #80	; 0x50
    1d9e:	4994      	ldr	r1, [pc, #592]	; (1ff0 <adc_init+0x344>)
    1da0:	a802      	add	r0, sp, #8
    1da2:	4b92      	ldr	r3, [pc, #584]	; (1fec <adc_init+0x340>)
    1da4:	4798      	blx	r3
	if (pin <= ADC_EXTCHANNEL_MSB) {
    1da6:	2c13      	cmp	r4, #19
    1da8:	d913      	bls.n	1dd2 <adc_init+0x126>
	adc_module->CTRLA.reg = (config->run_in_standby << ADC_CTRLA_RUNSTDBY_Pos);
    1daa:	7d73      	ldrb	r3, [r6, #21]
    1dac:	009b      	lsls	r3, r3, #2
    1dae:	b2db      	uxtb	r3, r3
    1db0:	4642      	mov	r2, r8
    1db2:	7013      	strb	r3, [r2, #0]
			(config->reference_compensation_enable << ADC_REFCTRL_REFCOMP_Pos) |
    1db4:	7db3      	ldrb	r3, [r6, #22]
    1db6:	01db      	lsls	r3, r3, #7
    1db8:	7872      	ldrb	r2, [r6, #1]
    1dba:	4313      	orrs	r3, r2
    1dbc:	b2db      	uxtb	r3, r3
	adc_module->REFCTRL.reg =
    1dbe:	4642      	mov	r2, r8
    1dc0:	7053      	strb	r3, [r2, #1]
	switch (config->resolution) {
    1dc2:	7933      	ldrb	r3, [r6, #4]
    1dc4:	2b34      	cmp	r3, #52	; 0x34
    1dc6:	d900      	bls.n	1dca <adc_init+0x11e>
    1dc8:	e17b      	b.n	20c2 <STACK_SIZE+0xc2>
    1dca:	009b      	lsls	r3, r3, #2
    1dcc:	4a8a      	ldr	r2, [pc, #552]	; (1ff8 <adc_init+0x34c>)
    1dce:	58d3      	ldr	r3, [r2, r3]
    1dd0:	469f      	mov	pc, r3
		pin_map_result = pinmapping[pin >> ADC_INPUTCTRL_MUXPOS_Pos];
    1dd2:	00a4      	lsls	r4, r4, #2
    1dd4:	ab02      	add	r3, sp, #8
    1dd6:	58e0      	ldr	r0, [r4, r3]
	config->direction    = SYSTEM_PINMUX_PIN_DIR_INPUT;
    1dd8:	a901      	add	r1, sp, #4
    1dda:	2300      	movs	r3, #0
    1ddc:	704b      	strb	r3, [r1, #1]
	config->powersave    = false;
    1dde:	70cb      	strb	r3, [r1, #3]
		config.input_pull   = SYSTEM_PINMUX_PIN_PULL_NONE;
    1de0:	708b      	strb	r3, [r1, #2]
		config.mux_position = 1;
    1de2:	3301      	adds	r3, #1
    1de4:	700b      	strb	r3, [r1, #0]
		system_pinmux_pin_set_config(pin_map_result, &config);
    1de6:	b2c0      	uxtb	r0, r0
    1de8:	4b82      	ldr	r3, [pc, #520]	; (1ff4 <adc_init+0x348>)
    1dea:	4798      	blx	r3
    1dec:	e7dd      	b.n	1daa <adc_init+0xfe>
		_adc_configure_ain_pin(config->positive_input);
    1dee:	7b34      	ldrb	r4, [r6, #12]
	const uint32_t pinmapping[] = {
    1df0:	2250      	movs	r2, #80	; 0x50
    1df2:	497f      	ldr	r1, [pc, #508]	; (1ff0 <adc_init+0x344>)
    1df4:	a802      	add	r0, sp, #8
    1df6:	4b7d      	ldr	r3, [pc, #500]	; (1fec <adc_init+0x340>)
    1df8:	4798      	blx	r3
	if (pin <= ADC_EXTCHANNEL_MSB) {
    1dfa:	2c13      	cmp	r4, #19
    1dfc:	d915      	bls.n	1e2a <adc_init+0x17e>
		_adc_configure_ain_pin(config->negative_input);
    1dfe:	89f4      	ldrh	r4, [r6, #14]
	const uint32_t pinmapping[] = {
    1e00:	2250      	movs	r2, #80	; 0x50
    1e02:	497b      	ldr	r1, [pc, #492]	; (1ff0 <adc_init+0x344>)
    1e04:	a802      	add	r0, sp, #8
    1e06:	4b79      	ldr	r3, [pc, #484]	; (1fec <adc_init+0x340>)
    1e08:	4798      	blx	r3
	if (pin <= ADC_EXTCHANNEL_MSB) {
    1e0a:	2c13      	cmp	r4, #19
    1e0c:	d8cd      	bhi.n	1daa <adc_init+0xfe>
		pin_map_result = pinmapping[pin >> ADC_INPUTCTRL_MUXPOS_Pos];
    1e0e:	00a4      	lsls	r4, r4, #2
    1e10:	ab02      	add	r3, sp, #8
    1e12:	58e0      	ldr	r0, [r4, r3]
	config->direction    = SYSTEM_PINMUX_PIN_DIR_INPUT;
    1e14:	a901      	add	r1, sp, #4
    1e16:	2300      	movs	r3, #0
    1e18:	704b      	strb	r3, [r1, #1]
	config->powersave    = false;
    1e1a:	70cb      	strb	r3, [r1, #3]
		config.input_pull   = SYSTEM_PINMUX_PIN_PULL_NONE;
    1e1c:	708b      	strb	r3, [r1, #2]
		config.mux_position = 1;
    1e1e:	3301      	adds	r3, #1
    1e20:	700b      	strb	r3, [r1, #0]
		system_pinmux_pin_set_config(pin_map_result, &config);
    1e22:	b2c0      	uxtb	r0, r0
    1e24:	4b73      	ldr	r3, [pc, #460]	; (1ff4 <adc_init+0x348>)
    1e26:	4798      	blx	r3
    1e28:	e7bf      	b.n	1daa <adc_init+0xfe>
		pin_map_result = pinmapping[pin >> ADC_INPUTCTRL_MUXPOS_Pos];
    1e2a:	00a4      	lsls	r4, r4, #2
    1e2c:	ab02      	add	r3, sp, #8
    1e2e:	58e0      	ldr	r0, [r4, r3]
	config->direction    = SYSTEM_PINMUX_PIN_DIR_INPUT;
    1e30:	a901      	add	r1, sp, #4
    1e32:	2300      	movs	r3, #0
    1e34:	704b      	strb	r3, [r1, #1]
	config->powersave    = false;
    1e36:	70cb      	strb	r3, [r1, #3]
		config.input_pull   = SYSTEM_PINMUX_PIN_PULL_NONE;
    1e38:	708b      	strb	r3, [r1, #2]
		config.mux_position = 1;
    1e3a:	3301      	adds	r3, #1
    1e3c:	700b      	strb	r3, [r1, #0]
		system_pinmux_pin_set_config(pin_map_result, &config);
    1e3e:	b2c0      	uxtb	r0, r0
    1e40:	4b6c      	ldr	r3, [pc, #432]	; (1ff4 <adc_init+0x348>)
    1e42:	4798      	blx	r3
    1e44:	e7db      	b.n	1dfe <adc_init+0x152>
		accumulate = ADC_ACCUMULATE_SAMPLES_16;
    1e46:	2304      	movs	r3, #4
		resolution = ADC_RESOLUTION_16BIT;
    1e48:	2410      	movs	r4, #16
		adjres = ADC_DIVIDE_RESULT_4;
    1e4a:	2102      	movs	r1, #2
    1e4c:	e01a      	b.n	1e84 <adc_init+0x1d8>
		adjres = config->divide_result;
    1e4e:	7c71      	ldrb	r1, [r6, #17]
		accumulate = config->accumulate_samples;
    1e50:	7c33      	ldrb	r3, [r6, #16]
		resolution = ADC_RESOLUTION_16BIT;
    1e52:	2410      	movs	r4, #16
    1e54:	e016      	b.n	1e84 <adc_init+0x1d8>
		accumulate = ADC_ACCUMULATE_SAMPLES_64;
    1e56:	2306      	movs	r3, #6
		resolution = ADC_RESOLUTION_16BIT;
    1e58:	2410      	movs	r4, #16
		adjres = ADC_DIVIDE_RESULT_2;
    1e5a:	2101      	movs	r1, #1
    1e5c:	e012      	b.n	1e84 <adc_init+0x1d8>
		accumulate = ADC_ACCUMULATE_SAMPLES_256;
    1e5e:	2308      	movs	r3, #8
		resolution = ADC_RESOLUTION_16BIT;
    1e60:	2410      	movs	r4, #16
		adjres = ADC_DIVIDE_RESULT_DISABLE;
    1e62:	2100      	movs	r1, #0
    1e64:	e00e      	b.n	1e84 <adc_init+0x1d8>
	enum adc_accumulate_samples accumulate = ADC_ACCUMULATE_DISABLE;
    1e66:	2300      	movs	r3, #0
		resolution = ADC_RESOLUTION_8BIT;
    1e68:	2430      	movs	r4, #48	; 0x30
	uint8_t adjres = 0;
    1e6a:	2100      	movs	r1, #0
    1e6c:	e00a      	b.n	1e84 <adc_init+0x1d8>
	enum adc_accumulate_samples accumulate = ADC_ACCUMULATE_DISABLE;
    1e6e:	2300      	movs	r3, #0
		resolution = ADC_RESOLUTION_10BIT;
    1e70:	2420      	movs	r4, #32
	uint8_t adjres = 0;
    1e72:	2100      	movs	r1, #0
    1e74:	e006      	b.n	1e84 <adc_init+0x1d8>
	enum adc_accumulate_samples accumulate = ADC_ACCUMULATE_DISABLE;
    1e76:	2300      	movs	r3, #0
		resolution = ADC_RESOLUTION_12BIT;
    1e78:	2400      	movs	r4, #0
	uint8_t adjres = 0;
    1e7a:	2100      	movs	r1, #0
    1e7c:	e002      	b.n	1e84 <adc_init+0x1d8>
		accumulate = ADC_ACCUMULATE_SAMPLES_4;
    1e7e:	2302      	movs	r3, #2
		resolution = ADC_RESOLUTION_16BIT;
    1e80:	2410      	movs	r4, #16
		adjres = ADC_DIVIDE_RESULT_2;
    1e82:	2101      	movs	r1, #1
	adc_module->AVGCTRL.reg = ADC_AVGCTRL_ADJRES(adjres) | accumulate;
    1e84:	0109      	lsls	r1, r1, #4
    1e86:	2270      	movs	r2, #112	; 0x70
    1e88:	400a      	ands	r2, r1
    1e8a:	4313      	orrs	r3, r2
    1e8c:	4642      	mov	r2, r8
    1e8e:	7093      	strb	r3, [r2, #2]
	if (config->sample_length > 63) {
    1e90:	7df3      	ldrb	r3, [r6, #23]
		return STATUS_ERR_INVALID_ARG;
    1e92:	2017      	movs	r0, #23
	if (config->sample_length > 63) {
    1e94:	2b3f      	cmp	r3, #63	; 0x3f
    1e96:	d900      	bls.n	1e9a <adc_init+0x1ee>
    1e98:	e71b      	b.n	1cd2 <adc_init+0x26>
		adc_module->SAMPCTRL.reg =
    1e9a:	70d3      	strb	r3, [r2, #3]
	struct adc_module *const module_inst)
{
	/* Sanity check arguments */
	Assert(module_inst);

	Adc *const adc_module = module_inst->hw;
    1e9c:	683a      	ldr	r2, [r7, #0]

	if (adc_module->STATUS.reg & ADC_STATUS_SYNCBUSY) {
    1e9e:	7e53      	ldrb	r3, [r2, #25]
	while (adc_is_syncing(module_inst)) {
    1ea0:	b25b      	sxtb	r3, r3
    1ea2:	2b00      	cmp	r3, #0
    1ea4:	dbfb      	blt.n	1e9e <adc_init+0x1f2>
			(config->differential_mode << ADC_CTRLB_DIFFMODE_Pos);
    1ea6:	7cf3      	ldrb	r3, [r6, #19]
			(config->left_adjust << ADC_CTRLB_LEFTADJ_Pos) |
    1ea8:	8872      	ldrh	r2, [r6, #2]
    1eaa:	4313      	orrs	r3, r2
			(config->correction.correction_enable << ADC_CTRLB_CORREN_Pos) |
    1eac:	2224      	movs	r2, #36	; 0x24
    1eae:	5cb2      	ldrb	r2, [r6, r2]
    1eb0:	00d2      	lsls	r2, r2, #3
			(config->left_adjust << ADC_CTRLB_LEFTADJ_Pos) |
    1eb2:	4313      	orrs	r3, r2
			(config->freerunning << ADC_CTRLB_FREERUN_Pos) |
    1eb4:	7d32      	ldrb	r2, [r6, #20]
    1eb6:	0092      	lsls	r2, r2, #2
			(config->left_adjust << ADC_CTRLB_LEFTADJ_Pos) |
    1eb8:	4313      	orrs	r3, r2
    1eba:	7cb2      	ldrb	r2, [r6, #18]
    1ebc:	0052      	lsls	r2, r2, #1
    1ebe:	4313      	orrs	r3, r2
    1ec0:	4323      	orrs	r3, r4
	adc_module->CTRLB.reg =
    1ec2:	4642      	mov	r2, r8
    1ec4:	8093      	strh	r3, [r2, #4]
	if (config->window.window_mode != ADC_WINDOW_MODE_DISABLE) {
    1ec6:	7e33      	ldrb	r3, [r6, #24]
    1ec8:	2b00      	cmp	r3, #0
    1eca:	d020      	beq.n	1f0e <adc_init+0x262>
		switch (resolution) {
    1ecc:	2c10      	cmp	r4, #16
    1ece:	d100      	bne.n	1ed2 <adc_init+0x226>
    1ed0:	e0d9      	b.n	2086 <STACK_SIZE+0x86>
    1ed2:	d800      	bhi.n	1ed6 <adc_init+0x22a>
    1ed4:	e098      	b.n	2008 <STACK_SIZE+0x8>
    1ed6:	2c20      	cmp	r4, #32
    1ed8:	d100      	bne.n	1edc <adc_init+0x230>
    1eda:	e0b6      	b.n	204a <STACK_SIZE+0x4a>
    1edc:	2c30      	cmp	r4, #48	; 0x30
    1ede:	d116      	bne.n	1f0e <adc_init+0x262>
			if (config->differential_mode &&
    1ee0:	7cf2      	ldrb	r2, [r6, #19]
    1ee2:	2a00      	cmp	r2, #0
    1ee4:	d00a      	beq.n	1efc <adc_init+0x250>
					(config->window.window_lower_value > 127 ||
    1ee6:	69f2      	ldr	r2, [r6, #28]
    1ee8:	3280      	adds	r2, #128	; 0x80
				return STATUS_ERR_INVALID_ARG;
    1eea:	2017      	movs	r0, #23
			if (config->differential_mode &&
    1eec:	2aff      	cmp	r2, #255	; 0xff
    1eee:	d900      	bls.n	1ef2 <adc_init+0x246>
    1ef0:	e6ef      	b.n	1cd2 <adc_init+0x26>
					config->window.window_lower_value < -128 ||
    1ef2:	6a32      	ldr	r2, [r6, #32]
    1ef4:	3280      	adds	r2, #128	; 0x80
    1ef6:	2aff      	cmp	r2, #255	; 0xff
    1ef8:	d900      	bls.n	1efc <adc_init+0x250>
    1efa:	e6ea      	b.n	1cd2 <adc_init+0x26>
				return STATUS_ERR_INVALID_ARG;
    1efc:	2017      	movs	r0, #23
			} else if (config->window.window_lower_value > 255 ||
    1efe:	69f2      	ldr	r2, [r6, #28]
    1f00:	2aff      	cmp	r2, #255	; 0xff
    1f02:	dd00      	ble.n	1f06 <adc_init+0x25a>
    1f04:	e6e5      	b.n	1cd2 <adc_init+0x26>
    1f06:	6a32      	ldr	r2, [r6, #32]
    1f08:	2aff      	cmp	r2, #255	; 0xff
    1f0a:	dd00      	ble.n	1f0e <adc_init+0x262>
    1f0c:	e6e1      	b.n	1cd2 <adc_init+0x26>
	Adc *const adc_module = module_inst->hw;
    1f0e:	6839      	ldr	r1, [r7, #0]
	if (adc_module->STATUS.reg & ADC_STATUS_SYNCBUSY) {
    1f10:	7e4a      	ldrb	r2, [r1, #25]
	while (adc_is_syncing(module_inst)) {
    1f12:	b252      	sxtb	r2, r2
    1f14:	2a00      	cmp	r2, #0
    1f16:	dbfb      	blt.n	1f10 <adc_init+0x264>
	adc_module->WINCTRL.reg = config->window.window_mode;
    1f18:	4642      	mov	r2, r8
    1f1a:	7213      	strb	r3, [r2, #8]
	Adc *const adc_module = module_inst->hw;
    1f1c:	683a      	ldr	r2, [r7, #0]
	if (adc_module->STATUS.reg & ADC_STATUS_SYNCBUSY) {
    1f1e:	7e53      	ldrb	r3, [r2, #25]
	while (adc_is_syncing(module_inst)) {
    1f20:	b25b      	sxtb	r3, r3
    1f22:	2b00      	cmp	r3, #0
    1f24:	dbfb      	blt.n	1f1e <adc_init+0x272>
	adc_module->WINLT.reg =
    1f26:	8bb3      	ldrh	r3, [r6, #28]
    1f28:	4642      	mov	r2, r8
    1f2a:	8393      	strh	r3, [r2, #28]
	Adc *const adc_module = module_inst->hw;
    1f2c:	683a      	ldr	r2, [r7, #0]
	if (adc_module->STATUS.reg & ADC_STATUS_SYNCBUSY) {
    1f2e:	7e53      	ldrb	r3, [r2, #25]
	while (adc_is_syncing(module_inst)) {
    1f30:	b25b      	sxtb	r3, r3
    1f32:	2b00      	cmp	r3, #0
    1f34:	dbfb      	blt.n	1f2e <adc_init+0x282>
	adc_module->WINUT.reg = config->window.window_upper_value <<
    1f36:	8c33      	ldrh	r3, [r6, #32]
    1f38:	4642      	mov	r2, r8
    1f3a:	8413      	strh	r3, [r2, #32]
	uint8_t inputs_to_scan = config->pin_scan.inputs_to_scan;
    1f3c:	232c      	movs	r3, #44	; 0x2c
    1f3e:	5cf3      	ldrb	r3, [r6, r3]
	if (inputs_to_scan > 0) {
    1f40:	2b00      	cmp	r3, #0
    1f42:	d005      	beq.n	1f50 <adc_init+0x2a4>
		inputs_to_scan--;
    1f44:	3b01      	subs	r3, #1
    1f46:	b2db      	uxtb	r3, r3
		return STATUS_ERR_INVALID_ARG;
    1f48:	2017      	movs	r0, #23
	if (inputs_to_scan > (ADC_INPUTCTRL_INPUTSCAN_Msk >> ADC_INPUTCTRL_INPUTSCAN_Pos) ||
    1f4a:	2b0f      	cmp	r3, #15
    1f4c:	d900      	bls.n	1f50 <adc_init+0x2a4>
    1f4e:	e6c0      	b.n	1cd2 <adc_init+0x26>
			config->pin_scan.offset_start_scan > (ADC_INPUTCTRL_INPUTOFFSET_Msk >> ADC_INPUTCTRL_INPUTOFFSET_Pos)) {
    1f50:	222b      	movs	r2, #43	; 0x2b
    1f52:	5cb1      	ldrb	r1, [r6, r2]
		return STATUS_ERR_INVALID_ARG;
    1f54:	2017      	movs	r0, #23
	if (inputs_to_scan > (ADC_INPUTCTRL_INPUTSCAN_Msk >> ADC_INPUTCTRL_INPUTSCAN_Pos) ||
    1f56:	290f      	cmp	r1, #15
    1f58:	d900      	bls.n	1f5c <adc_init+0x2b0>
    1f5a:	e6ba      	b.n	1cd2 <adc_init+0x26>
	Adc *const adc_module = module_inst->hw;
    1f5c:	6838      	ldr	r0, [r7, #0]
	if (adc_module->STATUS.reg & ADC_STATUS_SYNCBUSY) {
    1f5e:	7e42      	ldrb	r2, [r0, #25]
	while (adc_is_syncing(module_inst)) {
    1f60:	b252      	sxtb	r2, r2
    1f62:	2a00      	cmp	r2, #0
    1f64:	dbfb      	blt.n	1f5e <adc_init+0x2b2>
			config->negative_input |
    1f66:	89f2      	ldrh	r2, [r6, #14]
			config->positive_input;
    1f68:	7b30      	ldrb	r0, [r6, #12]
			config->negative_input |
    1f6a:	4302      	orrs	r2, r0
    1f6c:	68b0      	ldr	r0, [r6, #8]
    1f6e:	4302      	orrs	r2, r0
			(config->pin_scan.offset_start_scan <<
    1f70:	0509      	lsls	r1, r1, #20
			config->negative_input |
    1f72:	430a      	orrs	r2, r1
			(inputs_to_scan << ADC_INPUTCTRL_INPUTSCAN_Pos) |
    1f74:	041b      	lsls	r3, r3, #16
			config->negative_input |
    1f76:	4313      	orrs	r3, r2
	adc_module->INPUTCTRL.reg =
    1f78:	4642      	mov	r2, r8
    1f7a:	6113      	str	r3, [r2, #16]
	adc_module->EVCTRL.reg = config->event_action;
    1f7c:	232a      	movs	r3, #42	; 0x2a
    1f7e:	5cf3      	ldrb	r3, [r6, r3]
    1f80:	7513      	strb	r3, [r2, #20]
	adc_module->INTENCLR.reg =
    1f82:	230f      	movs	r3, #15
    1f84:	7593      	strb	r3, [r2, #22]
	if (config->correction.correction_enable){
    1f86:	3315      	adds	r3, #21
    1f88:	5cf3      	ldrb	r3, [r6, r3]
    1f8a:	2b00      	cmp	r3, #0
    1f8c:	d012      	beq.n	1fb4 <adc_init+0x308>
		if (config->correction.gain_correction > ADC_GAINCORR_GAINCORR_Msk) {
    1f8e:	8cf3      	ldrh	r3, [r6, #38]	; 0x26
    1f90:	4a1a      	ldr	r2, [pc, #104]	; (1ffc <adc_init+0x350>)
			return STATUS_ERR_INVALID_ARG;
    1f92:	2017      	movs	r0, #23
		if (config->correction.gain_correction > ADC_GAINCORR_GAINCORR_Msk) {
    1f94:	4293      	cmp	r3, r2
    1f96:	d900      	bls.n	1f9a <adc_init+0x2ee>
    1f98:	e69b      	b.n	1cd2 <adc_init+0x26>
			adc_module->GAINCORR.reg = config->correction.gain_correction <<
    1f9a:	4642      	mov	r2, r8
    1f9c:	8493      	strh	r3, [r2, #36]	; 0x24
		if (config->correction.offset_correction > 2047 ||
    1f9e:	8d32      	ldrh	r2, [r6, #40]	; 0x28
    1fa0:	2380      	movs	r3, #128	; 0x80
    1fa2:	011b      	lsls	r3, r3, #4
    1fa4:	18d3      	adds	r3, r2, r3
    1fa6:	4915      	ldr	r1, [pc, #84]	; (1ffc <adc_init+0x350>)
    1fa8:	b29b      	uxth	r3, r3
    1faa:	428b      	cmp	r3, r1
    1fac:	d900      	bls.n	1fb0 <adc_init+0x304>
    1fae:	e690      	b.n	1cd2 <adc_init+0x26>
			adc_module->OFFSETCORR.reg = config->correction.offset_correction <<
    1fb0:	4643      	mov	r3, r8
    1fb2:	84da      	strh	r2, [r3, #38]	; 0x26
			ADC_CALIB_BIAS_CAL(
    1fb4:	4b12      	ldr	r3, [pc, #72]	; (2000 <STACK_SIZE>)
    1fb6:	681b      	ldr	r3, [r3, #0]
    1fb8:	015b      	lsls	r3, r3, #5
    1fba:	22e0      	movs	r2, #224	; 0xe0
    1fbc:	00d2      	lsls	r2, r2, #3
    1fbe:	4013      	ands	r3, r2
			ADC_CALIB_LINEARITY_CAL(
    1fc0:	4a10      	ldr	r2, [pc, #64]	; (2004 <STACK_SIZE+0x4>)
    1fc2:	6851      	ldr	r1, [r2, #4]
    1fc4:	0149      	lsls	r1, r1, #5
    1fc6:	6812      	ldr	r2, [r2, #0]
    1fc8:	0ed2      	lsrs	r2, r2, #27
    1fca:	430a      	orrs	r2, r1
    1fcc:	b2d2      	uxtb	r2, r2
			) |
    1fce:	4313      	orrs	r3, r2
	adc_module->CALIB.reg =
    1fd0:	4642      	mov	r2, r8
    1fd2:	8513      	strh	r3, [r2, #40]	; 0x28
	return STATUS_OK;
    1fd4:	2000      	movs	r0, #0
    1fd6:	e67c      	b.n	1cd2 <adc_init+0x26>
    1fd8:	40000400 	.word	0x40000400
    1fdc:	40000800 	.word	0x40000800
    1fe0:	20000f88 	.word	0x20000f88
    1fe4:	00003a11 	.word	0x00003a11
    1fe8:	00003985 	.word	0x00003985
    1fec:	00005785 	.word	0x00005785
    1ff0:	000059f0 	.word	0x000059f0
    1ff4:	00003b09 	.word	0x00003b09
    1ff8:	0000591c 	.word	0x0000591c
    1ffc:	00000fff 	.word	0x00000fff
    2000:	00806024 	.word	0x00806024
    2004:	00806020 	.word	0x00806020
		switch (resolution) {
    2008:	2c00      	cmp	r4, #0
    200a:	d000      	beq.n	200e <STACK_SIZE+0xe>
    200c:	e77f      	b.n	1f0e <adc_init+0x262>
			if (config->differential_mode &&
    200e:	7cf2      	ldrb	r2, [r6, #19]
    2010:	2a00      	cmp	r2, #0
    2012:	d00f      	beq.n	2034 <STACK_SIZE+0x34>
					(config->window.window_lower_value > 2047 ||
    2014:	69f2      	ldr	r2, [r6, #28]
    2016:	2180      	movs	r1, #128	; 0x80
    2018:	0109      	lsls	r1, r1, #4
    201a:	468c      	mov	ip, r1
    201c:	4462      	add	r2, ip
			if (config->differential_mode &&
    201e:	492a      	ldr	r1, [pc, #168]	; (20c8 <STACK_SIZE+0xc8>)
				return STATUS_ERR_INVALID_ARG;
    2020:	2017      	movs	r0, #23
			if (config->differential_mode &&
    2022:	428a      	cmp	r2, r1
    2024:	d900      	bls.n	2028 <STACK_SIZE+0x28>
    2026:	e654      	b.n	1cd2 <adc_init+0x26>
					config->window.window_lower_value < -2048 ||
    2028:	6a32      	ldr	r2, [r6, #32]
    202a:	4462      	add	r2, ip
    202c:	4926      	ldr	r1, [pc, #152]	; (20c8 <STACK_SIZE+0xc8>)
    202e:	428a      	cmp	r2, r1
    2030:	d900      	bls.n	2034 <STACK_SIZE+0x34>
    2032:	e64e      	b.n	1cd2 <adc_init+0x26>
			} else if (config->window.window_lower_value > 4095 ||
    2034:	4a24      	ldr	r2, [pc, #144]	; (20c8 <STACK_SIZE+0xc8>)
				return STATUS_ERR_INVALID_ARG;
    2036:	2017      	movs	r0, #23
			} else if (config->window.window_lower_value > 4095 ||
    2038:	69f1      	ldr	r1, [r6, #28]
    203a:	4291      	cmp	r1, r2
    203c:	dd00      	ble.n	2040 <STACK_SIZE+0x40>
    203e:	e648      	b.n	1cd2 <adc_init+0x26>
    2040:	6a31      	ldr	r1, [r6, #32]
    2042:	4291      	cmp	r1, r2
    2044:	dd00      	ble.n	2048 <STACK_SIZE+0x48>
    2046:	e644      	b.n	1cd2 <adc_init+0x26>
    2048:	e761      	b.n	1f0e <adc_init+0x262>
			if (config->differential_mode &&
    204a:	7cf2      	ldrb	r2, [r6, #19]
    204c:	2a00      	cmp	r2, #0
    204e:	d00f      	beq.n	2070 <STACK_SIZE+0x70>
					(config->window.window_lower_value > 511 ||
    2050:	69f2      	ldr	r2, [r6, #28]
    2052:	2180      	movs	r1, #128	; 0x80
    2054:	0089      	lsls	r1, r1, #2
    2056:	468c      	mov	ip, r1
    2058:	4462      	add	r2, ip
			if (config->differential_mode &&
    205a:	491c      	ldr	r1, [pc, #112]	; (20cc <STACK_SIZE+0xcc>)
				return STATUS_ERR_INVALID_ARG;
    205c:	2017      	movs	r0, #23
			if (config->differential_mode &&
    205e:	428a      	cmp	r2, r1
    2060:	d900      	bls.n	2064 <STACK_SIZE+0x64>
    2062:	e636      	b.n	1cd2 <adc_init+0x26>
					config->window.window_lower_value < -512 ||
    2064:	6a32      	ldr	r2, [r6, #32]
    2066:	4462      	add	r2, ip
    2068:	4918      	ldr	r1, [pc, #96]	; (20cc <STACK_SIZE+0xcc>)
    206a:	428a      	cmp	r2, r1
    206c:	d900      	bls.n	2070 <STACK_SIZE+0x70>
    206e:	e630      	b.n	1cd2 <adc_init+0x26>
			} else if (config->window.window_lower_value > 1023 ||
    2070:	4a16      	ldr	r2, [pc, #88]	; (20cc <STACK_SIZE+0xcc>)
				return STATUS_ERR_INVALID_ARG;
    2072:	2017      	movs	r0, #23
			} else if (config->window.window_lower_value > 1023 ||
    2074:	69f1      	ldr	r1, [r6, #28]
    2076:	4291      	cmp	r1, r2
    2078:	dd00      	ble.n	207c <STACK_SIZE+0x7c>
    207a:	e62a      	b.n	1cd2 <adc_init+0x26>
    207c:	6a31      	ldr	r1, [r6, #32]
    207e:	4291      	cmp	r1, r2
    2080:	dd00      	ble.n	2084 <STACK_SIZE+0x84>
    2082:	e626      	b.n	1cd2 <adc_init+0x26>
    2084:	e743      	b.n	1f0e <adc_init+0x262>
			if (config->differential_mode &&
    2086:	7cf2      	ldrb	r2, [r6, #19]
    2088:	2a00      	cmp	r2, #0
    208a:	d00f      	beq.n	20ac <STACK_SIZE+0xac>
					(config->window.window_lower_value > 32767 ||
    208c:	69f2      	ldr	r2, [r6, #28]
    208e:	2180      	movs	r1, #128	; 0x80
    2090:	0209      	lsls	r1, r1, #8
    2092:	468c      	mov	ip, r1
    2094:	4462      	add	r2, ip
			if (config->differential_mode &&
    2096:	490e      	ldr	r1, [pc, #56]	; (20d0 <STACK_SIZE+0xd0>)
				return STATUS_ERR_INVALID_ARG;
    2098:	2017      	movs	r0, #23
			if (config->differential_mode &&
    209a:	428a      	cmp	r2, r1
    209c:	d900      	bls.n	20a0 <STACK_SIZE+0xa0>
    209e:	e618      	b.n	1cd2 <adc_init+0x26>
					config->window.window_lower_value < -32768 ||
    20a0:	6a32      	ldr	r2, [r6, #32]
    20a2:	4462      	add	r2, ip
    20a4:	490a      	ldr	r1, [pc, #40]	; (20d0 <STACK_SIZE+0xd0>)
    20a6:	428a      	cmp	r2, r1
    20a8:	d900      	bls.n	20ac <STACK_SIZE+0xac>
    20aa:	e612      	b.n	1cd2 <adc_init+0x26>
			} else if (config->window.window_lower_value > 65535 ||
    20ac:	4a08      	ldr	r2, [pc, #32]	; (20d0 <STACK_SIZE+0xd0>)
				return STATUS_ERR_INVALID_ARG;
    20ae:	2017      	movs	r0, #23
			} else if (config->window.window_lower_value > 65535 ||
    20b0:	69f1      	ldr	r1, [r6, #28]
    20b2:	4291      	cmp	r1, r2
    20b4:	dd00      	ble.n	20b8 <STACK_SIZE+0xb8>
    20b6:	e60c      	b.n	1cd2 <adc_init+0x26>
    20b8:	6a31      	ldr	r1, [r6, #32]
    20ba:	4291      	cmp	r1, r2
    20bc:	dd00      	ble.n	20c0 <STACK_SIZE+0xc0>
    20be:	e608      	b.n	1cd2 <adc_init+0x26>
    20c0:	e725      	b.n	1f0e <adc_init+0x262>
		return STATUS_ERR_INVALID_ARG;
    20c2:	2017      	movs	r0, #23
    20c4:	e605      	b.n	1cd2 <adc_init+0x26>
    20c6:	46c0      	nop			; (mov r8, r8)
    20c8:	00000fff 	.word	0x00000fff
    20cc:	000003ff 	.word	0x000003ff
    20d0:	0000ffff 	.word	0x0000ffff

000020d4 <ADC_Handler>:
	}
}

/** Interrupt handler for the ADC module. */
void ADC_Handler(void)
{
    20d4:	b570      	push	{r4, r5, r6, lr}
	struct adc_module *module = _adc_instances[instance];
    20d6:	4b2e      	ldr	r3, [pc, #184]	; (2190 <ADC_Handler+0xbc>)
    20d8:	681c      	ldr	r4, [r3, #0]
	uint32_t flags = module->hw->INTFLAG.reg;
    20da:	6823      	ldr	r3, [r4, #0]
    20dc:	7e1d      	ldrb	r5, [r3, #24]
    20de:	b2ed      	uxtb	r5, r5
	if (flags & ADC_INTFLAG_RESRDY) {
    20e0:	07ea      	lsls	r2, r5, #31
    20e2:	d505      	bpl.n	20f0 <ADC_Handler+0x1c>
		if ((module->enabled_callback_mask & (1 << ADC_CALLBACK_READ_BUFFER)) &&
    20e4:	7ee2      	ldrb	r2, [r4, #27]
    20e6:	07d2      	lsls	r2, r2, #31
    20e8:	d502      	bpl.n	20f0 <ADC_Handler+0x1c>
    20ea:	7ea2      	ldrb	r2, [r4, #26]
    20ec:	07d2      	lsls	r2, r2, #31
    20ee:	d416      	bmi.n	211e <ADC_Handler+0x4a>
	if (flags & ADC_INTFLAG_WINMON) {
    20f0:	076b      	lsls	r3, r5, #29
    20f2:	d508      	bpl.n	2106 <ADC_Handler+0x32>
		module->hw->INTFLAG.reg = ADC_INTFLAG_WINMON;
    20f4:	2304      	movs	r3, #4
    20f6:	6822      	ldr	r2, [r4, #0]
    20f8:	7613      	strb	r3, [r2, #24]
		if ((module->enabled_callback_mask & (1 << ADC_CALLBACK_WINDOW)) &&
    20fa:	7ee3      	ldrb	r3, [r4, #27]
    20fc:	079b      	lsls	r3, r3, #30
    20fe:	d502      	bpl.n	2106 <ADC_Handler+0x32>
    2100:	7ea3      	ldrb	r3, [r4, #26]
    2102:	079b      	lsls	r3, r3, #30
    2104:	d43c      	bmi.n	2180 <ADC_Handler+0xac>
	if (flags & ADC_INTFLAG_OVERRUN) {
    2106:	07ab      	lsls	r3, r5, #30
    2108:	d508      	bpl.n	211c <ADC_Handler+0x48>
		module->hw->INTFLAG.reg = ADC_INTFLAG_OVERRUN;
    210a:	2302      	movs	r3, #2
    210c:	6822      	ldr	r2, [r4, #0]
    210e:	7613      	strb	r3, [r2, #24]
		if ((module->enabled_callback_mask & (1 << ADC_CALLBACK_ERROR)) &&
    2110:	7ee3      	ldrb	r3, [r4, #27]
    2112:	075b      	lsls	r3, r3, #29
    2114:	d502      	bpl.n	211c <ADC_Handler+0x48>
    2116:	7ea3      	ldrb	r3, [r4, #26]
    2118:	075b      	lsls	r3, r3, #29
    211a:	d435      	bmi.n	2188 <ADC_Handler+0xb4>
	_adc_interrupt_handler(0);
}
    211c:	bd70      	pop	{r4, r5, r6, pc}
			module->hw->INTFLAG.reg = ADC_INTFLAG_RESRDY;
    211e:	2201      	movs	r2, #1
    2120:	761a      	strb	r2, [r3, #24]
	Adc *const adc_module = module_inst->hw;
    2122:	6822      	ldr	r2, [r4, #0]
	if (adc_module->STATUS.reg & ADC_STATUS_SYNCBUSY) {
    2124:	7e53      	ldrb	r3, [r2, #25]
			while (adc_is_syncing(module)) {
    2126:	b25b      	sxtb	r3, r3
    2128:	2b00      	cmp	r3, #0
    212a:	dbfb      	blt.n	2124 <ADC_Handler+0x50>
			*(module->job_buffer++) = module->hw->RESULT.reg;
    212c:	6961      	ldr	r1, [r4, #20]
    212e:	1c8b      	adds	r3, r1, #2
    2130:	6163      	str	r3, [r4, #20]
    2132:	8b53      	ldrh	r3, [r2, #26]
    2134:	b29b      	uxth	r3, r3
    2136:	800b      	strh	r3, [r1, #0]
			if (--module->remaining_conversions > 0) {
    2138:	8b23      	ldrh	r3, [r4, #24]
    213a:	3b01      	subs	r3, #1
    213c:	b29b      	uxth	r3, r3
    213e:	8323      	strh	r3, [r4, #24]
    2140:	2b00      	cmp	r3, #0
    2142:	d011      	beq.n	2168 <ADC_Handler+0x94>
				if (module->software_trigger == true) {
    2144:	7f63      	ldrb	r3, [r4, #29]
    2146:	2b00      	cmp	r3, #0
    2148:	d0d2      	beq.n	20f0 <ADC_Handler+0x1c>
		struct adc_module *const module_inst)
{
	Assert(module_inst);
	Assert(module_inst->hw);

	Adc *const adc_module = module_inst->hw;
    214a:	6822      	ldr	r2, [r4, #0]
    214c:	7e53      	ldrb	r3, [r2, #25]

	while (adc_is_syncing(module_inst)) {
    214e:	b25b      	sxtb	r3, r3
    2150:	2b00      	cmp	r3, #0
    2152:	dbfb      	blt.n	214c <ADC_Handler+0x78>
		/* Wait for synchronization */
	}

	adc_module->SWTRIG.reg |= ADC_SWTRIG_START;
    2154:	7b13      	ldrb	r3, [r2, #12]
    2156:	2102      	movs	r1, #2
    2158:	430b      	orrs	r3, r1
    215a:	7313      	strb	r3, [r2, #12]
	Adc *const adc_module = module_inst->hw;
    215c:	6822      	ldr	r2, [r4, #0]
	if (adc_module->STATUS.reg & ADC_STATUS_SYNCBUSY) {
    215e:	7e53      	ldrb	r3, [r2, #25]

	while (adc_is_syncing(module_inst)) {
    2160:	b25b      	sxtb	r3, r3
    2162:	2b00      	cmp	r3, #0
    2164:	dbfb      	blt.n	215e <ADC_Handler+0x8a>
    2166:	e7c3      	b.n	20f0 <ADC_Handler+0x1c>
				if (module->job_status == STATUS_BUSY) {
    2168:	7f23      	ldrb	r3, [r4, #28]
    216a:	2b05      	cmp	r3, #5
    216c:	d1c0      	bne.n	20f0 <ADC_Handler+0x1c>
					module->job_status = STATUS_OK;
    216e:	2300      	movs	r3, #0
    2170:	7723      	strb	r3, [r4, #28]
	Assert(module_inst);
	Assert(module_inst->hw);

	Adc *const adc_module = module_inst->hw;
	/* Enable interrupt */
	adc_module->INTENCLR.reg = interrupt;
    2172:	3301      	adds	r3, #1
    2174:	6822      	ldr	r2, [r4, #0]
    2176:	7593      	strb	r3, [r2, #22]
					(module->callback[ADC_CALLBACK_READ_BUFFER])(module);
    2178:	0020      	movs	r0, r4
    217a:	68a3      	ldr	r3, [r4, #8]
    217c:	4798      	blx	r3
    217e:	e7b7      	b.n	20f0 <ADC_Handler+0x1c>
			(module->callback[ADC_CALLBACK_WINDOW])(module);
    2180:	0020      	movs	r0, r4
    2182:	68e3      	ldr	r3, [r4, #12]
    2184:	4798      	blx	r3
    2186:	e7be      	b.n	2106 <ADC_Handler+0x32>
			(module->callback[ADC_CALLBACK_ERROR])(module);
    2188:	6923      	ldr	r3, [r4, #16]
    218a:	0020      	movs	r0, r4
    218c:	4798      	blx	r3
}
    218e:	e7c5      	b.n	211c <ADC_Handler+0x48>
    2190:	20000f88 	.word	0x20000f88

00002194 <long_division>:
/**
 * \internal Calculate 64 bit division, ref can be found in
 * http://en.wikipedia.org/wiki/Division_algorithm#Long_division
 */
static uint64_t long_division(uint64_t n, uint64_t d)
{
    2194:	b5f0      	push	{r4, r5, r6, r7, lr}
    2196:	46de      	mov	lr, fp
    2198:	4657      	mov	r7, sl
    219a:	464e      	mov	r6, r9
    219c:	4645      	mov	r5, r8
    219e:	b5e0      	push	{r5, r6, r7, lr}
    21a0:	b087      	sub	sp, #28
    21a2:	4680      	mov	r8, r0
    21a4:	9104      	str	r1, [sp, #16]
    21a6:	0016      	movs	r6, r2
    21a8:	001f      	movs	r7, r3
	int32_t i;
	uint64_t q = 0, r = 0, bit_shift;
    21aa:	2200      	movs	r2, #0
    21ac:	2300      	movs	r3, #0
    21ae:	2100      	movs	r1, #0
    21b0:	468b      	mov	fp, r1
	for (i = 63; i >= 0; i--) {
    21b2:	243f      	movs	r4, #63	; 0x3f
		bit_shift = (uint64_t)1 << i;
    21b4:	2001      	movs	r0, #1
    21b6:	0021      	movs	r1, r4
    21b8:	9600      	str	r6, [sp, #0]
    21ba:	9701      	str	r7, [sp, #4]
    21bc:	465c      	mov	r4, fp
    21be:	9403      	str	r4, [sp, #12]
    21c0:	4644      	mov	r4, r8
    21c2:	9405      	str	r4, [sp, #20]
    21c4:	e013      	b.n	21ee <long_division+0x5a>
    21c6:	2420      	movs	r4, #32
    21c8:	1a64      	subs	r4, r4, r1
    21ca:	0005      	movs	r5, r0
    21cc:	40e5      	lsrs	r5, r4
    21ce:	46a8      	mov	r8, r5
    21d0:	e014      	b.n	21fc <long_division+0x68>
		if (n & bit_shift) {
			r |= 0x01;
		}

		if (r >= d) {
			r = r - d;
    21d2:	9c00      	ldr	r4, [sp, #0]
    21d4:	9d01      	ldr	r5, [sp, #4]
    21d6:	1b12      	subs	r2, r2, r4
    21d8:	41ab      	sbcs	r3, r5
			q |= bit_shift;
    21da:	465c      	mov	r4, fp
    21dc:	464d      	mov	r5, r9
    21de:	432c      	orrs	r4, r5
    21e0:	46a3      	mov	fp, r4
    21e2:	9c03      	ldr	r4, [sp, #12]
    21e4:	4645      	mov	r5, r8
    21e6:	432c      	orrs	r4, r5
    21e8:	9403      	str	r4, [sp, #12]
	for (i = 63; i >= 0; i--) {
    21ea:	3901      	subs	r1, #1
    21ec:	d325      	bcc.n	223a <long_division+0xa6>
		bit_shift = (uint64_t)1 << i;
    21ee:	2420      	movs	r4, #32
    21f0:	4264      	negs	r4, r4
    21f2:	190c      	adds	r4, r1, r4
    21f4:	d4e7      	bmi.n	21c6 <long_division+0x32>
    21f6:	0005      	movs	r5, r0
    21f8:	40a5      	lsls	r5, r4
    21fa:	46a8      	mov	r8, r5
    21fc:	0004      	movs	r4, r0
    21fe:	408c      	lsls	r4, r1
    2200:	46a1      	mov	r9, r4
		r = r << 1;
    2202:	1892      	adds	r2, r2, r2
    2204:	415b      	adcs	r3, r3
    2206:	0014      	movs	r4, r2
    2208:	001d      	movs	r5, r3
		if (n & bit_shift) {
    220a:	9e05      	ldr	r6, [sp, #20]
    220c:	464f      	mov	r7, r9
    220e:	403e      	ands	r6, r7
    2210:	46b4      	mov	ip, r6
    2212:	9e04      	ldr	r6, [sp, #16]
    2214:	4647      	mov	r7, r8
    2216:	403e      	ands	r6, r7
    2218:	46b2      	mov	sl, r6
    221a:	4666      	mov	r6, ip
    221c:	4657      	mov	r7, sl
    221e:	433e      	orrs	r6, r7
    2220:	d003      	beq.n	222a <long_division+0x96>
			r |= 0x01;
    2222:	0006      	movs	r6, r0
    2224:	4326      	orrs	r6, r4
    2226:	0032      	movs	r2, r6
    2228:	002b      	movs	r3, r5
		if (r >= d) {
    222a:	9c00      	ldr	r4, [sp, #0]
    222c:	9d01      	ldr	r5, [sp, #4]
    222e:	429d      	cmp	r5, r3
    2230:	d8db      	bhi.n	21ea <long_division+0x56>
    2232:	d1ce      	bne.n	21d2 <long_division+0x3e>
    2234:	4294      	cmp	r4, r2
    2236:	d8d8      	bhi.n	21ea <long_division+0x56>
    2238:	e7cb      	b.n	21d2 <long_division+0x3e>
    223a:	9b03      	ldr	r3, [sp, #12]
		}
	}

	return q;
}
    223c:	4658      	mov	r0, fp
    223e:	0019      	movs	r1, r3
    2240:	b007      	add	sp, #28
    2242:	bc3c      	pop	{r2, r3, r4, r5}
    2244:	4690      	mov	r8, r2
    2246:	4699      	mov	r9, r3
    2248:	46a2      	mov	sl, r4
    224a:	46ab      	mov	fp, r5
    224c:	bdf0      	pop	{r4, r5, r6, r7, pc}

0000224e <_sercom_get_sync_baud_val>:
 */
enum status_code _sercom_get_sync_baud_val(
		const uint32_t baudrate,
		const uint32_t external_clock,
		uint16_t *const baudvalue)
{
    224e:	b510      	push	{r4, lr}
	uint16_t baud_calculated = 0;
	uint32_t clock_value = external_clock;


	/* Check if baudrate is outside of valid range */
	if (baudrate > (external_clock / 2)) {
    2250:	0849      	lsrs	r1, r1, #1
		/* Return with error code */
		return STATUS_ERR_BAUDRATE_UNAVAILABLE;
    2252:	2340      	movs	r3, #64	; 0x40
    2254:	2400      	movs	r4, #0
	if (baudrate > (external_clock / 2)) {
    2256:	4281      	cmp	r1, r0
    2258:	d202      	bcs.n	2260 <_sercom_get_sync_baud_val+0x12>
		return STATUS_ERR_BAUDRATE_UNAVAILABLE;
	} else {
		*baudvalue = baud_calculated;
		return STATUS_OK;
	}
}
    225a:	0018      	movs	r0, r3
    225c:	bd10      	pop	{r4, pc}
		baud_calculated++;
    225e:	001c      	movs	r4, r3
		clock_value = clock_value - baudrate;
    2260:	1a09      	subs	r1, r1, r0
		baud_calculated++;
    2262:	1c63      	adds	r3, r4, #1
    2264:	b29b      	uxth	r3, r3
	while (clock_value >= baudrate) {
    2266:	4288      	cmp	r0, r1
    2268:	d9f9      	bls.n	225e <_sercom_get_sync_baud_val+0x10>
		return STATUS_ERR_BAUDRATE_UNAVAILABLE;
    226a:	2340      	movs	r3, #64	; 0x40
	if (baud_calculated > 0xFF) {
    226c:	2cff      	cmp	r4, #255	; 0xff
    226e:	d8f4      	bhi.n	225a <_sercom_get_sync_baud_val+0xc>
		*baudvalue = baud_calculated;
    2270:	8014      	strh	r4, [r2, #0]
		return STATUS_OK;
    2272:	2300      	movs	r3, #0
    2274:	e7f1      	b.n	225a <_sercom_get_sync_baud_val+0xc>
	...

00002278 <_sercom_get_async_baud_val>:
		const uint32_t baudrate,
		const uint32_t peripheral_clock,
		uint16_t *const baudval,
		enum sercom_asynchronous_operation_mode mode,
		enum sercom_asynchronous_sample_num sample_num)
{
    2278:	b5f0      	push	{r4, r5, r6, r7, lr}
    227a:	b083      	sub	sp, #12
    227c:	000f      	movs	r7, r1
    227e:	0016      	movs	r6, r2
    2280:	aa08      	add	r2, sp, #32
    2282:	7811      	ldrb	r1, [r2, #0]
	uint8_t baud_fp;
	uint32_t baud_int = 0;
	uint64_t temp1;

	/* Check if the baudrate is outside of valid range */
	if ((baudrate * sample_num) > peripheral_clock) {
    2284:	0004      	movs	r4, r0
    2286:	434c      	muls	r4, r1
		/* Return with error code */
		return STATUS_ERR_BAUDRATE_UNAVAILABLE;
    2288:	2240      	movs	r2, #64	; 0x40
	if ((baudrate * sample_num) > peripheral_clock) {
    228a:	42bc      	cmp	r4, r7
    228c:	d902      	bls.n	2294 <_sercom_get_async_baud_val+0x1c>
		baud_calculated = baud_int | (baud_fp << 13);
	}

	*baudval = baud_calculated;
	return STATUS_OK;
}
    228e:	0010      	movs	r0, r2
    2290:	b003      	add	sp, #12
    2292:	bdf0      	pop	{r4, r5, r6, r7, pc}
	if(mode == SERCOM_ASYNC_OPERATION_MODE_ARITHMETIC) {
    2294:	2b00      	cmp	r3, #0
    2296:	d114      	bne.n	22c2 <_sercom_get_async_baud_val+0x4a>
		temp1 = ((sample_num * (uint64_t)baudrate) << SHIFT);
    2298:	0002      	movs	r2, r0
    229a:	0008      	movs	r0, r1
    229c:	2100      	movs	r1, #0
    229e:	4c19      	ldr	r4, [pc, #100]	; (2304 <_sercom_get_async_baud_val+0x8c>)
    22a0:	47a0      	blx	r4
    22a2:	0001      	movs	r1, r0
		ratio = long_division(temp1, peripheral_clock);
    22a4:	003a      	movs	r2, r7
    22a6:	2300      	movs	r3, #0
    22a8:	2000      	movs	r0, #0
    22aa:	4c17      	ldr	r4, [pc, #92]	; (2308 <_sercom_get_async_baud_val+0x90>)
    22ac:	47a0      	blx	r4
		scale = ((uint64_t)1 << SHIFT) - ratio;
    22ae:	2200      	movs	r2, #0
    22b0:	2301      	movs	r3, #1
    22b2:	1a12      	subs	r2, r2, r0
    22b4:	418b      	sbcs	r3, r1
		baud_calculated = (65536 * scale) >> SHIFT;
    22b6:	0c12      	lsrs	r2, r2, #16
    22b8:	041b      	lsls	r3, r3, #16
    22ba:	431a      	orrs	r2, r3
	*baudval = baud_calculated;
    22bc:	8032      	strh	r2, [r6, #0]
	return STATUS_OK;
    22be:	2200      	movs	r2, #0
    22c0:	e7e5      	b.n	228e <_sercom_get_async_baud_val+0x16>
	uint64_t baud_calculated = 0;
    22c2:	2200      	movs	r2, #0
	} else if(mode == SERCOM_ASYNC_OPERATION_MODE_FRACTIONAL) {
    22c4:	2b01      	cmp	r3, #1
    22c6:	d1f9      	bne.n	22bc <_sercom_get_async_baud_val+0x44>
		temp1 = ((uint64_t)baudrate * sample_num);
    22c8:	000a      	movs	r2, r1
    22ca:	2300      	movs	r3, #0
    22cc:	2100      	movs	r1, #0
    22ce:	4c0d      	ldr	r4, [pc, #52]	; (2304 <_sercom_get_async_baud_val+0x8c>)
    22d0:	47a0      	blx	r4
    22d2:	0002      	movs	r2, r0
    22d4:	000b      	movs	r3, r1
    22d6:	9200      	str	r2, [sp, #0]
    22d8:	9301      	str	r3, [sp, #4]
		baud_int = long_division( peripheral_clock, temp1);
    22da:	0038      	movs	r0, r7
    22dc:	2100      	movs	r1, #0
    22de:	4c0a      	ldr	r4, [pc, #40]	; (2308 <_sercom_get_async_baud_val+0x90>)
    22e0:	47a0      	blx	r4
    22e2:	0005      	movs	r5, r0
		if(baud_int > BAUD_INT_MAX) {
    22e4:	2380      	movs	r3, #128	; 0x80
    22e6:	019b      	lsls	r3, r3, #6
				return STATUS_ERR_BAUDRATE_UNAVAILABLE;
    22e8:	2240      	movs	r2, #64	; 0x40
		if(baud_int > BAUD_INT_MAX) {
    22ea:	4298      	cmp	r0, r3
    22ec:	d8cf      	bhi.n	228e <_sercom_get_async_baud_val+0x16>
		temp1 = long_division( 8 * (uint64_t)peripheral_clock, temp1);
    22ee:	0f79      	lsrs	r1, r7, #29
    22f0:	00f8      	lsls	r0, r7, #3
    22f2:	9a00      	ldr	r2, [sp, #0]
    22f4:	9b01      	ldr	r3, [sp, #4]
    22f6:	47a0      	blx	r4
		baud_fp = temp1 - 8 * baud_int;
    22f8:	00ea      	lsls	r2, r5, #3
    22fa:	1a82      	subs	r2, r0, r2
		baud_calculated = baud_int | (baud_fp << 13);
    22fc:	b2d2      	uxtb	r2, r2
    22fe:	0352      	lsls	r2, r2, #13
    2300:	432a      	orrs	r2, r5
    2302:	e7db      	b.n	22bc <_sercom_get_async_baud_val+0x44>
    2304:	00003e0d 	.word	0x00003e0d
    2308:	00002195 	.word	0x00002195

0000230c <sercom_set_gclk_generator>:
 *                                         forced.
 */
enum status_code sercom_set_gclk_generator(
		const enum gclk_generator generator_source,
		const bool force_change)
{
    230c:	b510      	push	{r4, lr}
    230e:	b082      	sub	sp, #8
    2310:	0004      	movs	r4, r0
	/* Check if valid option */
	if (!_sercom_config.generator_is_set || force_change) {
    2312:	4b0e      	ldr	r3, [pc, #56]	; (234c <sercom_set_gclk_generator+0x40>)
    2314:	781b      	ldrb	r3, [r3, #0]
    2316:	2b00      	cmp	r3, #0
    2318:	d007      	beq.n	232a <sercom_set_gclk_generator+0x1e>
    231a:	2900      	cmp	r1, #0
    231c:	d105      	bne.n	232a <sercom_set_gclk_generator+0x1e>
		/* Save config */
		_sercom_config.generator_source = generator_source;
		_sercom_config.generator_is_set = true;

		return STATUS_OK;
	} else if (generator_source == _sercom_config.generator_source) {
    231e:	4b0b      	ldr	r3, [pc, #44]	; (234c <sercom_set_gclk_generator+0x40>)
    2320:	785b      	ldrb	r3, [r3, #1]
    2322:	4283      	cmp	r3, r0
    2324:	d010      	beq.n	2348 <sercom_set_gclk_generator+0x3c>
		/* Return status OK if same config */
		return STATUS_OK;
	}

	/* Return invalid config to already initialized GCLK */
	return STATUS_ERR_ALREADY_INITIALIZED;
    2326:	201d      	movs	r0, #29
    2328:	e00c      	b.n	2344 <sercom_set_gclk_generator+0x38>
		gclk_chan_conf.source_generator = generator_source;
    232a:	a901      	add	r1, sp, #4
    232c:	700c      	strb	r4, [r1, #0]
		system_gclk_chan_set_config(SERCOM_GCLK_ID, &gclk_chan_conf);
    232e:	2013      	movs	r0, #19
    2330:	4b07      	ldr	r3, [pc, #28]	; (2350 <sercom_set_gclk_generator+0x44>)
    2332:	4798      	blx	r3
		system_gclk_chan_enable(SERCOM_GCLK_ID);
    2334:	2013      	movs	r0, #19
    2336:	4b07      	ldr	r3, [pc, #28]	; (2354 <sercom_set_gclk_generator+0x48>)
    2338:	4798      	blx	r3
		_sercom_config.generator_source = generator_source;
    233a:	4b04      	ldr	r3, [pc, #16]	; (234c <sercom_set_gclk_generator+0x40>)
    233c:	705c      	strb	r4, [r3, #1]
		_sercom_config.generator_is_set = true;
    233e:	2201      	movs	r2, #1
    2340:	701a      	strb	r2, [r3, #0]
		return STATUS_OK;
    2342:	2000      	movs	r0, #0
}
    2344:	b002      	add	sp, #8
    2346:	bd10      	pop	{r4, pc}
		return STATUS_OK;
    2348:	2000      	movs	r0, #0
    234a:	e7fb      	b.n	2344 <sercom_set_gclk_generator+0x38>
    234c:	2000012c 	.word	0x2000012c
    2350:	00003a11 	.word	0x00003a11
    2354:	00003985 	.word	0x00003985

00002358 <_sercom_get_default_pad>:
 */
uint32_t _sercom_get_default_pad(
		Sercom *const sercom_module,
		const uint8_t pad)
{
	switch ((uintptr_t)sercom_module) {
    2358:	4b40      	ldr	r3, [pc, #256]	; (245c <_sercom_get_default_pad+0x104>)
    235a:	4298      	cmp	r0, r3
    235c:	d031      	beq.n	23c2 <_sercom_get_default_pad+0x6a>
    235e:	d90a      	bls.n	2376 <_sercom_get_default_pad+0x1e>
    2360:	4b3f      	ldr	r3, [pc, #252]	; (2460 <_sercom_get_default_pad+0x108>)
    2362:	4298      	cmp	r0, r3
    2364:	d04d      	beq.n	2402 <_sercom_get_default_pad+0xaa>
    2366:	4b3f      	ldr	r3, [pc, #252]	; (2464 <_sercom_get_default_pad+0x10c>)
    2368:	4298      	cmp	r0, r3
    236a:	d05a      	beq.n	2422 <_sercom_get_default_pad+0xca>
    236c:	4b3e      	ldr	r3, [pc, #248]	; (2468 <_sercom_get_default_pad+0x110>)
    236e:	4298      	cmp	r0, r3
    2370:	d037      	beq.n	23e2 <_sercom_get_default_pad+0x8a>
		/* Auto-generate a lookup table for the default SERCOM pad defaults */
		MREPEAT(SERCOM_INST_NUM, _SERCOM_PAD_DEFAULTS_CASE, pad)
	}

	Assert(false);
	return 0;
    2372:	2000      	movs	r0, #0
}
    2374:	4770      	bx	lr
	switch ((uintptr_t)sercom_module) {
    2376:	4b3d      	ldr	r3, [pc, #244]	; (246c <_sercom_get_default_pad+0x114>)
    2378:	4298      	cmp	r0, r3
    237a:	d00c      	beq.n	2396 <_sercom_get_default_pad+0x3e>
    237c:	4b3c      	ldr	r3, [pc, #240]	; (2470 <_sercom_get_default_pad+0x118>)
    237e:	4298      	cmp	r0, r3
    2380:	d1f7      	bne.n	2372 <_sercom_get_default_pad+0x1a>
		MREPEAT(SERCOM_INST_NUM, _SERCOM_PAD_DEFAULTS_CASE, pad)
    2382:	2901      	cmp	r1, #1
    2384:	d017      	beq.n	23b6 <_sercom_get_default_pad+0x5e>
    2386:	2900      	cmp	r1, #0
    2388:	d05d      	beq.n	2446 <_sercom_get_default_pad+0xee>
    238a:	2902      	cmp	r1, #2
    238c:	d015      	beq.n	23ba <_sercom_get_default_pad+0x62>
    238e:	2903      	cmp	r1, #3
    2390:	d015      	beq.n	23be <_sercom_get_default_pad+0x66>
	return 0;
    2392:	2000      	movs	r0, #0
    2394:	e7ee      	b.n	2374 <_sercom_get_default_pad+0x1c>
		MREPEAT(SERCOM_INST_NUM, _SERCOM_PAD_DEFAULTS_CASE, pad)
    2396:	2901      	cmp	r1, #1
    2398:	d007      	beq.n	23aa <_sercom_get_default_pad+0x52>
    239a:	2900      	cmp	r1, #0
    239c:	d051      	beq.n	2442 <_sercom_get_default_pad+0xea>
    239e:	2902      	cmp	r1, #2
    23a0:	d005      	beq.n	23ae <_sercom_get_default_pad+0x56>
    23a2:	2903      	cmp	r1, #3
    23a4:	d005      	beq.n	23b2 <_sercom_get_default_pad+0x5a>
	return 0;
    23a6:	2000      	movs	r0, #0
    23a8:	e7e4      	b.n	2374 <_sercom_get_default_pad+0x1c>
		MREPEAT(SERCOM_INST_NUM, _SERCOM_PAD_DEFAULTS_CASE, pad)
    23aa:	4832      	ldr	r0, [pc, #200]	; (2474 <_sercom_get_default_pad+0x11c>)
    23ac:	e7e2      	b.n	2374 <_sercom_get_default_pad+0x1c>
    23ae:	4832      	ldr	r0, [pc, #200]	; (2478 <_sercom_get_default_pad+0x120>)
    23b0:	e7e0      	b.n	2374 <_sercom_get_default_pad+0x1c>
    23b2:	4832      	ldr	r0, [pc, #200]	; (247c <_sercom_get_default_pad+0x124>)
    23b4:	e7de      	b.n	2374 <_sercom_get_default_pad+0x1c>
    23b6:	4832      	ldr	r0, [pc, #200]	; (2480 <_sercom_get_default_pad+0x128>)
    23b8:	e7dc      	b.n	2374 <_sercom_get_default_pad+0x1c>
    23ba:	4832      	ldr	r0, [pc, #200]	; (2484 <_sercom_get_default_pad+0x12c>)
    23bc:	e7da      	b.n	2374 <_sercom_get_default_pad+0x1c>
    23be:	4832      	ldr	r0, [pc, #200]	; (2488 <_sercom_get_default_pad+0x130>)
    23c0:	e7d8      	b.n	2374 <_sercom_get_default_pad+0x1c>
    23c2:	2901      	cmp	r1, #1
    23c4:	d007      	beq.n	23d6 <_sercom_get_default_pad+0x7e>
    23c6:	2900      	cmp	r1, #0
    23c8:	d03f      	beq.n	244a <_sercom_get_default_pad+0xf2>
    23ca:	2902      	cmp	r1, #2
    23cc:	d005      	beq.n	23da <_sercom_get_default_pad+0x82>
    23ce:	2903      	cmp	r1, #3
    23d0:	d005      	beq.n	23de <_sercom_get_default_pad+0x86>
	return 0;
    23d2:	2000      	movs	r0, #0
    23d4:	e7ce      	b.n	2374 <_sercom_get_default_pad+0x1c>
		MREPEAT(SERCOM_INST_NUM, _SERCOM_PAD_DEFAULTS_CASE, pad)
    23d6:	482d      	ldr	r0, [pc, #180]	; (248c <_sercom_get_default_pad+0x134>)
    23d8:	e7cc      	b.n	2374 <_sercom_get_default_pad+0x1c>
    23da:	482d      	ldr	r0, [pc, #180]	; (2490 <_sercom_get_default_pad+0x138>)
    23dc:	e7ca      	b.n	2374 <_sercom_get_default_pad+0x1c>
    23de:	482d      	ldr	r0, [pc, #180]	; (2494 <_sercom_get_default_pad+0x13c>)
    23e0:	e7c8      	b.n	2374 <_sercom_get_default_pad+0x1c>
    23e2:	2901      	cmp	r1, #1
    23e4:	d007      	beq.n	23f6 <_sercom_get_default_pad+0x9e>
    23e6:	2900      	cmp	r1, #0
    23e8:	d031      	beq.n	244e <_sercom_get_default_pad+0xf6>
    23ea:	2902      	cmp	r1, #2
    23ec:	d005      	beq.n	23fa <_sercom_get_default_pad+0xa2>
    23ee:	2903      	cmp	r1, #3
    23f0:	d005      	beq.n	23fe <_sercom_get_default_pad+0xa6>
	return 0;
    23f2:	2000      	movs	r0, #0
    23f4:	e7be      	b.n	2374 <_sercom_get_default_pad+0x1c>
		MREPEAT(SERCOM_INST_NUM, _SERCOM_PAD_DEFAULTS_CASE, pad)
    23f6:	4828      	ldr	r0, [pc, #160]	; (2498 <_sercom_get_default_pad+0x140>)
    23f8:	e7bc      	b.n	2374 <_sercom_get_default_pad+0x1c>
    23fa:	4828      	ldr	r0, [pc, #160]	; (249c <_sercom_get_default_pad+0x144>)
    23fc:	e7ba      	b.n	2374 <_sercom_get_default_pad+0x1c>
    23fe:	4828      	ldr	r0, [pc, #160]	; (24a0 <_sercom_get_default_pad+0x148>)
    2400:	e7b8      	b.n	2374 <_sercom_get_default_pad+0x1c>
    2402:	2901      	cmp	r1, #1
    2404:	d007      	beq.n	2416 <_sercom_get_default_pad+0xbe>
    2406:	2900      	cmp	r1, #0
    2408:	d023      	beq.n	2452 <_sercom_get_default_pad+0xfa>
    240a:	2902      	cmp	r1, #2
    240c:	d005      	beq.n	241a <_sercom_get_default_pad+0xc2>
    240e:	2903      	cmp	r1, #3
    2410:	d005      	beq.n	241e <_sercom_get_default_pad+0xc6>
	return 0;
    2412:	2000      	movs	r0, #0
    2414:	e7ae      	b.n	2374 <_sercom_get_default_pad+0x1c>
		MREPEAT(SERCOM_INST_NUM, _SERCOM_PAD_DEFAULTS_CASE, pad)
    2416:	4823      	ldr	r0, [pc, #140]	; (24a4 <_sercom_get_default_pad+0x14c>)
    2418:	e7ac      	b.n	2374 <_sercom_get_default_pad+0x1c>
    241a:	4823      	ldr	r0, [pc, #140]	; (24a8 <_sercom_get_default_pad+0x150>)
    241c:	e7aa      	b.n	2374 <_sercom_get_default_pad+0x1c>
    241e:	4823      	ldr	r0, [pc, #140]	; (24ac <_sercom_get_default_pad+0x154>)
    2420:	e7a8      	b.n	2374 <_sercom_get_default_pad+0x1c>
    2422:	2901      	cmp	r1, #1
    2424:	d007      	beq.n	2436 <_sercom_get_default_pad+0xde>
    2426:	2900      	cmp	r1, #0
    2428:	d015      	beq.n	2456 <_sercom_get_default_pad+0xfe>
    242a:	2902      	cmp	r1, #2
    242c:	d005      	beq.n	243a <_sercom_get_default_pad+0xe2>
    242e:	2903      	cmp	r1, #3
    2430:	d005      	beq.n	243e <_sercom_get_default_pad+0xe6>
	return 0;
    2432:	2000      	movs	r0, #0
    2434:	e79e      	b.n	2374 <_sercom_get_default_pad+0x1c>
		MREPEAT(SERCOM_INST_NUM, _SERCOM_PAD_DEFAULTS_CASE, pad)
    2436:	481e      	ldr	r0, [pc, #120]	; (24b0 <_sercom_get_default_pad+0x158>)
    2438:	e79c      	b.n	2374 <_sercom_get_default_pad+0x1c>
    243a:	481e      	ldr	r0, [pc, #120]	; (24b4 <_sercom_get_default_pad+0x15c>)
    243c:	e79a      	b.n	2374 <_sercom_get_default_pad+0x1c>
    243e:	481e      	ldr	r0, [pc, #120]	; (24b8 <_sercom_get_default_pad+0x160>)
    2440:	e798      	b.n	2374 <_sercom_get_default_pad+0x1c>
    2442:	481e      	ldr	r0, [pc, #120]	; (24bc <_sercom_get_default_pad+0x164>)
    2444:	e796      	b.n	2374 <_sercom_get_default_pad+0x1c>
    2446:	2003      	movs	r0, #3
    2448:	e794      	b.n	2374 <_sercom_get_default_pad+0x1c>
    244a:	481d      	ldr	r0, [pc, #116]	; (24c0 <_sercom_get_default_pad+0x168>)
    244c:	e792      	b.n	2374 <_sercom_get_default_pad+0x1c>
    244e:	481d      	ldr	r0, [pc, #116]	; (24c4 <_sercom_get_default_pad+0x16c>)
    2450:	e790      	b.n	2374 <_sercom_get_default_pad+0x1c>
    2452:	481d      	ldr	r0, [pc, #116]	; (24c8 <_sercom_get_default_pad+0x170>)
    2454:	e78e      	b.n	2374 <_sercom_get_default_pad+0x1c>
    2456:	481d      	ldr	r0, [pc, #116]	; (24cc <_sercom_get_default_pad+0x174>)
    2458:	e78c      	b.n	2374 <_sercom_get_default_pad+0x1c>
    245a:	46c0      	nop			; (mov r8, r8)
    245c:	42001000 	.word	0x42001000
    2460:	42001800 	.word	0x42001800
    2464:	42001c00 	.word	0x42001c00
    2468:	42001400 	.word	0x42001400
    246c:	42000800 	.word	0x42000800
    2470:	42000c00 	.word	0x42000c00
    2474:	00050003 	.word	0x00050003
    2478:	00060003 	.word	0x00060003
    247c:	00070003 	.word	0x00070003
    2480:	00010003 	.word	0x00010003
    2484:	001e0003 	.word	0x001e0003
    2488:	001f0003 	.word	0x001f0003
    248c:	00090003 	.word	0x00090003
    2490:	000a0003 	.word	0x000a0003
    2494:	000b0003 	.word	0x000b0003
    2498:	00110003 	.word	0x00110003
    249c:	00120003 	.word	0x00120003
    24a0:	00130003 	.word	0x00130003
    24a4:	000d0003 	.word	0x000d0003
    24a8:	000e0003 	.word	0x000e0003
    24ac:	000f0003 	.word	0x000f0003
    24b0:	00170003 	.word	0x00170003
    24b4:	00180003 	.word	0x00180003
    24b8:	00190003 	.word	0x00190003
    24bc:	00040003 	.word	0x00040003
    24c0:	00080003 	.word	0x00080003
    24c4:	00100003 	.word	0x00100003
    24c8:	000c0003 	.word	0x000c0003
    24cc:	00160003 	.word	0x00160003

000024d0 <_sercom_get_sercom_inst_index>:
 *
 * \return Index of given instance.
 */
uint8_t _sercom_get_sercom_inst_index(
		Sercom *const sercom_instance)
{
    24d0:	b530      	push	{r4, r5, lr}
    24d2:	b087      	sub	sp, #28
	/* Save all available SERCOM instances for compare */
	Sercom *sercom_instances[SERCOM_INST_NUM] = SERCOM_INSTS;
    24d4:	4b0b      	ldr	r3, [pc, #44]	; (2504 <_sercom_get_sercom_inst_index+0x34>)
    24d6:	466a      	mov	r2, sp
    24d8:	cb32      	ldmia	r3!, {r1, r4, r5}
    24da:	c232      	stmia	r2!, {r1, r4, r5}
    24dc:	cb32      	ldmia	r3!, {r1, r4, r5}
    24de:	c232      	stmia	r2!, {r1, r4, r5}

	/* Find index for sercom instance */
	for (uint32_t i = 0; i < SERCOM_INST_NUM; i++) {
		if ((uintptr_t)sercom_instance == (uintptr_t)sercom_instances[i]) {
    24e0:	9b00      	ldr	r3, [sp, #0]
    24e2:	4283      	cmp	r3, r0
    24e4:	d00b      	beq.n	24fe <_sercom_get_sercom_inst_index+0x2e>
    24e6:	2301      	movs	r3, #1
    24e8:	009a      	lsls	r2, r3, #2
    24ea:	4669      	mov	r1, sp
    24ec:	5852      	ldr	r2, [r2, r1]
    24ee:	4282      	cmp	r2, r0
    24f0:	d006      	beq.n	2500 <_sercom_get_sercom_inst_index+0x30>
	for (uint32_t i = 0; i < SERCOM_INST_NUM; i++) {
    24f2:	3301      	adds	r3, #1
    24f4:	2b06      	cmp	r3, #6
    24f6:	d1f7      	bne.n	24e8 <_sercom_get_sercom_inst_index+0x18>
		}
	}

	/* Invalid data given */
	Assert(false);
	return 0;
    24f8:	2000      	movs	r0, #0
}
    24fa:	b007      	add	sp, #28
    24fc:	bd30      	pop	{r4, r5, pc}
	for (uint32_t i = 0; i < SERCOM_INST_NUM; i++) {
    24fe:	2300      	movs	r3, #0
			return i;
    2500:	b2d8      	uxtb	r0, r3
    2502:	e7fa      	b.n	24fa <_sercom_get_sercom_inst_index+0x2a>
    2504:	00005a40 	.word	0x00005a40

00002508 <_sercom_default_handler>:
 */
static void _sercom_default_handler(
		const uint8_t instance)
{
	Assert(false);
}
    2508:	4770      	bx	lr
	...

0000250c <_sercom_set_handler>:
 * \param[in]  interrupt_handler  Pointer to instance callback handler.
 */
void _sercom_set_handler(
		const uint8_t instance,
		const sercom_handler_t interrupt_handler)
{
    250c:	b5f0      	push	{r4, r5, r6, r7, lr}
	/* Initialize handlers with default handler and device instances with 0 */
	if (_handler_table_initialized == false) {
    250e:	4b0a      	ldr	r3, [pc, #40]	; (2538 <_sercom_set_handler+0x2c>)
    2510:	781b      	ldrb	r3, [r3, #0]
    2512:	2b00      	cmp	r3, #0
    2514:	d10c      	bne.n	2530 <_sercom_set_handler+0x24>
		for (uint32_t i = 0; i < SERCOM_INST_NUM; i++) {
			_sercom_interrupt_handlers[i] = &_sercom_default_handler;
    2516:	4f09      	ldr	r7, [pc, #36]	; (253c <_sercom_set_handler+0x30>)
    2518:	4e09      	ldr	r6, [pc, #36]	; (2540 <_sercom_set_handler+0x34>)
			_sercom_instances[i] = NULL;
    251a:	4d0a      	ldr	r5, [pc, #40]	; (2544 <_sercom_set_handler+0x38>)
    251c:	2400      	movs	r4, #0
			_sercom_interrupt_handlers[i] = &_sercom_default_handler;
    251e:	51de      	str	r6, [r3, r7]
			_sercom_instances[i] = NULL;
    2520:	195a      	adds	r2, r3, r5
    2522:	6014      	str	r4, [r2, #0]
    2524:	3304      	adds	r3, #4
		for (uint32_t i = 0; i < SERCOM_INST_NUM; i++) {
    2526:	2b18      	cmp	r3, #24
    2528:	d1f9      	bne.n	251e <_sercom_set_handler+0x12>
		}

		_handler_table_initialized = true;
    252a:	2201      	movs	r2, #1
    252c:	4b02      	ldr	r3, [pc, #8]	; (2538 <_sercom_set_handler+0x2c>)
    252e:	701a      	strb	r2, [r3, #0]
	}

	/* Save interrupt handler */
	_sercom_interrupt_handlers[instance] = interrupt_handler;
    2530:	0080      	lsls	r0, r0, #2
    2532:	4b02      	ldr	r3, [pc, #8]	; (253c <_sercom_set_handler+0x30>)
    2534:	50c1      	str	r1, [r0, r3]
}
    2536:	bdf0      	pop	{r4, r5, r6, r7, pc}
    2538:	2000012e 	.word	0x2000012e
    253c:	20000130 	.word	0x20000130
    2540:	00002509 	.word	0x00002509
    2544:	20000f8c 	.word	0x20000f8c

00002548 <_sercom_get_interrupt_vector>:
 * \retval SYSTEM_INTERRUPT_MODULE_SERCOM6
 * \retval SYSTEM_INTERRUPT_MODULE_SERCOM7
 */
enum system_interrupt_vector _sercom_get_interrupt_vector(
		Sercom *const sercom_instance)
{
    2548:	b500      	push	{lr}
    254a:	b083      	sub	sp, #12
	const uint8_t sercom_int_vectors[SERCOM_INST_NUM] =
    254c:	2309      	movs	r3, #9
    254e:	466a      	mov	r2, sp
    2550:	7013      	strb	r3, [r2, #0]
    2552:	3301      	adds	r3, #1
    2554:	7053      	strb	r3, [r2, #1]
    2556:	3301      	adds	r3, #1
    2558:	7093      	strb	r3, [r2, #2]
    255a:	3301      	adds	r3, #1
    255c:	70d3      	strb	r3, [r2, #3]
    255e:	3301      	adds	r3, #1
    2560:	7113      	strb	r3, [r2, #4]
    2562:	3301      	adds	r3, #1
    2564:	7153      	strb	r3, [r2, #5]
		{
			MREPEAT(SERCOM_INST_NUM, _SERCOM_INTERRUPT_VECT_NUM, ~)
		};

	/* Retrieve the index of the SERCOM being requested */
	uint8_t instance_index = _sercom_get_sercom_inst_index(sercom_instance);
    2566:	4b03      	ldr	r3, [pc, #12]	; (2574 <_sercom_get_interrupt_vector+0x2c>)
    2568:	4798      	blx	r3

	/* Get the vector number from the lookup table for the requested SERCOM */
	return (enum system_interrupt_vector)sercom_int_vectors[instance_index];
    256a:	466b      	mov	r3, sp
    256c:	5618      	ldrsb	r0, [r3, r0]
}
    256e:	b003      	add	sp, #12
    2570:	bd00      	pop	{pc}
    2572:	46c0      	nop			; (mov r8, r8)
    2574:	000024d1 	.word	0x000024d1

00002578 <SERCOM0_Handler>:

/** Auto-generate a set of interrupt handlers for each SERCOM in the device */
MREPEAT(SERCOM_INST_NUM, _SERCOM_INTERRUPT_HANDLER, ~)
    2578:	b510      	push	{r4, lr}
    257a:	4b02      	ldr	r3, [pc, #8]	; (2584 <SERCOM0_Handler+0xc>)
    257c:	681b      	ldr	r3, [r3, #0]
    257e:	2000      	movs	r0, #0
    2580:	4798      	blx	r3
    2582:	bd10      	pop	{r4, pc}
    2584:	20000130 	.word	0x20000130

00002588 <SERCOM1_Handler>:
    2588:	b510      	push	{r4, lr}
    258a:	4b02      	ldr	r3, [pc, #8]	; (2594 <SERCOM1_Handler+0xc>)
    258c:	685b      	ldr	r3, [r3, #4]
    258e:	2001      	movs	r0, #1
    2590:	4798      	blx	r3
    2592:	bd10      	pop	{r4, pc}
    2594:	20000130 	.word	0x20000130

00002598 <SERCOM2_Handler>:
    2598:	b510      	push	{r4, lr}
    259a:	4b02      	ldr	r3, [pc, #8]	; (25a4 <SERCOM2_Handler+0xc>)
    259c:	689b      	ldr	r3, [r3, #8]
    259e:	2002      	movs	r0, #2
    25a0:	4798      	blx	r3
    25a2:	bd10      	pop	{r4, pc}
    25a4:	20000130 	.word	0x20000130

000025a8 <SERCOM3_Handler>:
    25a8:	b510      	push	{r4, lr}
    25aa:	4b02      	ldr	r3, [pc, #8]	; (25b4 <SERCOM3_Handler+0xc>)
    25ac:	68db      	ldr	r3, [r3, #12]
    25ae:	2003      	movs	r0, #3
    25b0:	4798      	blx	r3
    25b2:	bd10      	pop	{r4, pc}
    25b4:	20000130 	.word	0x20000130

000025b8 <SERCOM4_Handler>:
    25b8:	b510      	push	{r4, lr}
    25ba:	4b02      	ldr	r3, [pc, #8]	; (25c4 <SERCOM4_Handler+0xc>)
    25bc:	691b      	ldr	r3, [r3, #16]
    25be:	2004      	movs	r0, #4
    25c0:	4798      	blx	r3
    25c2:	bd10      	pop	{r4, pc}
    25c4:	20000130 	.word	0x20000130

000025c8 <SERCOM5_Handler>:
    25c8:	b510      	push	{r4, lr}
    25ca:	4b02      	ldr	r3, [pc, #8]	; (25d4 <SERCOM5_Handler+0xc>)
    25cc:	695b      	ldr	r3, [r3, #20]
    25ce:	2005      	movs	r0, #5
    25d0:	4798      	blx	r3
    25d2:	bd10      	pop	{r4, pc}
    25d4:	20000130 	.word	0x20000130

000025d8 <usart_init>:
 */
enum status_code usart_init(
		struct usart_module *const module,
		Sercom *const hw,
		const struct usart_config *const config)
{
    25d8:	b5f0      	push	{r4, r5, r6, r7, lr}
    25da:	46de      	mov	lr, fp
    25dc:	4657      	mov	r7, sl
    25de:	464e      	mov	r6, r9
    25e0:	4645      	mov	r5, r8
    25e2:	b5e0      	push	{r5, r6, r7, lr}
    25e4:	b091      	sub	sp, #68	; 0x44
    25e6:	0005      	movs	r5, r0
    25e8:	000c      	movs	r4, r1
    25ea:	0016      	movs	r6, r2
	Assert(config);

	enum status_code status_code = STATUS_OK;

	/* Assign module pointer to software instance struct */
	module->hw = hw;
    25ec:	6029      	str	r1, [r5, #0]

	/* Get a pointer to the hardware module instance */
	SercomUsart *const usart_hw = &(module->hw->USART);

	uint32_t sercom_index = _sercom_get_sercom_inst_index(module->hw);
    25ee:	0008      	movs	r0, r1
    25f0:	4bbc      	ldr	r3, [pc, #752]	; (28e4 <usart_init+0x30c>)
    25f2:	4798      	blx	r3
    25f4:	0002      	movs	r2, r0
#else
	pm_index     = sercom_index + PM_APBCMASK_SERCOM0_Pos;
	gclk_index   = sercom_index + SERCOM0_GCLK_ID_CORE;
#endif

	if (usart_hw->CTRLA.reg & SERCOM_USART_CTRLA_SWRST) {
    25f6:	6823      	ldr	r3, [r4, #0]
		/* The module is busy resetting itself */
		return STATUS_BUSY;
    25f8:	2005      	movs	r0, #5
	if (usart_hw->CTRLA.reg & SERCOM_USART_CTRLA_SWRST) {
    25fa:	07db      	lsls	r3, r3, #31
    25fc:	d506      	bpl.n	260c <usart_init+0x34>
	_sercom_set_handler(instance_index, _usart_interrupt_handler);
	_sercom_instances[instance_index] = module;
#endif

	return status_code;
}
    25fe:	b011      	add	sp, #68	; 0x44
    2600:	bc3c      	pop	{r2, r3, r4, r5}
    2602:	4690      	mov	r8, r2
    2604:	4699      	mov	r9, r3
    2606:	46a2      	mov	sl, r4
    2608:	46ab      	mov	fp, r5
    260a:	bdf0      	pop	{r4, r5, r6, r7, pc}
	if (usart_hw->CTRLA.reg & SERCOM_USART_CTRLA_ENABLE) {
    260c:	6823      	ldr	r3, [r4, #0]
		return STATUS_ERR_DENIED;
    260e:	3017      	adds	r0, #23
	if (usart_hw->CTRLA.reg & SERCOM_USART_CTRLA_ENABLE) {
    2610:	079b      	lsls	r3, r3, #30
    2612:	d4f4      	bmi.n	25fe <usart_init+0x26>
    2614:	49b4      	ldr	r1, [pc, #720]	; (28e8 <usart_init+0x310>)
    2616:	6a08      	ldr	r0, [r1, #32]
	pm_index     = sercom_index + PM_APBCMASK_SERCOM0_Pos;
    2618:	1c97      	adds	r7, r2, #2
	system_apb_clock_set_mask(SYSTEM_CLOCK_APB_APBC, 1 << pm_index);
    261a:	2301      	movs	r3, #1
    261c:	40bb      	lsls	r3, r7
    261e:	4303      	orrs	r3, r0
    2620:	620b      	str	r3, [r1, #32]
	gclk_chan_conf.source_generator = config->generator_source;
    2622:	a90f      	add	r1, sp, #60	; 0x3c
    2624:	272d      	movs	r7, #45	; 0x2d
    2626:	5df3      	ldrb	r3, [r6, r7]
    2628:	700b      	strb	r3, [r1, #0]
	gclk_index   = sercom_index + SERCOM0_GCLK_ID_CORE;
    262a:	3214      	adds	r2, #20
	system_gclk_chan_set_config(gclk_index, &gclk_chan_conf);
    262c:	b2d3      	uxtb	r3, r2
    262e:	9302      	str	r3, [sp, #8]
    2630:	0018      	movs	r0, r3
    2632:	4bae      	ldr	r3, [pc, #696]	; (28ec <usart_init+0x314>)
    2634:	4798      	blx	r3
	system_gclk_chan_enable(gclk_index);
    2636:	9802      	ldr	r0, [sp, #8]
    2638:	4bad      	ldr	r3, [pc, #692]	; (28f0 <usart_init+0x318>)
    263a:	4798      	blx	r3
	sercom_set_gclk_generator(config->generator_source, false);
    263c:	5df0      	ldrb	r0, [r6, r7]
    263e:	2100      	movs	r1, #0
    2640:	4bac      	ldr	r3, [pc, #688]	; (28f4 <usart_init+0x31c>)
    2642:	4798      	blx	r3
	module->character_size = config->character_size;
    2644:	7af3      	ldrb	r3, [r6, #11]
    2646:	716b      	strb	r3, [r5, #5]
	module->receiver_enabled = config->receiver_enable;
    2648:	2324      	movs	r3, #36	; 0x24
    264a:	5cf3      	ldrb	r3, [r6, r3]
    264c:	71ab      	strb	r3, [r5, #6]
	module->transmitter_enabled = config->transmitter_enable;
    264e:	2325      	movs	r3, #37	; 0x25
    2650:	5cf3      	ldrb	r3, [r6, r3]
    2652:	71eb      	strb	r3, [r5, #7]
	module->lin_slave_enabled = config->lin_slave_enable;
    2654:	7ef3      	ldrb	r3, [r6, #27]
    2656:	722b      	strb	r3, [r5, #8]
	module->start_frame_detection_enabled = config->start_frame_detection_enable;
    2658:	7f33      	ldrb	r3, [r6, #28]
    265a:	726b      	strb	r3, [r5, #9]
	SercomUsart *const usart_hw = &(module->hw->USART);
    265c:	682b      	ldr	r3, [r5, #0]
    265e:	4698      	mov	r8, r3
	uint32_t sercom_index = _sercom_get_sercom_inst_index(module->hw);
    2660:	0018      	movs	r0, r3
    2662:	4ba0      	ldr	r3, [pc, #640]	; (28e4 <usart_init+0x30c>)
    2664:	4798      	blx	r3
	uint32_t gclk_index   = sercom_index + SERCOM0_GCLK_ID_CORE;
    2666:	3014      	adds	r0, #20
	uint16_t baud  = 0;
    2668:	2200      	movs	r2, #0
    266a:	230e      	movs	r3, #14
    266c:	a906      	add	r1, sp, #24
    266e:	468c      	mov	ip, r1
    2670:	4463      	add	r3, ip
    2672:	801a      	strh	r2, [r3, #0]
	switch (config->sample_rate) {
    2674:	8a32      	ldrh	r2, [r6, #16]
    2676:	9202      	str	r2, [sp, #8]
    2678:	2380      	movs	r3, #128	; 0x80
    267a:	01db      	lsls	r3, r3, #7
    267c:	429a      	cmp	r2, r3
    267e:	d100      	bne.n	2682 <usart_init+0xaa>
    2680:	e09e      	b.n	27c0 <usart_init+0x1e8>
    2682:	d90f      	bls.n	26a4 <usart_init+0xcc>
    2684:	23c0      	movs	r3, #192	; 0xc0
    2686:	01db      	lsls	r3, r3, #7
    2688:	9a02      	ldr	r2, [sp, #8]
    268a:	429a      	cmp	r2, r3
    268c:	d100      	bne.n	2690 <usart_init+0xb8>
    268e:	e092      	b.n	27b6 <usart_init+0x1de>
    2690:	2380      	movs	r3, #128	; 0x80
    2692:	021b      	lsls	r3, r3, #8
    2694:	429a      	cmp	r2, r3
    2696:	d000      	beq.n	269a <usart_init+0xc2>
    2698:	e11f      	b.n	28da <usart_init+0x302>
			sample_num = SERCOM_ASYNC_SAMPLE_NUM_3;
    269a:	2303      	movs	r3, #3
    269c:	9306      	str	r3, [sp, #24]
			mode = SERCOM_ASYNC_OPERATION_MODE_ARITHMETIC;
    269e:	2300      	movs	r3, #0
    26a0:	9307      	str	r3, [sp, #28]
    26a2:	e008      	b.n	26b6 <usart_init+0xde>
	switch (config->sample_rate) {
    26a4:	2380      	movs	r3, #128	; 0x80
    26a6:	019b      	lsls	r3, r3, #6
    26a8:	429a      	cmp	r2, r3
    26aa:	d000      	beq.n	26ae <usart_init+0xd6>
    26ac:	e115      	b.n	28da <usart_init+0x302>
			sample_num = SERCOM_ASYNC_SAMPLE_NUM_16;
    26ae:	2310      	movs	r3, #16
    26b0:	9306      	str	r3, [sp, #24]
			mode = SERCOM_ASYNC_OPERATION_MODE_FRACTIONAL;
    26b2:	3b0f      	subs	r3, #15
    26b4:	9307      	str	r3, [sp, #28]
	ctrla = (uint32_t)config->data_order |
    26b6:	6833      	ldr	r3, [r6, #0]
    26b8:	9305      	str	r3, [sp, #20]
		(uint32_t)config->mux_setting |
    26ba:	68f3      	ldr	r3, [r6, #12]
    26bc:	9303      	str	r3, [sp, #12]
		config->sample_adjustment |
    26be:	6973      	ldr	r3, [r6, #20]
    26c0:	9304      	str	r3, [sp, #16]
		(config->immediate_buffer_overflow_notification << SERCOM_USART_CTRLA_IBON_Pos) |
    26c2:	7e33      	ldrb	r3, [r6, #24]
    26c4:	469b      	mov	fp, r3
		(config->clock_polarity_inverted << SERCOM_USART_CTRLA_CPOL_Pos);
    26c6:	2326      	movs	r3, #38	; 0x26
    26c8:	5cf3      	ldrb	r3, [r6, r3]
    26ca:	469a      	mov	sl, r3
	transfer_mode = (uint32_t)config->transfer_mode;
    26cc:	6873      	ldr	r3, [r6, #4]
    26ce:	4699      	mov	r9, r3
	switch (transfer_mode)
    26d0:	2b00      	cmp	r3, #0
    26d2:	d100      	bne.n	26d6 <usart_init+0xfe>
    26d4:	e0a0      	b.n	2818 <usart_init+0x240>
    26d6:	2380      	movs	r3, #128	; 0x80
    26d8:	055b      	lsls	r3, r3, #21
    26da:	4599      	cmp	r9, r3
    26dc:	d100      	bne.n	26e0 <usart_init+0x108>
    26de:	e084      	b.n	27ea <usart_init+0x212>
	if(config->encoding_format_enable) {
    26e0:	7e73      	ldrb	r3, [r6, #25]
    26e2:	2b00      	cmp	r3, #0
    26e4:	d002      	beq.n	26ec <usart_init+0x114>
		usart_hw->RXPL.reg = config->receive_pulse_length;
    26e6:	7eb3      	ldrb	r3, [r6, #26]
    26e8:	4642      	mov	r2, r8
    26ea:	7393      	strb	r3, [r2, #14]
{
	/* Sanity check arguments */
	Assert(module);
	Assert(module->hw);

	SercomUsart *const usart_hw = &(module->hw->USART);
    26ec:	682a      	ldr	r2, [r5, #0]
    26ee:	9f02      	ldr	r7, [sp, #8]

#ifdef FEATURE_USART_SYNC_SCHEME_V2
	return (usart_hw->SYNCBUSY.reg);
    26f0:	69d3      	ldr	r3, [r2, #28]
		const struct usart_module *const module)
{
	/* Sanity check */
	Assert(module);

	while (usart_is_syncing(module)) {
    26f2:	2b00      	cmp	r3, #0
    26f4:	d1fc      	bne.n	26f0 <usart_init+0x118>
	usart_hw->BAUD.reg = baud;
    26f6:	330e      	adds	r3, #14
    26f8:	aa06      	add	r2, sp, #24
    26fa:	4694      	mov	ip, r2
    26fc:	4463      	add	r3, ip
    26fe:	881b      	ldrh	r3, [r3, #0]
    2700:	4642      	mov	r2, r8
    2702:	8193      	strh	r3, [r2, #12]
	ctrla |= transfer_mode;
    2704:	9b05      	ldr	r3, [sp, #20]
    2706:	9a03      	ldr	r2, [sp, #12]
    2708:	4313      	orrs	r3, r2
    270a:	9a04      	ldr	r2, [sp, #16]
    270c:	4313      	orrs	r3, r2
    270e:	464a      	mov	r2, r9
    2710:	4313      	orrs	r3, r2
    2712:	431f      	orrs	r7, r3
		(config->immediate_buffer_overflow_notification << SERCOM_USART_CTRLA_IBON_Pos) |
    2714:	465b      	mov	r3, fp
    2716:	021b      	lsls	r3, r3, #8
	ctrla |= transfer_mode;
    2718:	431f      	orrs	r7, r3
		(config->clock_polarity_inverted << SERCOM_USART_CTRLA_CPOL_Pos);
    271a:	4653      	mov	r3, sl
    271c:	075b      	lsls	r3, r3, #29
	ctrla |= transfer_mode;
    271e:	431f      	orrs	r7, r3
	if (config->use_external_clock == false) {
    2720:	2327      	movs	r3, #39	; 0x27
    2722:	5cf3      	ldrb	r3, [r6, r3]
    2724:	2b00      	cmp	r3, #0
    2726:	d101      	bne.n	272c <usart_init+0x154>
		ctrla |= SERCOM_USART_CTRLA_MODE(0x1);
    2728:	3304      	adds	r3, #4
    272a:	431f      	orrs	r7, r3
			(config->encoding_format_enable << SERCOM_USART_CTRLB_ENC_Pos) |
    272c:	7e73      	ldrb	r3, [r6, #25]
    272e:	029b      	lsls	r3, r3, #10
			(config->start_frame_detection_enable << SERCOM_USART_CTRLB_SFDE_Pos) |
    2730:	7f32      	ldrb	r2, [r6, #28]
    2732:	0252      	lsls	r2, r2, #9
			(config->encoding_format_enable << SERCOM_USART_CTRLB_ENC_Pos) |
    2734:	4313      	orrs	r3, r2
			(config->collision_detection_enable << SERCOM_USART_CTRLB_COLDEN_Pos) |
    2736:	7f72      	ldrb	r2, [r6, #29]
    2738:	0212      	lsls	r2, r2, #8
			(config->start_frame_detection_enable << SERCOM_USART_CTRLB_SFDE_Pos) |
    273a:	4313      	orrs	r3, r2
			(config->receiver_enable << SERCOM_USART_CTRLB_RXEN_Pos) |
    273c:	2224      	movs	r2, #36	; 0x24
    273e:	5cb2      	ldrb	r2, [r6, r2]
    2740:	0452      	lsls	r2, r2, #17
			(config->collision_detection_enable << SERCOM_USART_CTRLB_COLDEN_Pos) |
    2742:	4313      	orrs	r3, r2
			(config->transmitter_enable << SERCOM_USART_CTRLB_TXEN_Pos);
    2744:	2225      	movs	r2, #37	; 0x25
    2746:	5cb2      	ldrb	r2, [r6, r2]
    2748:	0412      	lsls	r2, r2, #16
			(config->receiver_enable << SERCOM_USART_CTRLB_RXEN_Pos) |
    274a:	4313      	orrs	r3, r2
	ctrlb |= (uint32_t)config->character_size;
    274c:	7ab1      	ldrb	r1, [r6, #10]
    274e:	7af2      	ldrb	r2, [r6, #11]
    2750:	4311      	orrs	r1, r2
    2752:	4319      	orrs	r1, r3
	if (config->parity != USART_PARITY_NONE) {
    2754:	8933      	ldrh	r3, [r6, #8]
    2756:	2bff      	cmp	r3, #255	; 0xff
    2758:	d100      	bne.n	275c <usart_init+0x184>
    275a:	e081      	b.n	2860 <usart_init+0x288>
		ctrla |= SERCOM_USART_CTRLA_FORM(1);
    275c:	2280      	movs	r2, #128	; 0x80
    275e:	0452      	lsls	r2, r2, #17
    2760:	4317      	orrs	r7, r2
		ctrlb |= config->parity;
    2762:	4319      	orrs	r1, r3
	if (config->run_in_standby || system_is_debugger_present()) {
    2764:	232c      	movs	r3, #44	; 0x2c
    2766:	5cf3      	ldrb	r3, [r6, r3]
    2768:	2b00      	cmp	r3, #0
    276a:	d103      	bne.n	2774 <usart_init+0x19c>
    276c:	4b62      	ldr	r3, [pc, #392]	; (28f8 <usart_init+0x320>)
    276e:	789b      	ldrb	r3, [r3, #2]
    2770:	079b      	lsls	r3, r3, #30
    2772:	d501      	bpl.n	2778 <usart_init+0x1a0>
		ctrla |= SERCOM_USART_CTRLA_RUNSTDBY;
    2774:	2380      	movs	r3, #128	; 0x80
    2776:	431f      	orrs	r7, r3
	SercomUsart *const usart_hw = &(module->hw->USART);
    2778:	682a      	ldr	r2, [r5, #0]
	return (usart_hw->SYNCBUSY.reg);
    277a:	69d3      	ldr	r3, [r2, #28]
	while (usart_is_syncing(module)) {
    277c:	2b00      	cmp	r3, #0
    277e:	d1fc      	bne.n	277a <usart_init+0x1a2>
	usart_hw->CTRLB.reg = ctrlb;
    2780:	4643      	mov	r3, r8
    2782:	6059      	str	r1, [r3, #4]
	SercomUsart *const usart_hw = &(module->hw->USART);
    2784:	682a      	ldr	r2, [r5, #0]
	return (usart_hw->SYNCBUSY.reg);
    2786:	69d3      	ldr	r3, [r2, #28]
	while (usart_is_syncing(module)) {
    2788:	2b00      	cmp	r3, #0
    278a:	d1fc      	bne.n	2786 <usart_init+0x1ae>
	usart_hw->CTRLA.reg = ctrla;
    278c:	4643      	mov	r3, r8
    278e:	601f      	str	r7, [r3, #0]
	config->mux_position = SYSTEM_PINMUX_GPIO;
    2790:	ab0e      	add	r3, sp, #56	; 0x38
    2792:	2280      	movs	r2, #128	; 0x80
    2794:	701a      	strb	r2, [r3, #0]
	config->direction    = SYSTEM_PINMUX_PIN_DIR_INPUT;
    2796:	2200      	movs	r2, #0
    2798:	705a      	strb	r2, [r3, #1]
	config->powersave    = false;
    279a:	70da      	strb	r2, [r3, #3]
	pin_conf.input_pull = SYSTEM_PINMUX_PIN_PULL_NONE;
    279c:	709a      	strb	r2, [r3, #2]
	uint32_t pad_pinmuxes[] = {
    279e:	6b33      	ldr	r3, [r6, #48]	; 0x30
    27a0:	930a      	str	r3, [sp, #40]	; 0x28
    27a2:	6b73      	ldr	r3, [r6, #52]	; 0x34
    27a4:	930b      	str	r3, [sp, #44]	; 0x2c
    27a6:	6bb3      	ldr	r3, [r6, #56]	; 0x38
    27a8:	930c      	str	r3, [sp, #48]	; 0x30
    27aa:	6bf3      	ldr	r3, [r6, #60]	; 0x3c
    27ac:	9302      	str	r3, [sp, #8]
    27ae:	930d      	str	r3, [sp, #52]	; 0x34
    27b0:	2700      	movs	r7, #0
		uint32_t current_pinmux = pad_pinmuxes[pad];
    27b2:	ae0a      	add	r6, sp, #40	; 0x28
    27b4:	e063      	b.n	287e <usart_init+0x2a6>
			sample_num = SERCOM_ASYNC_SAMPLE_NUM_8;
    27b6:	2308      	movs	r3, #8
    27b8:	9306      	str	r3, [sp, #24]
			mode = SERCOM_ASYNC_OPERATION_MODE_FRACTIONAL;
    27ba:	3b07      	subs	r3, #7
    27bc:	9307      	str	r3, [sp, #28]
    27be:	e77a      	b.n	26b6 <usart_init+0xde>
	ctrla = (uint32_t)config->data_order |
    27c0:	6833      	ldr	r3, [r6, #0]
    27c2:	9305      	str	r3, [sp, #20]
		(uint32_t)config->mux_setting |
    27c4:	68f3      	ldr	r3, [r6, #12]
    27c6:	9303      	str	r3, [sp, #12]
		config->sample_adjustment |
    27c8:	6973      	ldr	r3, [r6, #20]
    27ca:	9304      	str	r3, [sp, #16]
		(config->immediate_buffer_overflow_notification << SERCOM_USART_CTRLA_IBON_Pos) |
    27cc:	7e33      	ldrb	r3, [r6, #24]
    27ce:	469b      	mov	fp, r3
		(config->clock_polarity_inverted << SERCOM_USART_CTRLA_CPOL_Pos);
    27d0:	2326      	movs	r3, #38	; 0x26
    27d2:	5cf3      	ldrb	r3, [r6, r3]
    27d4:	469a      	mov	sl, r3
	transfer_mode = (uint32_t)config->transfer_mode;
    27d6:	6873      	ldr	r3, [r6, #4]
    27d8:	4699      	mov	r9, r3
	switch (transfer_mode)
    27da:	2b00      	cmp	r3, #0
    27dc:	d018      	beq.n	2810 <usart_init+0x238>
    27de:	2380      	movs	r3, #128	; 0x80
    27e0:	055b      	lsls	r3, r3, #21
    27e2:	4599      	cmp	r9, r3
    27e4:	d001      	beq.n	27ea <usart_init+0x212>
	enum status_code status_code = STATUS_OK;
    27e6:	2000      	movs	r0, #0
    27e8:	e025      	b.n	2836 <usart_init+0x25e>
			if (!config->use_external_clock) {
    27ea:	2327      	movs	r3, #39	; 0x27
    27ec:	5cf3      	ldrb	r3, [r6, r3]
    27ee:	2b00      	cmp	r3, #0
    27f0:	d000      	beq.n	27f4 <usart_init+0x21c>
    27f2:	e775      	b.n	26e0 <usart_init+0x108>
				status_code = _sercom_get_sync_baud_val(config->baudrate,
    27f4:	6a33      	ldr	r3, [r6, #32]
    27f6:	001f      	movs	r7, r3
    27f8:	b2c0      	uxtb	r0, r0
    27fa:	4b40      	ldr	r3, [pc, #256]	; (28fc <usart_init+0x324>)
    27fc:	4798      	blx	r3
    27fe:	0001      	movs	r1, r0
    2800:	220e      	movs	r2, #14
    2802:	ab06      	add	r3, sp, #24
    2804:	469c      	mov	ip, r3
    2806:	4462      	add	r2, ip
    2808:	0038      	movs	r0, r7
    280a:	4b3d      	ldr	r3, [pc, #244]	; (2900 <usart_init+0x328>)
    280c:	4798      	blx	r3
    280e:	e012      	b.n	2836 <usart_init+0x25e>
			sample_num = SERCOM_ASYNC_SAMPLE_NUM_8;
    2810:	2308      	movs	r3, #8
    2812:	9306      	str	r3, [sp, #24]
			mode = SERCOM_ASYNC_OPERATION_MODE_ARITHMETIC;
    2814:	2300      	movs	r3, #0
    2816:	9307      	str	r3, [sp, #28]
			if (config->use_external_clock) {
    2818:	2327      	movs	r3, #39	; 0x27
    281a:	5cf3      	ldrb	r3, [r6, r3]
    281c:	2b00      	cmp	r3, #0
    281e:	d00e      	beq.n	283e <usart_init+0x266>
				status_code =
    2820:	9b06      	ldr	r3, [sp, #24]
    2822:	9300      	str	r3, [sp, #0]
    2824:	9b07      	ldr	r3, [sp, #28]
    2826:	220e      	movs	r2, #14
    2828:	a906      	add	r1, sp, #24
    282a:	468c      	mov	ip, r1
    282c:	4462      	add	r2, ip
    282e:	6ab1      	ldr	r1, [r6, #40]	; 0x28
    2830:	6a30      	ldr	r0, [r6, #32]
    2832:	4f34      	ldr	r7, [pc, #208]	; (2904 <usart_init+0x32c>)
    2834:	47b8      	blx	r7
	if (status_code != STATUS_OK) {
    2836:	2800      	cmp	r0, #0
    2838:	d000      	beq.n	283c <usart_init+0x264>
    283a:	e6e0      	b.n	25fe <usart_init+0x26>
    283c:	e750      	b.n	26e0 <usart_init+0x108>
						_sercom_get_async_baud_val(config->baudrate,
    283e:	6a33      	ldr	r3, [r6, #32]
    2840:	001f      	movs	r7, r3
    2842:	b2c0      	uxtb	r0, r0
    2844:	4b2d      	ldr	r3, [pc, #180]	; (28fc <usart_init+0x324>)
    2846:	4798      	blx	r3
    2848:	0001      	movs	r1, r0
				status_code =
    284a:	9b06      	ldr	r3, [sp, #24]
    284c:	9300      	str	r3, [sp, #0]
    284e:	9b07      	ldr	r3, [sp, #28]
    2850:	220e      	movs	r2, #14
    2852:	a806      	add	r0, sp, #24
    2854:	4684      	mov	ip, r0
    2856:	4462      	add	r2, ip
    2858:	0038      	movs	r0, r7
    285a:	4f2a      	ldr	r7, [pc, #168]	; (2904 <usart_init+0x32c>)
    285c:	47b8      	blx	r7
    285e:	e7ea      	b.n	2836 <usart_init+0x25e>
		if(config->lin_slave_enable) {
    2860:	7ef3      	ldrb	r3, [r6, #27]
    2862:	2b00      	cmp	r3, #0
    2864:	d100      	bne.n	2868 <usart_init+0x290>
    2866:	e77d      	b.n	2764 <usart_init+0x18c>
			ctrla |= SERCOM_USART_CTRLA_FORM(0x4);
    2868:	2380      	movs	r3, #128	; 0x80
    286a:	04db      	lsls	r3, r3, #19
    286c:	431f      	orrs	r7, r3
    286e:	e779      	b.n	2764 <usart_init+0x18c>
			current_pinmux = _sercom_get_default_pad(hw, pad);
    2870:	0020      	movs	r0, r4
    2872:	4b25      	ldr	r3, [pc, #148]	; (2908 <usart_init+0x330>)
    2874:	4798      	blx	r3
    2876:	e007      	b.n	2888 <usart_init+0x2b0>
    2878:	3701      	adds	r7, #1
	for (uint8_t pad = 0; pad < 4; pad++) {
    287a:	2f04      	cmp	r7, #4
    287c:	d00d      	beq.n	289a <usart_init+0x2c2>
    287e:	b2f9      	uxtb	r1, r7
		uint32_t current_pinmux = pad_pinmuxes[pad];
    2880:	00bb      	lsls	r3, r7, #2
    2882:	5998      	ldr	r0, [r3, r6]
		if (current_pinmux == PINMUX_DEFAULT) {
    2884:	2800      	cmp	r0, #0
    2886:	d0f3      	beq.n	2870 <usart_init+0x298>
		if (current_pinmux != PINMUX_UNUSED) {
    2888:	1c43      	adds	r3, r0, #1
    288a:	d0f5      	beq.n	2878 <usart_init+0x2a0>
			pin_conf.mux_position = current_pinmux & 0xFFFF;
    288c:	a90e      	add	r1, sp, #56	; 0x38
    288e:	7008      	strb	r0, [r1, #0]
			system_pinmux_pin_set_config(current_pinmux >> 16, &pin_conf);
    2890:	0c00      	lsrs	r0, r0, #16
    2892:	b2c0      	uxtb	r0, r0
    2894:	4b1d      	ldr	r3, [pc, #116]	; (290c <usart_init+0x334>)
    2896:	4798      	blx	r3
    2898:	e7ee      	b.n	2878 <usart_init+0x2a0>
		module->callback[i]            = NULL;
    289a:	2300      	movs	r3, #0
    289c:	60eb      	str	r3, [r5, #12]
    289e:	612b      	str	r3, [r5, #16]
    28a0:	616b      	str	r3, [r5, #20]
    28a2:	61ab      	str	r3, [r5, #24]
    28a4:	61eb      	str	r3, [r5, #28]
    28a6:	622b      	str	r3, [r5, #32]
	module->tx_buffer_ptr              = NULL;
    28a8:	62ab      	str	r3, [r5, #40]	; 0x28
	module->rx_buffer_ptr              = NULL;
    28aa:	626b      	str	r3, [r5, #36]	; 0x24
	module->remaining_tx_buffer_length = 0x0000;
    28ac:	2200      	movs	r2, #0
    28ae:	85eb      	strh	r3, [r5, #46]	; 0x2e
	module->remaining_rx_buffer_length = 0x0000;
    28b0:	85ab      	strh	r3, [r5, #44]	; 0x2c
	module->callback_reg_mask          = 0x00;
    28b2:	3330      	adds	r3, #48	; 0x30
    28b4:	54ea      	strb	r2, [r5, r3]
	module->callback_enable_mask       = 0x00;
    28b6:	3301      	adds	r3, #1
    28b8:	54ea      	strb	r2, [r5, r3]
	module->rx_status                  = STATUS_OK;
    28ba:	3301      	adds	r3, #1
    28bc:	54ea      	strb	r2, [r5, r3]
	module->tx_status                  = STATUS_OK;
    28be:	3301      	adds	r3, #1
    28c0:	54ea      	strb	r2, [r5, r3]
	uint8_t instance_index = _sercom_get_sercom_inst_index(module->hw);
    28c2:	6828      	ldr	r0, [r5, #0]
    28c4:	4b07      	ldr	r3, [pc, #28]	; (28e4 <usart_init+0x30c>)
    28c6:	4798      	blx	r3
    28c8:	0004      	movs	r4, r0
	_sercom_set_handler(instance_index, _usart_interrupt_handler);
    28ca:	4911      	ldr	r1, [pc, #68]	; (2910 <usart_init+0x338>)
    28cc:	4b11      	ldr	r3, [pc, #68]	; (2914 <usart_init+0x33c>)
    28ce:	4798      	blx	r3
	_sercom_instances[instance_index] = module;
    28d0:	00a4      	lsls	r4, r4, #2
    28d2:	4b11      	ldr	r3, [pc, #68]	; (2918 <usart_init+0x340>)
    28d4:	50e5      	str	r5, [r4, r3]
	return status_code;
    28d6:	2000      	movs	r0, #0
    28d8:	e691      	b.n	25fe <usart_init+0x26>
	enum sercom_asynchronous_sample_num sample_num = SERCOM_ASYNC_SAMPLE_NUM_16;
    28da:	2310      	movs	r3, #16
    28dc:	9306      	str	r3, [sp, #24]
	enum sercom_asynchronous_operation_mode mode = SERCOM_ASYNC_OPERATION_MODE_ARITHMETIC;
    28de:	2300      	movs	r3, #0
    28e0:	9307      	str	r3, [sp, #28]
    28e2:	e6e8      	b.n	26b6 <usart_init+0xde>
    28e4:	000024d1 	.word	0x000024d1
    28e8:	40000400 	.word	0x40000400
    28ec:	00003a11 	.word	0x00003a11
    28f0:	00003985 	.word	0x00003985
    28f4:	0000230d 	.word	0x0000230d
    28f8:	41002000 	.word	0x41002000
    28fc:	00003a2d 	.word	0x00003a2d
    2900:	0000224f 	.word	0x0000224f
    2904:	00002279 	.word	0x00002279
    2908:	00002359 	.word	0x00002359
    290c:	00003b09 	.word	0x00003b09
    2910:	00002a91 	.word	0x00002a91
    2914:	0000250d 	.word	0x0000250d
    2918:	20000f8c 	.word	0x20000f8c

0000291c <usart_write_wait>:

	/* Get a pointer to the hardware module instance */
	SercomUsart *const usart_hw = &(module->hw->USART);

	/* Check that the transmitter is enabled */
	if (!(module->transmitter_enabled)) {
    291c:	79c2      	ldrb	r2, [r0, #7]
		return STATUS_ERR_DENIED;
    291e:	231c      	movs	r3, #28
	if (!(module->transmitter_enabled)) {
    2920:	2a00      	cmp	r2, #0
    2922:	d101      	bne.n	2928 <usart_write_wait+0xc>
	while (!(usart_hw->INTFLAG.reg & SERCOM_USART_INTFLAG_TXC)) {
		/* Wait until data is sent */
	}

	return STATUS_OK;
}
    2924:	0018      	movs	r0, r3
    2926:	4770      	bx	lr
	if (module->remaining_tx_buffer_length > 0) {
    2928:	8dc2      	ldrh	r2, [r0, #46]	; 0x2e
    292a:	b292      	uxth	r2, r2
		return STATUS_BUSY;
    292c:	3b17      	subs	r3, #23
	if (module->remaining_tx_buffer_length > 0) {
    292e:	2a00      	cmp	r2, #0
    2930:	d1f8      	bne.n	2924 <usart_write_wait+0x8>
	SercomUsart *const usart_hw = &(module->hw->USART);
    2932:	6803      	ldr	r3, [r0, #0]
	return (usart_hw->SYNCBUSY.reg);
    2934:	69da      	ldr	r2, [r3, #28]
	while (usart_is_syncing(module)) {
    2936:	2a00      	cmp	r2, #0
    2938:	d1fc      	bne.n	2934 <usart_write_wait+0x18>
	usart_hw->DATA.reg = tx_data;
    293a:	8519      	strh	r1, [r3, #40]	; 0x28
	while (!(usart_hw->INTFLAG.reg & SERCOM_USART_INTFLAG_TXC)) {
    293c:	2102      	movs	r1, #2
    293e:	7e1a      	ldrb	r2, [r3, #24]
    2940:	420a      	tst	r2, r1
    2942:	d0fc      	beq.n	293e <usart_write_wait+0x22>
	return STATUS_OK;
    2944:	2300      	movs	r3, #0
    2946:	e7ed      	b.n	2924 <usart_write_wait+0x8>

00002948 <usart_write_buffer_wait>:
 */
enum status_code usart_write_buffer_wait(
		struct usart_module *const module,
		const uint8_t *tx_data,
		uint16_t length)
{
    2948:	b5f0      	push	{r4, r5, r6, r7, lr}
    294a:	46ce      	mov	lr, r9
    294c:	4647      	mov	r7, r8
    294e:	b580      	push	{r7, lr}
    2950:	b083      	sub	sp, #12
    2952:	0005      	movs	r5, r0
    2954:	9101      	str	r1, [sp, #4]
	Assert(module);
	Assert(module->hw);

	/* Check if the buffer length is valid */
	if (length == 0) {
		return STATUS_ERR_INVALID_ARG;
    2956:	2017      	movs	r0, #23
	if (length == 0) {
    2958:	2a00      	cmp	r2, #0
    295a:	d104      	bne.n	2966 <usart_write_buffer_wait+0x1e>
			return STATUS_ERR_TIMEOUT;
		}
	}

	return STATUS_OK;
}
    295c:	b003      	add	sp, #12
    295e:	bc0c      	pop	{r2, r3}
    2960:	4690      	mov	r8, r2
    2962:	4699      	mov	r9, r3
    2964:	bdf0      	pop	{r4, r5, r6, r7, pc}
	if (!(module->transmitter_enabled)) {
    2966:	79eb      	ldrb	r3, [r5, #7]
		return STATUS_ERR_DENIED;
    2968:	3005      	adds	r0, #5
	if (!(module->transmitter_enabled)) {
    296a:	2b00      	cmp	r3, #0
    296c:	d0f6      	beq.n	295c <usart_write_buffer_wait+0x14>
	SercomUsart *const usart_hw = &(module->hw->USART);
    296e:	682c      	ldr	r4, [r5, #0]
	return (usart_hw->SYNCBUSY.reg);
    2970:	69e3      	ldr	r3, [r4, #28]
	while (usart_is_syncing(module)) {
    2972:	2b00      	cmp	r3, #0
    2974:	d1fc      	bne.n	2970 <usart_write_buffer_wait+0x28>
	while (length--) {
    2976:	3a01      	subs	r2, #1
    2978:	b293      	uxth	r3, r2
    297a:	4699      	mov	r9, r3
    297c:	2600      	movs	r6, #0
			if (usart_hw->INTFLAG.reg & SERCOM_USART_INTFLAG_DRE) {
    297e:	2701      	movs	r7, #1
	while (length--) {
    2980:	4b1f      	ldr	r3, [pc, #124]	; (2a00 <usart_write_buffer_wait+0xb8>)
    2982:	4698      	mov	r8, r3
    2984:	e011      	b.n	29aa <usart_write_buffer_wait+0x62>
		uint16_t data_to_send = tx_data[tx_pos++];
    2986:	1c73      	adds	r3, r6, #1
    2988:	b29b      	uxth	r3, r3
    298a:	9a01      	ldr	r2, [sp, #4]
    298c:	5d91      	ldrb	r1, [r2, r6]
		if (module->character_size == USART_CHARACTER_SIZE_9BIT) {
    298e:	796a      	ldrb	r2, [r5, #5]
    2990:	2a01      	cmp	r2, #1
    2992:	d017      	beq.n	29c4 <usart_write_buffer_wait+0x7c>
		uint16_t data_to_send = tx_data[tx_pos++];
    2994:	b289      	uxth	r1, r1
    2996:	001e      	movs	r6, r3
		usart_write_wait(module, data_to_send);
    2998:	0028      	movs	r0, r5
    299a:	4b1a      	ldr	r3, [pc, #104]	; (2a04 <usart_write_buffer_wait+0xbc>)
    299c:	4798      	blx	r3
	while (length--) {
    299e:	464b      	mov	r3, r9
    29a0:	3b01      	subs	r3, #1
    29a2:	b29b      	uxth	r3, r3
    29a4:	4699      	mov	r9, r3
    29a6:	4543      	cmp	r3, r8
    29a8:	d013      	beq.n	29d2 <usart_write_buffer_wait+0x8a>
			if (usart_hw->INTFLAG.reg & SERCOM_USART_INTFLAG_DRE) {
    29aa:	7e23      	ldrb	r3, [r4, #24]
    29ac:	423b      	tst	r3, r7
    29ae:	d1ea      	bne.n	2986 <usart_write_buffer_wait+0x3e>
    29b0:	4b13      	ldr	r3, [pc, #76]	; (2a00 <usart_write_buffer_wait+0xb8>)
    29b2:	7e22      	ldrb	r2, [r4, #24]
    29b4:	423a      	tst	r2, r7
    29b6:	d1e6      	bne.n	2986 <usart_write_buffer_wait+0x3e>
			} else if (i == USART_TIMEOUT) {
    29b8:	2b01      	cmp	r3, #1
    29ba:	d019      	beq.n	29f0 <usart_write_buffer_wait+0xa8>
    29bc:	3b01      	subs	r3, #1
		for (uint32_t i = 0; i <= USART_TIMEOUT; i++) {
    29be:	2b00      	cmp	r3, #0
    29c0:	d1f7      	bne.n	29b2 <usart_write_buffer_wait+0x6a>
    29c2:	e7e0      	b.n	2986 <usart_write_buffer_wait+0x3e>
			data_to_send |= (tx_data[tx_pos++] << 8);
    29c4:	3602      	adds	r6, #2
    29c6:	b2b6      	uxth	r6, r6
    29c8:	9a01      	ldr	r2, [sp, #4]
    29ca:	5cd3      	ldrb	r3, [r2, r3]
    29cc:	021b      	lsls	r3, r3, #8
    29ce:	4319      	orrs	r1, r3
    29d0:	e7e2      	b.n	2998 <usart_write_buffer_wait+0x50>
		if (usart_hw->INTFLAG.reg & SERCOM_USART_INTFLAG_TXC) {
    29d2:	7e23      	ldrb	r3, [r4, #24]
    29d4:	079b      	lsls	r3, r3, #30
    29d6:	d40d      	bmi.n	29f4 <usart_write_buffer_wait+0xac>
    29d8:	4b09      	ldr	r3, [pc, #36]	; (2a00 <usart_write_buffer_wait+0xb8>)
    29da:	2102      	movs	r1, #2
    29dc:	7e22      	ldrb	r2, [r4, #24]
    29de:	420a      	tst	r2, r1
    29e0:	d10a      	bne.n	29f8 <usart_write_buffer_wait+0xb0>
		} else if (i == USART_TIMEOUT) {
    29e2:	2b01      	cmp	r3, #1
    29e4:	d00a      	beq.n	29fc <usart_write_buffer_wait+0xb4>
    29e6:	3b01      	subs	r3, #1
	for (uint32_t i = 0; i <= USART_TIMEOUT; i++) {
    29e8:	2b00      	cmp	r3, #0
    29ea:	d1f7      	bne.n	29dc <usart_write_buffer_wait+0x94>
	return STATUS_OK;
    29ec:	2000      	movs	r0, #0
    29ee:	e7b5      	b.n	295c <usart_write_buffer_wait+0x14>
				return STATUS_ERR_TIMEOUT;
    29f0:	2012      	movs	r0, #18
    29f2:	e7b3      	b.n	295c <usart_write_buffer_wait+0x14>
	return STATUS_OK;
    29f4:	2000      	movs	r0, #0
    29f6:	e7b1      	b.n	295c <usart_write_buffer_wait+0x14>
    29f8:	2000      	movs	r0, #0
    29fa:	e7af      	b.n	295c <usart_write_buffer_wait+0x14>
			return STATUS_ERR_TIMEOUT;
    29fc:	2012      	movs	r0, #18
    29fe:	e7ad      	b.n	295c <usart_write_buffer_wait+0x14>
    2a00:	0000ffff 	.word	0x0000ffff
    2a04:	0000291d 	.word	0x0000291d

00002a08 <_usart_read_buffer>:
 */
enum status_code _usart_read_buffer(
		struct usart_module *const module,
		uint8_t *rx_data,
		uint16_t length)
{
    2a08:	b5f8      	push	{r3, r4, r5, r6, r7, lr}
    2a0a:	0004      	movs	r4, r0
    2a0c:	000d      	movs	r5, r1
    2a0e:	0016      	movs	r6, r2
	Assert(module);
	Assert(module->hw);
	Assert(rx_data);

	/* Get a pointer to the hardware module instance */
	SercomUsart *const usart_hw = &(module->hw->USART);
    2a10:	6807      	ldr	r7, [r0, #0]
	cpu_irq_enter_critical();
    2a12:	4b0f      	ldr	r3, [pc, #60]	; (2a50 <_usart_read_buffer+0x48>)
    2a14:	4798      	blx	r3

	system_interrupt_enter_critical_section();

	/* Check if the USART receiver is busy */
	if (module->remaining_rx_buffer_length > 0) {
    2a16:	8da3      	ldrh	r3, [r4, #44]	; 0x2c
    2a18:	b29b      	uxth	r3, r3
    2a1a:	2b00      	cmp	r3, #0
    2a1c:	d003      	beq.n	2a26 <_usart_read_buffer+0x1e>
	cpu_irq_leave_critical();
    2a1e:	4b0d      	ldr	r3, [pc, #52]	; (2a54 <_usart_read_buffer+0x4c>)
    2a20:	4798      	blx	r3
		system_interrupt_leave_critical_section();
		return STATUS_BUSY;
    2a22:	2005      	movs	r0, #5
		usart_hw->INTENSET.reg = SERCOM_USART_INTFLAG_RXS;
	}
#endif

	return STATUS_OK;
}
    2a24:	bdf8      	pop	{r3, r4, r5, r6, r7, pc}
	module->remaining_rx_buffer_length = length;
    2a26:	85a6      	strh	r6, [r4, #44]	; 0x2c
    2a28:	4b0a      	ldr	r3, [pc, #40]	; (2a54 <_usart_read_buffer+0x4c>)
    2a2a:	4798      	blx	r3
	module->rx_buffer_ptr              = rx_data;
    2a2c:	6265      	str	r5, [r4, #36]	; 0x24
	module->rx_status                  = STATUS_BUSY;
    2a2e:	2205      	movs	r2, #5
    2a30:	2332      	movs	r3, #50	; 0x32
    2a32:	54e2      	strb	r2, [r4, r3]
	usart_hw->INTENSET.reg = SERCOM_USART_INTFLAG_RXC;
    2a34:	3b2e      	subs	r3, #46	; 0x2e
    2a36:	75bb      	strb	r3, [r7, #22]
	if(module->lin_slave_enabled) {
    2a38:	7a23      	ldrb	r3, [r4, #8]
    2a3a:	2b00      	cmp	r3, #0
    2a3c:	d001      	beq.n	2a42 <_usart_read_buffer+0x3a>
		usart_hw->INTENSET.reg = SERCOM_USART_INTFLAG_RXBRK;
    2a3e:	2320      	movs	r3, #32
    2a40:	75bb      	strb	r3, [r7, #22]
	if(module->start_frame_detection_enabled) {
    2a42:	7a63      	ldrb	r3, [r4, #9]
	return STATUS_OK;
    2a44:	2000      	movs	r0, #0
	if(module->start_frame_detection_enabled) {
    2a46:	2b00      	cmp	r3, #0
    2a48:	d0ec      	beq.n	2a24 <_usart_read_buffer+0x1c>
		usart_hw->INTENSET.reg = SERCOM_USART_INTFLAG_RXS;
    2a4a:	2308      	movs	r3, #8
    2a4c:	75bb      	strb	r3, [r7, #22]
    2a4e:	e7e9      	b.n	2a24 <_usart_read_buffer+0x1c>
    2a50:	0000337d 	.word	0x0000337d
    2a54:	000033bd 	.word	0x000033bd

00002a58 <usart_register_callback>:
	/* Sanity check arguments */
	Assert(module);
	Assert(callback_func);

	/* Register callback function */
	module->callback[callback_type] = callback_func;
    2a58:	1c93      	adds	r3, r2, #2
    2a5a:	009b      	lsls	r3, r3, #2
    2a5c:	18c3      	adds	r3, r0, r3
    2a5e:	6059      	str	r1, [r3, #4]

	/* Set the bit corresponding to the callback_type */
	module->callback_reg_mask |= (1 << callback_type);
    2a60:	2130      	movs	r1, #48	; 0x30
    2a62:	2301      	movs	r3, #1
    2a64:	4093      	lsls	r3, r2
    2a66:	001a      	movs	r2, r3
    2a68:	5c43      	ldrb	r3, [r0, r1]
    2a6a:	4313      	orrs	r3, r2
    2a6c:	5443      	strb	r3, [r0, r1]
}
    2a6e:	4770      	bx	lr

00002a70 <usart_read_buffer_job>:
 */
enum status_code usart_read_buffer_job(
		struct usart_module *const module,
		uint8_t *rx_data,
		uint16_t length)
{
    2a70:	b510      	push	{r4, lr}
	/* Sanity check arguments */
	Assert(module);
	Assert(rx_data);

	if (length == 0) {
		return STATUS_ERR_INVALID_ARG;
    2a72:	2317      	movs	r3, #23
	if (length == 0) {
    2a74:	2a00      	cmp	r2, #0
    2a76:	d101      	bne.n	2a7c <usart_read_buffer_job+0xc>
		return STATUS_ERR_DENIED;
	}

	/* Issue internal asynchronous read */
	return _usart_read_buffer(module, rx_data, length);
}
    2a78:	0018      	movs	r0, r3
    2a7a:	bd10      	pop	{r4, pc}
	if (!(module->receiver_enabled)) {
    2a7c:	7984      	ldrb	r4, [r0, #6]
		return STATUS_ERR_DENIED;
    2a7e:	3305      	adds	r3, #5
	if (!(module->receiver_enabled)) {
    2a80:	2c00      	cmp	r4, #0
    2a82:	d0f9      	beq.n	2a78 <usart_read_buffer_job+0x8>
	return _usart_read_buffer(module, rx_data, length);
    2a84:	4b01      	ldr	r3, [pc, #4]	; (2a8c <usart_read_buffer_job+0x1c>)
    2a86:	4798      	blx	r3
    2a88:	0003      	movs	r3, r0
    2a8a:	e7f5      	b.n	2a78 <usart_read_buffer_job+0x8>
    2a8c:	00002a09 	.word	0x00002a09

00002a90 <_usart_interrupt_handler>:
 * \param[in]  instance  ID of the SERCOM instance calling the interrupt
 *                       handler.
 */
void _usart_interrupt_handler(
		uint8_t instance)
{
    2a90:	b5f8      	push	{r3, r4, r5, r6, r7, lr}
	uint16_t callback_status;
	uint8_t error_code;


	/* Get device instance from the look-up table */
	struct usart_module *module
    2a92:	0080      	lsls	r0, r0, #2
    2a94:	4b51      	ldr	r3, [pc, #324]	; (2bdc <_usart_interrupt_handler+0x14c>)
    2a96:	58c6      	ldr	r6, [r0, r3]
		= (struct usart_module *)_sercom_instances[instance];

	/* Pointer to the hardware module instance */
	SercomUsart *const usart_hw
		= &(module->hw->USART);
    2a98:	6834      	ldr	r4, [r6, #0]
	return (usart_hw->SYNCBUSY.reg);
    2a9a:	69e3      	ldr	r3, [r4, #28]
	while (usart_is_syncing(module)) {
    2a9c:	2b00      	cmp	r3, #0
    2a9e:	d1fc      	bne.n	2a9a <_usart_interrupt_handler+0xa>

	/* Wait for the synchronization to complete */
	_usart_wait_for_sync(module);

	/* Read and mask interrupt flag register */
	interrupt_status = usart_hw->INTFLAG.reg;
    2aa0:	7e23      	ldrb	r3, [r4, #24]
	interrupt_status &= usart_hw->INTENSET.reg;
    2aa2:	7da5      	ldrb	r5, [r4, #22]
    2aa4:	401d      	ands	r5, r3
	callback_status = module->callback_reg_mask &
    2aa6:	2330      	movs	r3, #48	; 0x30
    2aa8:	5cf3      	ldrb	r3, [r6, r3]
    2aaa:	2231      	movs	r2, #49	; 0x31
    2aac:	5cb7      	ldrb	r7, [r6, r2]
    2aae:	401f      	ands	r7, r3
			module->callback_enable_mask;

	/* Check if a DATA READY interrupt has occurred,
	 * and if there is more to transfer */
	if (interrupt_status & SERCOM_USART_INTFLAG_DRE) {
    2ab0:	07eb      	lsls	r3, r5, #31
    2ab2:	d522      	bpl.n	2afa <_usart_interrupt_handler+0x6a>
		if (module->remaining_tx_buffer_length) {
    2ab4:	8df3      	ldrh	r3, [r6, #46]	; 0x2e
    2ab6:	b29b      	uxth	r3, r3
    2ab8:	2b00      	cmp	r3, #0
    2aba:	d01c      	beq.n	2af6 <_usart_interrupt_handler+0x66>
			/* Write value will be at least 8-bits long */
			uint16_t data_to_send = *(module->tx_buffer_ptr);
    2abc:	6ab2      	ldr	r2, [r6, #40]	; 0x28
    2abe:	7813      	ldrb	r3, [r2, #0]
    2ac0:	b2db      	uxtb	r3, r3
			/* Increment 8-bit pointer */
			(module->tx_buffer_ptr)++;
    2ac2:	1c51      	adds	r1, r2, #1
    2ac4:	62b1      	str	r1, [r6, #40]	; 0x28

			if (module->character_size == USART_CHARACTER_SIZE_9BIT) {
    2ac6:	7971      	ldrb	r1, [r6, #5]
    2ac8:	2901      	cmp	r1, #1
    2aca:	d00e      	beq.n	2aea <_usart_interrupt_handler+0x5a>
			uint16_t data_to_send = *(module->tx_buffer_ptr);
    2acc:	b29b      	uxth	r3, r3
				data_to_send |= (*(module->tx_buffer_ptr) << 8);
				/* Increment 8-bit pointer */
				(module->tx_buffer_ptr)++;
			}
			/* Write the data to send */
			usart_hw->DATA.reg = (data_to_send & SERCOM_USART_DATA_MASK);
    2ace:	05db      	lsls	r3, r3, #23
    2ad0:	0ddb      	lsrs	r3, r3, #23
    2ad2:	8523      	strh	r3, [r4, #40]	; 0x28

			if (--(module->remaining_tx_buffer_length) == 0) {
    2ad4:	8df3      	ldrh	r3, [r6, #46]	; 0x2e
    2ad6:	3b01      	subs	r3, #1
    2ad8:	b29b      	uxth	r3, r3
    2ada:	85f3      	strh	r3, [r6, #46]	; 0x2e
    2adc:	2b00      	cmp	r3, #0
    2ade:	d10c      	bne.n	2afa <_usart_interrupt_handler+0x6a>
				/* Disable the Data Register Empty Interrupt */
				usart_hw->INTENCLR.reg = SERCOM_USART_INTFLAG_DRE;
    2ae0:	3301      	adds	r3, #1
    2ae2:	7523      	strb	r3, [r4, #20]
				/* Enable Transmission Complete interrupt */
				usart_hw->INTENSET.reg = SERCOM_USART_INTFLAG_TXC;
    2ae4:	3301      	adds	r3, #1
    2ae6:	75a3      	strb	r3, [r4, #22]
    2ae8:	e007      	b.n	2afa <_usart_interrupt_handler+0x6a>
				data_to_send |= (*(module->tx_buffer_ptr) << 8);
    2aea:	7851      	ldrb	r1, [r2, #1]
    2aec:	0209      	lsls	r1, r1, #8
    2aee:	430b      	orrs	r3, r1
				(module->tx_buffer_ptr)++;
    2af0:	3202      	adds	r2, #2
    2af2:	62b2      	str	r2, [r6, #40]	; 0x28
    2af4:	e7eb      	b.n	2ace <_usart_interrupt_handler+0x3e>

			}
		} else {
			usart_hw->INTENCLR.reg = SERCOM_USART_INTFLAG_DRE;
    2af6:	2301      	movs	r3, #1
    2af8:	7523      	strb	r3, [r4, #20]
		}
	}

	/* Check if the Transmission Complete interrupt has occurred and
	 * that the transmit buffer is empty */
	if (interrupt_status & SERCOM_USART_INTFLAG_TXC) {
    2afa:	07ab      	lsls	r3, r5, #30
    2afc:	d506      	bpl.n	2b0c <_usart_interrupt_handler+0x7c>

		/* Disable TX Complete Interrupt, and set STATUS_OK */
		usart_hw->INTENCLR.reg = SERCOM_USART_INTFLAG_TXC;
    2afe:	2302      	movs	r3, #2
    2b00:	7523      	strb	r3, [r4, #20]
		module->tx_status = STATUS_OK;
    2b02:	2200      	movs	r2, #0
    2b04:	3331      	adds	r3, #49	; 0x31
    2b06:	54f2      	strb	r2, [r6, r3]

		/* Run callback if registered and enabled */
		if (callback_status & (1 << USART_CALLBACK_BUFFER_TRANSMITTED)) {
    2b08:	07fb      	lsls	r3, r7, #31
    2b0a:	d428      	bmi.n	2b5e <_usart_interrupt_handler+0xce>
		}
	}

	/* Check if the Receive Complete interrupt has occurred, and that
	 * there's more data to receive */
	if (interrupt_status & SERCOM_USART_INTFLAG_RXC) {
    2b0c:	076b      	lsls	r3, r5, #29
    2b0e:	d510      	bpl.n	2b32 <_usart_interrupt_handler+0xa2>

		//if (module->remaining_rx_buffer_length) {
			/* Read out the status code and mask away all but the 4 LSBs*/
			error_code = (uint8_t)(usart_hw->STATUS.reg & SERCOM_USART_STATUS_MASK);
    2b10:	8b63      	ldrh	r3, [r4, #26]
    2b12:	b2db      	uxtb	r3, r3
#if !SAMD20
			/* CTS status should not be considered as an error */
			if(error_code & SERCOM_USART_STATUS_CTS) {
    2b14:	071a      	lsls	r2, r3, #28
    2b16:	d426      	bmi.n	2b66 <_usart_interrupt_handler+0xd6>
			error_code = (uint8_t)(usart_hw->STATUS.reg & SERCOM_USART_STATUS_MASK);
    2b18:	223f      	movs	r2, #63	; 0x3f
    2b1a:	4013      	ands	r3, r2
			if(error_code & SERCOM_USART_STATUS_TXE) {
				error_code &= ~SERCOM_USART_STATUS_TXE;
			}
#endif
			/* Check if an error has occurred during the receiving */
			if (error_code) 
    2b1c:	2b00      	cmp	r3, #0
    2b1e:	d04a      	beq.n	2bb6 <_usart_interrupt_handler+0x126>
			{
				/* Check which error occurred */
				if (error_code & SERCOM_USART_STATUS_FERR) {
    2b20:	079a      	lsls	r2, r3, #30
    2b22:	d523      	bpl.n	2b6c <_usart_interrupt_handler+0xdc>
					/* Store the error code and clear flag by writing 1 to it */
					module->rx_status = STATUS_ERR_BAD_FORMAT;
    2b24:	221a      	movs	r2, #26
    2b26:	2332      	movs	r3, #50	; 0x32
    2b28:	54f2      	strb	r2, [r6, r3]
					usart_hw->STATUS.reg = SERCOM_USART_STATUS_FERR;
    2b2a:	3b30      	subs	r3, #48	; 0x30
    2b2c:	8363      	strh	r3, [r4, #26]
					usart_hw->STATUS.reg = SERCOM_USART_STATUS_COLL;
				}
#endif

				/* Run callback if registered and enabled */
				if (callback_status
    2b2e:	077b      	lsls	r3, r7, #29
    2b30:	d43d      	bmi.n	2bae <_usart_interrupt_handler+0x11e>
			//usart_hw->INTENCLR.reg = SERCOM_USART_INTFLAG_RXC;
		//}
	}

#ifdef FEATURE_USART_HARDWARE_FLOW_CONTROL
	if (interrupt_status & SERCOM_USART_INTFLAG_CTSIC) {
    2b32:	06eb      	lsls	r3, r5, #27
    2b34:	d504      	bpl.n	2b40 <_usart_interrupt_handler+0xb0>
		/* Disable interrupts */
		usart_hw->INTENCLR.reg = SERCOM_USART_INTENCLR_CTSIC;
    2b36:	2310      	movs	r3, #16
    2b38:	7523      	strb	r3, [r4, #20]
		/* Clear interrupt flag */
		usart_hw->INTFLAG.reg = SERCOM_USART_INTFLAG_CTSIC;
    2b3a:	7623      	strb	r3, [r4, #24]

		/* Run callback if registered and enabled */
		if (callback_status & (1 << USART_CALLBACK_CTS_INPUT_CHANGE)) {
    2b3c:	06fb      	lsls	r3, r7, #27
    2b3e:	d440      	bmi.n	2bc2 <_usart_interrupt_handler+0x132>
		}
	}
#endif

#ifdef FEATURE_USART_LIN_SLAVE
	if (interrupt_status & SERCOM_USART_INTFLAG_RXBRK) {
    2b40:	06ab      	lsls	r3, r5, #26
    2b42:	d504      	bpl.n	2b4e <_usart_interrupt_handler+0xbe>
		/* Disable interrupts */
		usart_hw->INTENCLR.reg = SERCOM_USART_INTENCLR_RXBRK;
    2b44:	2320      	movs	r3, #32
    2b46:	7523      	strb	r3, [r4, #20]
		/* Clear interrupt flag */
		usart_hw->INTFLAG.reg = SERCOM_USART_INTFLAG_RXBRK;
    2b48:	7623      	strb	r3, [r4, #24]

		/* Run callback if registered and enabled */
		if (callback_status & (1 << USART_CALLBACK_BREAK_RECEIVED)) {
    2b4a:	073b      	lsls	r3, r7, #28
    2b4c:	d43d      	bmi.n	2bca <_usart_interrupt_handler+0x13a>
		}
	}
#endif

#ifdef FEATURE_USART_START_FRAME_DECTION
	if (interrupt_status & SERCOM_USART_INTFLAG_RXS) {
    2b4e:	072b      	lsls	r3, r5, #28
    2b50:	d504      	bpl.n	2b5c <_usart_interrupt_handler+0xcc>
		/* Disable interrupts */
		usart_hw->INTENCLR.reg = SERCOM_USART_INTENCLR_RXS;
    2b52:	2308      	movs	r3, #8
    2b54:	7523      	strb	r3, [r4, #20]
		/* Clear interrupt flag */
		usart_hw->INTFLAG.reg = SERCOM_USART_INTFLAG_RXS;
    2b56:	7623      	strb	r3, [r4, #24]

		/* Run callback if registered and enabled */
		if (callback_status & (1 << USART_CALLBACK_START_RECEIVED)) {
    2b58:	06bb      	lsls	r3, r7, #26
    2b5a:	d43a      	bmi.n	2bd2 <_usart_interrupt_handler+0x142>
			(*(module->callback[USART_CALLBACK_START_RECEIVED]))(module);
		}
	}
#endif
}
    2b5c:	bdf8      	pop	{r3, r4, r5, r6, r7, pc}
			(*(module->callback[USART_CALLBACK_BUFFER_TRANSMITTED]))(module);
    2b5e:	0030      	movs	r0, r6
    2b60:	68f3      	ldr	r3, [r6, #12]
    2b62:	4798      	blx	r3
    2b64:	e7d2      	b.n	2b0c <_usart_interrupt_handler+0x7c>
				error_code &= ~SERCOM_USART_STATUS_CTS;
    2b66:	2237      	movs	r2, #55	; 0x37
    2b68:	4013      	ands	r3, r2
    2b6a:	e7d7      	b.n	2b1c <_usart_interrupt_handler+0x8c>
				} else if (error_code & SERCOM_USART_STATUS_BUFOVF) {
    2b6c:	075a      	lsls	r2, r3, #29
    2b6e:	d505      	bpl.n	2b7c <_usart_interrupt_handler+0xec>
					module->rx_status = STATUS_ERR_OVERFLOW;
    2b70:	221e      	movs	r2, #30
    2b72:	2332      	movs	r3, #50	; 0x32
    2b74:	54f2      	strb	r2, [r6, r3]
					usart_hw->STATUS.reg = SERCOM_USART_STATUS_BUFOVF;
    2b76:	3b2e      	subs	r3, #46	; 0x2e
    2b78:	8363      	strh	r3, [r4, #26]
    2b7a:	e7d8      	b.n	2b2e <_usart_interrupt_handler+0x9e>
				} else if (error_code & SERCOM_USART_STATUS_PERR) {
    2b7c:	07da      	lsls	r2, r3, #31
    2b7e:	d505      	bpl.n	2b8c <_usart_interrupt_handler+0xfc>
					module->rx_status = STATUS_ERR_BAD_DATA;
    2b80:	2213      	movs	r2, #19
    2b82:	2332      	movs	r3, #50	; 0x32
    2b84:	54f2      	strb	r2, [r6, r3]
					usart_hw->STATUS.reg = SERCOM_USART_STATUS_PERR;
    2b86:	3b31      	subs	r3, #49	; 0x31
    2b88:	8363      	strh	r3, [r4, #26]
    2b8a:	e7d0      	b.n	2b2e <_usart_interrupt_handler+0x9e>
				else if (error_code & SERCOM_USART_STATUS_ISF) {
    2b8c:	06da      	lsls	r2, r3, #27
    2b8e:	d505      	bpl.n	2b9c <_usart_interrupt_handler+0x10c>
					module->rx_status = STATUS_ERR_PROTOCOL;
    2b90:	2242      	movs	r2, #66	; 0x42
    2b92:	2332      	movs	r3, #50	; 0x32
    2b94:	54f2      	strb	r2, [r6, r3]
					usart_hw->STATUS.reg = SERCOM_USART_STATUS_ISF;
    2b96:	3b22      	subs	r3, #34	; 0x22
    2b98:	8363      	strh	r3, [r4, #26]
    2b9a:	e7c8      	b.n	2b2e <_usart_interrupt_handler+0x9e>
				else if (error_code & SERCOM_USART_STATUS_COLL) {
    2b9c:	2220      	movs	r2, #32
    2b9e:	421a      	tst	r2, r3
    2ba0:	d0c5      	beq.n	2b2e <_usart_interrupt_handler+0x9e>
					module->rx_status = STATUS_ERR_PACKET_COLLISION;
    2ba2:	3221      	adds	r2, #33	; 0x21
    2ba4:	2332      	movs	r3, #50	; 0x32
    2ba6:	54f2      	strb	r2, [r6, r3]
					usart_hw->STATUS.reg = SERCOM_USART_STATUS_COLL;
    2ba8:	3b12      	subs	r3, #18
    2baa:	8363      	strh	r3, [r4, #26]
    2bac:	e7bf      	b.n	2b2e <_usart_interrupt_handler+0x9e>
					(*(module->callback[USART_CALLBACK_ERROR]))(module);
    2bae:	0030      	movs	r0, r6
    2bb0:	6973      	ldr	r3, [r6, #20]
    2bb2:	4798      	blx	r3
    2bb4:	e7bd      	b.n	2b32 <_usart_interrupt_handler+0xa2>
				if (callback_status
    2bb6:	07bb      	lsls	r3, r7, #30
    2bb8:	d5bb      	bpl.n	2b32 <_usart_interrupt_handler+0xa2>
						(*(module->callback[USART_CALLBACK_BUFFER_RECEIVED]))(module);
    2bba:	0030      	movs	r0, r6
    2bbc:	6933      	ldr	r3, [r6, #16]
    2bbe:	4798      	blx	r3
    2bc0:	e7b7      	b.n	2b32 <_usart_interrupt_handler+0xa2>
			(*(module->callback[USART_CALLBACK_CTS_INPUT_CHANGE]))(module);
    2bc2:	0030      	movs	r0, r6
    2bc4:	69f3      	ldr	r3, [r6, #28]
    2bc6:	4798      	blx	r3
    2bc8:	e7ba      	b.n	2b40 <_usart_interrupt_handler+0xb0>
			(*(module->callback[USART_CALLBACK_BREAK_RECEIVED]))(module);
    2bca:	0030      	movs	r0, r6
    2bcc:	69b3      	ldr	r3, [r6, #24]
    2bce:	4798      	blx	r3
    2bd0:	e7bd      	b.n	2b4e <_usart_interrupt_handler+0xbe>
			(*(module->callback[USART_CALLBACK_START_RECEIVED]))(module);
    2bd2:	6a33      	ldr	r3, [r6, #32]
    2bd4:	0030      	movs	r0, r6
    2bd6:	4798      	blx	r3
}
    2bd8:	e7c0      	b.n	2b5c <_usart_interrupt_handler+0xcc>
    2bda:	46c0      	nop			; (mov r8, r8)
    2bdc:	20000f8c 	.word	0x20000f8c

00002be0 <configureADC>:
#include    "FlutterADC.h"
#define OUTPUT1_DET_AI			4	
uint16_t* ADCResult = NULL;

void configureADC()
{
    2be0:	b510      	push	{r4, lr}
    2be2:	b08c      	sub	sp, #48	; 0x30
	struct adc_config conf_adc;
	ADCResult = malloc(sizeof(uint16_t));
    2be4:	2002      	movs	r0, #2
    2be6:	4b19      	ldr	r3, [pc, #100]	; (2c4c <configureADC+0x6c>)
    2be8:	4798      	blx	r3
    2bea:	4b19      	ldr	r3, [pc, #100]	; (2c50 <configureADC+0x70>)
    2bec:	6018      	str	r0, [r3, #0]
	
	adc_get_config_defaults(&conf_adc);
    2bee:	4668      	mov	r0, sp
    2bf0:	4b18      	ldr	r3, [pc, #96]	; (2c54 <configureADC+0x74>)
    2bf2:	4798      	blx	r3

	conf_adc.reference			=  ADC_REFCTRL_REFSEL_INTVCC0_Val;
    2bf4:	2301      	movs	r3, #1
    2bf6:	466a      	mov	r2, sp
    2bf8:	7053      	strb	r3, [r2, #1]
	conf_adc.clock_prescaler	=  ADC_CLOCK_PRESCALER_DIV128;
    2bfa:	23a0      	movs	r3, #160	; 0xa0
    2bfc:	00db      	lsls	r3, r3, #3
    2bfe:	8053      	strh	r3, [r2, #2]
	conf_adc.positive_input		=  OUTPUT1_DET_AI;
    2c00:	2304      	movs	r3, #4
    2c02:	7313      	strb	r3, [r2, #12]
	conf_adc.negative_input		=  ADC_NEGATIVE_INPUT_GND;
    2c04:	23c0      	movs	r3, #192	; 0xc0
    2c06:	015b      	lsls	r3, r3, #5
    2c08:	81d3      	strh	r3, [r2, #14]
	conf_adc.resolution			=  ADC_RESOLUTION_8BIT;
    2c0a:	2330      	movs	r3, #48	; 0x30
    2c0c:	7113      	strb	r3, [r2, #4]
	conf_adc.clock_source       =  GCLK_GENERATOR_3;
    2c0e:	3b2d      	subs	r3, #45	; 0x2d
    2c10:	7013      	strb	r3, [r2, #0]
	//conf_adc.left_adjust		=  true;

	adc_init(&adc_instance, ADC, &conf_adc);
    2c12:	4c11      	ldr	r4, [pc, #68]	; (2c58 <configureADC+0x78>)
    2c14:	4911      	ldr	r1, [pc, #68]	; (2c5c <configureADC+0x7c>)
    2c16:	0020      	movs	r0, r4
    2c18:	4b11      	ldr	r3, [pc, #68]	; (2c60 <configureADC+0x80>)
    2c1a:	4798      	blx	r3
	Adc *const adc_module = module_inst->hw;
    2c1c:	6822      	ldr	r2, [r4, #0]
    2c1e:	7e53      	ldrb	r3, [r2, #25]
	while (adc_is_syncing(module_inst)) {
    2c20:	b25b      	sxtb	r3, r3
    2c22:	2b00      	cmp	r3, #0
    2c24:	dbfb      	blt.n	2c1e <configureADC+0x3e>
	NVIC->ISER[0] = (uint32_t)(1 << ((uint32_t)vector & 0x0000001f));
    2c26:	2180      	movs	r1, #128	; 0x80
    2c28:	0409      	lsls	r1, r1, #16
    2c2a:	4b0e      	ldr	r3, [pc, #56]	; (2c64 <configureADC+0x84>)
    2c2c:	6019      	str	r1, [r3, #0]
	adc_module->INTENCLR.reg = ADC_INTENCLR_MASK;
    2c2e:	230f      	movs	r3, #15
    2c30:	7593      	strb	r3, [r2, #22]
	adc_module->INTFLAG.reg = ADC_INTFLAG_MASK;
    2c32:	7613      	strb	r3, [r2, #24]
	adc_module->CTRLA.reg |= ADC_CTRLA_ENABLE;
    2c34:	7813      	ldrb	r3, [r2, #0]
    2c36:	2102      	movs	r1, #2
    2c38:	430b      	orrs	r3, r1
    2c3a:	7013      	strb	r3, [r2, #0]
	Adc *const adc_module = module_inst->hw;
    2c3c:	4b06      	ldr	r3, [pc, #24]	; (2c58 <configureADC+0x78>)
    2c3e:	681a      	ldr	r2, [r3, #0]
	if (adc_module->STATUS.reg & ADC_STATUS_SYNCBUSY) {
    2c40:	7e53      	ldrb	r3, [r2, #25]
	while (adc_is_syncing(module_inst)) {
    2c42:	b25b      	sxtb	r3, r3
    2c44:	2b00      	cmp	r3, #0
    2c46:	dbfb      	blt.n	2c40 <configureADC+0x60>
	adc_enable(&adc_instance);
}
    2c48:	b00c      	add	sp, #48	; 0x30
    2c4a:	bd10      	pop	{r4, pc}
    2c4c:	00005771 	.word	0x00005771
    2c50:	20000148 	.word	0x20000148
    2c54:	00001c65 	.word	0x00001c65
    2c58:	20000fa4 	.word	0x20000fa4
    2c5c:	42004000 	.word	0x42004000
    2c60:	00001cad 	.word	0x00001cad
    2c64:	e000e100 	.word	0xe000e100

00002c68 <adc_start_read_result>:




uint16_t adc_start_read_result(const enum adc_positive_input analogPin)
{
    2c68:	b530      	push	{r4, r5, lr}
	Adc *const adc_module = module_inst->hw;
    2c6a:	4b2d      	ldr	r3, [pc, #180]	; (2d20 <adc_start_read_result+0xb8>)
    2c6c:	6819      	ldr	r1, [r3, #0]
    2c6e:	7e4b      	ldrb	r3, [r1, #25]
	while (adc_is_syncing(module_inst)) {
    2c70:	b25b      	sxtb	r3, r3
    2c72:	2b00      	cmp	r3, #0
    2c74:	dbfb      	blt.n	2c6e <adc_start_read_result+0x6>
			(adc_module->INPUTCTRL.reg & ~ADC_INPUTCTRL_MUXPOS_Msk) |
    2c76:	690b      	ldr	r3, [r1, #16]
    2c78:	221f      	movs	r2, #31
    2c7a:	4393      	bics	r3, r2
    2c7c:	4318      	orrs	r0, r3
	adc_module->INPUTCTRL.reg =
    2c7e:	6108      	str	r0, [r1, #16]
    2c80:	7e4b      	ldrb	r3, [r1, #25]
	while (adc_is_syncing(module_inst)) {
    2c82:	b25b      	sxtb	r3, r3
    2c84:	2b00      	cmp	r3, #0
    2c86:	dbfb      	blt.n	2c80 <adc_start_read_result+0x18>
    2c88:	7e4b      	ldrb	r3, [r1, #25]
	while (adc_is_syncing(module_inst)) {
    2c8a:	b25b      	sxtb	r3, r3
    2c8c:	2b00      	cmp	r3, #0
    2c8e:	dbfb      	blt.n	2c88 <adc_start_read_result+0x20>
	adc_module->SWTRIG.reg |= ADC_SWTRIG_START;
    2c90:	7b0b      	ldrb	r3, [r1, #12]
    2c92:	2202      	movs	r2, #2
    2c94:	4313      	orrs	r3, r2
    2c96:	730b      	strb	r3, [r1, #12]
    2c98:	7e4b      	ldrb	r3, [r1, #25]
	while (adc_is_syncing(module_inst)) {
    2c9a:	b25b      	sxtb	r3, r3
    2c9c:	2b00      	cmp	r3, #0
    2c9e:	dbfb      	blt.n	2c98 <adc_start_read_result+0x30>
	if (int_flags & ADC_INTFLAG_RESRDY) {
    2ca0:	2001      	movs	r0, #1
	if (int_flags & ADC_INTFLAG_WINMON) {
    2ca2:	2504      	movs	r5, #4
		status_flags |= ADC_STATUS_WINDOW;
    2ca4:	2402      	movs	r4, #2
    2ca6:	e001      	b.n	2cac <adc_start_read_result+0x44>
	uint16_t temp = 0;
	adc_set_positive_input(&adc_instance, analogPin );
	adc_start_conversion(&adc_instance);
	while((adc_get_status(&adc_instance) & ADC_STATUS_RESULT_READY) != 1);
    2ca8:	4210      	tst	r0, r2
    2caa:	d10a      	bne.n	2cc2 <adc_start_read_result+0x5a>
	uint32_t int_flags = adc_module->INTFLAG.reg;
    2cac:	7e0b      	ldrb	r3, [r1, #24]
    2cae:	b2db      	uxtb	r3, r3
	if (int_flags & ADC_INTFLAG_RESRDY) {
    2cb0:	0002      	movs	r2, r0
    2cb2:	401a      	ands	r2, r3
	if (int_flags & ADC_INTFLAG_WINMON) {
    2cb4:	421d      	tst	r5, r3
    2cb6:	d000      	beq.n	2cba <adc_start_read_result+0x52>
		status_flags |= ADC_STATUS_WINDOW;
    2cb8:	4322      	orrs	r2, r4
	if (int_flags & ADC_INTFLAG_OVERRUN) {
    2cba:	421c      	tst	r4, r3
    2cbc:	d0f4      	beq.n	2ca8 <adc_start_read_result+0x40>
		status_flags |= ADC_STATUS_OVERRUN;
    2cbe:	432a      	orrs	r2, r5
    2cc0:	e7f2      	b.n	2ca8 <adc_start_read_result+0x40>
	uint32_t int_flags = adc_module->INTFLAG.reg;
    2cc2:	7e0a      	ldrb	r2, [r1, #24]
    2cc4:	b2d2      	uxtb	r2, r2
	if (int_flags & ADC_INTFLAG_RESRDY) {
    2cc6:	2301      	movs	r3, #1
    2cc8:	4013      	ands	r3, r2
	if (int_flags & ADC_INTFLAG_WINMON) {
    2cca:	0750      	lsls	r0, r2, #29
    2ccc:	d501      	bpl.n	2cd2 <adc_start_read_result+0x6a>
		status_flags |= ADC_STATUS_WINDOW;
    2cce:	2002      	movs	r0, #2
    2cd0:	4303      	orrs	r3, r0
	if (int_flags & ADC_INTFLAG_OVERRUN) {
    2cd2:	0792      	lsls	r2, r2, #30
    2cd4:	d501      	bpl.n	2cda <adc_start_read_result+0x72>
		status_flags |= ADC_STATUS_OVERRUN;
    2cd6:	2204      	movs	r2, #4
    2cd8:	4313      	orrs	r3, r2
	if (!(adc_get_status(module_inst) & ADC_STATUS_RESULT_READY)) {
    2cda:	07db      	lsls	r3, r3, #31
    2cdc:	d403      	bmi.n	2ce6 <adc_start_read_result+0x7e>
	adc_read(&adc_instance, ADCResult);
	temp = *ADCResult;
    2cde:	4b11      	ldr	r3, [pc, #68]	; (2d24 <adc_start_read_result+0xbc>)
    2ce0:	681b      	ldr	r3, [r3, #0]
	return temp;
    2ce2:	8818      	ldrh	r0, [r3, #0]
    2ce4:	bd30      	pop	{r4, r5, pc}
    2ce6:	7e4b      	ldrb	r3, [r1, #25]
	while (adc_is_syncing(module_inst)) {
    2ce8:	b25b      	sxtb	r3, r3
    2cea:	2b00      	cmp	r3, #0
    2cec:	dbfb      	blt.n	2ce6 <adc_start_read_result+0x7e>
	adc_read(&adc_instance, ADCResult);
    2cee:	4b0d      	ldr	r3, [pc, #52]	; (2d24 <adc_start_read_result+0xbc>)
    2cf0:	681b      	ldr	r3, [r3, #0]
	*result = adc_module->RESULT.reg;
    2cf2:	8b4a      	ldrh	r2, [r1, #26]
    2cf4:	801a      	strh	r2, [r3, #0]
	Adc *const adc_module = module_inst->hw;
    2cf6:	4b0a      	ldr	r3, [pc, #40]	; (2d20 <adc_start_read_result+0xb8>)
    2cf8:	6819      	ldr	r1, [r3, #0]
	adc_module->INTFLAG.reg = int_flags;
    2cfa:	2301      	movs	r3, #1
    2cfc:	760b      	strb	r3, [r1, #24]
	uint32_t int_flags = adc_module->INTFLAG.reg;
    2cfe:	7e0a      	ldrb	r2, [r1, #24]
    2d00:	b2d2      	uxtb	r2, r2
	if (int_flags & ADC_INTFLAG_RESRDY) {
    2d02:	4013      	ands	r3, r2
	if (int_flags & ADC_INTFLAG_WINMON) {
    2d04:	0750      	lsls	r0, r2, #29
    2d06:	d501      	bpl.n	2d0c <adc_start_read_result+0xa4>
		status_flags |= ADC_STATUS_WINDOW;
    2d08:	2002      	movs	r0, #2
    2d0a:	4303      	orrs	r3, r0
	if (int_flags & ADC_INTFLAG_OVERRUN) {
    2d0c:	0792      	lsls	r2, r2, #30
    2d0e:	d501      	bpl.n	2d14 <adc_start_read_result+0xac>
		status_flags |= ADC_STATUS_OVERRUN;
    2d10:	2204      	movs	r2, #4
    2d12:	4313      	orrs	r3, r2
	if (adc_get_status(module_inst) & ADC_STATUS_OVERRUN) {
    2d14:	075b      	lsls	r3, r3, #29
    2d16:	d5e2      	bpl.n	2cde <adc_start_read_result+0x76>
	adc_module->INTFLAG.reg = int_flags;
    2d18:	2302      	movs	r3, #2
    2d1a:	760b      	strb	r3, [r1, #24]
    2d1c:	e7df      	b.n	2cde <adc_start_read_result+0x76>
    2d1e:	46c0      	nop			; (mov r8, r8)
    2d20:	20000fa4 	.word	0x20000fa4
    2d24:	20000148 	.word	0x20000148

00002d28 <UARTReceiveBytes>:
#define LEN_LEDMATRIX_SETALL	  72

//#define LEN_COMMON_SETALL		

void UARTReceiveBytes(uint8_t* receiveData ,uint8_t countReceive)
{
    2d28:	b530      	push	{r4, r5, lr}
	uint8_t i =0;
	while((headPointer - tailPointer) < countReceive )
    2d2a:	4d0c      	ldr	r5, [pc, #48]	; (2d5c <UARTReceiveBytes+0x34>)
    2d2c:	4c0c      	ldr	r4, [pc, #48]	; (2d60 <UARTReceiveBytes+0x38>)
    2d2e:	782b      	ldrb	r3, [r5, #0]
    2d30:	7822      	ldrb	r2, [r4, #0]
    2d32:	1a9b      	subs	r3, r3, r2
    2d34:	428b      	cmp	r3, r1
    2d36:	dbfa      	blt.n	2d2e <UARTReceiveBytes+0x6>
	{
	}
	for(i=1;i<=countReceive;i++)
    2d38:	2900      	cmp	r1, #0
    2d3a:	d00e      	beq.n	2d5a <UARTReceiveBytes+0x32>
    2d3c:	2301      	movs	r3, #1
	{
		receiveData[i] = ringBuffer[tailPointer];
    2d3e:	4c08      	ldr	r4, [pc, #32]	; (2d60 <UARTReceiveBytes+0x38>)
    2d40:	4d08      	ldr	r5, [pc, #32]	; (2d64 <UARTReceiveBytes+0x3c>)
    2d42:	7822      	ldrb	r2, [r4, #0]
    2d44:	b2d2      	uxtb	r2, r2
    2d46:	5caa      	ldrb	r2, [r5, r2]
    2d48:	54c2      	strb	r2, [r0, r3]
		tailPointer++;
    2d4a:	7822      	ldrb	r2, [r4, #0]
    2d4c:	3201      	adds	r2, #1
    2d4e:	b2d2      	uxtb	r2, r2
    2d50:	7022      	strb	r2, [r4, #0]
	for(i=1;i<=countReceive;i++)
    2d52:	3301      	adds	r3, #1
    2d54:	b2db      	uxtb	r3, r3
    2d56:	4299      	cmp	r1, r3
    2d58:	d2f3      	bcs.n	2d42 <UARTReceiveBytes+0x1a>
	}
}
    2d5a:	bd30      	pop	{r4, r5, pc}
    2d5c:	20001120 	.word	0x20001120
    2d60:	20001164 	.word	0x20001164
    2d64:	20001168 	.word	0x20001168

00002d68 <transferLEDMatrixValues>:

void transferLEDMatrixValues(uint8_t* tempTransfer , uint8_t port)
{
    2d68:	b570      	push	{r4, r5, r6, lr}
    2d6a:	b084      	sub	sp, #16
    2d6c:	2300      	movs	r3, #0
	uint32_t err_code = 0;
	//static bool firstTime = true;
	static uint8_t LEDMatrixValues[LEN_LEDMATRIX_SETALL+1]; 
	for(i=0;i<(LEN_LEDMATRIX_SETALL+1);i++)
	{
		LEDMatrixValues[i] = tempTransfer[i] ;
    2d6e:	4c11      	ldr	r4, [pc, #68]	; (2db4 <transferLEDMatrixValues+0x4c>)
    2d70:	5cc2      	ldrb	r2, [r0, r3]
    2d72:	551a      	strb	r2, [r3, r4]
    2d74:	3301      	adds	r3, #1
	for(i=0;i<(LEN_LEDMATRIX_SETALL+1);i++)
    2d76:	2b49      	cmp	r3, #73	; 0x49
    2d78:	d1fa      	bne.n	2d70 <transferLEDMatrixValues+0x8>
	}
	struct i2c_master_packet wr_packet = {
		.address     = outputPort[port].address ,
    2d7a:	4b0f      	ldr	r3, [pc, #60]	; (2db8 <transferLEDMatrixValues+0x50>)
    2d7c:	00ca      	lsls	r2, r1, #3
    2d7e:	5cd0      	ldrb	r0, [r2, r3]
	struct i2c_master_packet wr_packet = {
    2d80:	ac01      	add	r4, sp, #4
    2d82:	8020      	strh	r0, [r4, #0]
		.data_length = outputPort[port].writeDataLength1,
    2d84:	189b      	adds	r3, r3, r2
    2d86:	791b      	ldrb	r3, [r3, #4]
	struct i2c_master_packet wr_packet = {
    2d88:	8063      	strh	r3, [r4, #2]
    2d8a:	4b0a      	ldr	r3, [pc, #40]	; (2db4 <transferLEDMatrixValues+0x4c>)
    2d8c:	9302      	str	r3, [sp, #8]
    2d8e:	2300      	movs	r3, #0
    2d90:	7223      	strb	r3, [r4, #8]
    2d92:	7263      	strb	r3, [r4, #9]
    2d94:	72a3      	strb	r3, [r4, #10]
		.high_speed      = false,
		.hs_master_code  = 0x0,
	};
	//while(outputPort[port].I2CStatus == BUSY_MODE);
	//outputPort[port].I2CStatus = BUSY_MODE;
	I2CWrite((port+1) , &wr_packet);
    2d96:	3101      	adds	r1, #1
    2d98:	b2cd      	uxtb	r5, r1
    2d9a:	0021      	movs	r1, r4
    2d9c:	0028      	movs	r0, r5
    2d9e:	4e07      	ldr	r6, [pc, #28]	; (2dbc <transferLEDMatrixValues+0x54>)
    2da0:	47b0      	blx	r6
	delay_cycles_ms(1);
    2da2:	2001      	movs	r0, #1
    2da4:	4b06      	ldr	r3, [pc, #24]	; (2dc0 <transferLEDMatrixValues+0x58>)
    2da6:	4798      	blx	r3
	I2CWrite((port+1) , &wr_packet);
    2da8:	0021      	movs	r1, r4
    2daa:	0028      	movs	r0, r5
    2dac:	47b0      	blx	r6
		
	}
	firstTime = false;
	*/
	
}
    2dae:	b004      	add	sp, #16
    2db0:	bd70      	pop	{r4, r5, r6, pc}
    2db2:	46c0      	nop			; (mov r8, r8)
    2db4:	2000014c 	.word	0x2000014c
    2db8:	20001124 	.word	0x20001124
    2dbc:	000013b1 	.word	0x000013b1
    2dc0:	00001c39 	.word	0x00001c39

00002dc4 <checkUART>:


void checkUART()
{
    2dc4:	b570      	push	{r4, r5, r6, lr}
	uint8_t i =0;
	uint8_t port = 3;
	static uint8_t receivedValue[100];
	if(headPointer != tailPointer)
    2dc6:	4b2e      	ldr	r3, [pc, #184]	; (2e80 <checkUART+0xbc>)
    2dc8:	781b      	ldrb	r3, [r3, #0]
    2dca:	4a2e      	ldr	r2, [pc, #184]	; (2e84 <checkUART+0xc0>)
    2dcc:	7812      	ldrb	r2, [r2, #0]
    2dce:	b2db      	uxtb	r3, r3
    2dd0:	4293      	cmp	r3, r2
    2dd2:	d043      	beq.n	2e5c <checkUART+0x98>
	{
		receivedValue[0]  = ringBuffer[tailPointer];
    2dd4:	492b      	ldr	r1, [pc, #172]	; (2e84 <checkUART+0xc0>)
    2dd6:	780b      	ldrb	r3, [r1, #0]
    2dd8:	b2db      	uxtb	r3, r3
    2dda:	4a2b      	ldr	r2, [pc, #172]	; (2e88 <checkUART+0xc4>)
    2ddc:	5cd3      	ldrb	r3, [r2, r3]
    2dde:	b2db      	uxtb	r3, r3
    2de0:	4a2a      	ldr	r2, [pc, #168]	; (2e8c <checkUART+0xc8>)
    2de2:	7013      	strb	r3, [r2, #0]
		tailPointer++;
    2de4:	780a      	ldrb	r2, [r1, #0]
    2de6:	3201      	adds	r2, #1
    2de8:	b2d2      	uxtb	r2, r2
    2dea:	700a      	strb	r2, [r1, #0]
		switch(receivedValue[0])
    2dec:	2b4c      	cmp	r3, #76	; 0x4c
    2dee:	d021      	beq.n	2e34 <checkUART+0x70>
    2df0:	d90f      	bls.n	2e12 <checkUART+0x4e>
    2df2:	2b62      	cmp	r3, #98	; 0x62
    2df4:	d117      	bne.n	2e26 <checkUART+0x62>
		{
			case TEST:
				break;
			case BROADCAST:
				UARTReceiveBytes(receivedValue , LEN_BROADCAST_COMMAND );
    2df6:	4c25      	ldr	r4, [pc, #148]	; (2e8c <checkUART+0xc8>)
    2df8:	2101      	movs	r1, #1
    2dfa:	0020      	movs	r0, r4
    2dfc:	4b24      	ldr	r3, [pc, #144]	; (2e90 <checkUART+0xcc>)
    2dfe:	4798      	blx	r3
				if(receivedValue[1]  == START_BROADCAST)
    2e00:	7863      	ldrb	r3, [r4, #1]
    2e02:	2b67      	cmp	r3, #103	; 0x67
    2e04:	d012      	beq.n	2e2c <checkUART+0x68>
				{
					broadcastFlag = true;
				}
				else if(receivedValue[1] == STOP_BROADCAST)
    2e06:	2b73      	cmp	r3, #115	; 0x73
    2e08:	d131      	bne.n	2e6e <checkUART+0xaa>
				{
					broadcastFlag = false;
    2e0a:	2200      	movs	r2, #0
    2e0c:	4b21      	ldr	r3, [pc, #132]	; (2e94 <checkUART+0xd0>)
    2e0e:	701a      	strb	r2, [r3, #0]
    2e10:	e02d      	b.n	2e6e <checkUART+0xaa>
		switch(receivedValue[0])
    2e12:	2b01      	cmp	r3, #1
    2e14:	d02b      	beq.n	2e6e <checkUART+0xaa>
    2e16:	2b43      	cmp	r3, #67	; 0x43
    2e18:	d029      	beq.n	2e6e <checkUART+0xaa>
			*/
				break;
			case STOP_BROADCAST:
				break;
			default:
			    headPointer = 0;
    2e1a:	2300      	movs	r3, #0
    2e1c:	4a18      	ldr	r2, [pc, #96]	; (2e80 <checkUART+0xbc>)
    2e1e:	7013      	strb	r3, [r2, #0]
			    tailPointer = 0;
    2e20:	4a18      	ldr	r2, [pc, #96]	; (2e84 <checkUART+0xc0>)
    2e22:	7013      	strb	r3, [r2, #0]
				break;
    2e24:	e023      	b.n	2e6e <checkUART+0xaa>
		switch(receivedValue[0])
    2e26:	2b73      	cmp	r3, #115	; 0x73
    2e28:	d1f7      	bne.n	2e1a <checkUART+0x56>
    2e2a:	e020      	b.n	2e6e <checkUART+0xaa>
					broadcastFlag = true;
    2e2c:	2201      	movs	r2, #1
    2e2e:	4b19      	ldr	r3, [pc, #100]	; (2e94 <checkUART+0xd0>)
    2e30:	701a      	strb	r2, [r3, #0]
    2e32:	e01c      	b.n	2e6e <checkUART+0xaa>
				UARTReceiveBytes(receivedValue , LEN_LEDMATRIX_SETALL );
    2e34:	2148      	movs	r1, #72	; 0x48
    2e36:	4815      	ldr	r0, [pc, #84]	; (2e8c <checkUART+0xc8>)
    2e38:	4b15      	ldr	r3, [pc, #84]	; (2e90 <checkUART+0xcc>)
    2e3a:	4798      	blx	r3
    2e3c:	2400      	movs	r4, #0
					if(outputPort[port].currentState == 	OUTPUT_LEDMATRIX )
    2e3e:	4d16      	ldr	r5, [pc, #88]	; (2e98 <checkUART+0xd4>)
    2e40:	b2e1      	uxtb	r1, r4
    2e42:	00e3      	lsls	r3, r4, #3
    2e44:	18eb      	adds	r3, r5, r3
    2e46:	785b      	ldrb	r3, [r3, #1]
    2e48:	2b03      	cmp	r3, #3
    2e4a:	d003      	beq.n	2e54 <checkUART+0x90>
    2e4c:	3401      	adds	r4, #1
				for(port=0;port<4;port++)
    2e4e:	2c04      	cmp	r4, #4
    2e50:	d1f6      	bne.n	2e40 <checkUART+0x7c>
    2e52:	e00c      	b.n	2e6e <checkUART+0xaa>
						transferLEDMatrixValues(receivedValue,port);
    2e54:	480d      	ldr	r0, [pc, #52]	; (2e8c <checkUART+0xc8>)
    2e56:	4b11      	ldr	r3, [pc, #68]	; (2e9c <checkUART+0xd8>)
    2e58:	4798      	blx	r3
    2e5a:	e7f7      	b.n	2e4c <checkUART+0x88>
		}
	}
	else if(broadcastFlag == true)
    2e5c:	4b0d      	ldr	r3, [pc, #52]	; (2e94 <checkUART+0xd0>)
    2e5e:	781b      	ldrb	r3, [r3, #0]
    2e60:	2b01      	cmp	r3, #1
    2e62:	d005      	beq.n	2e70 <checkUART+0xac>
		tailPointer = 0;
		sendDataBLE();
	}
	else
	{
		headPointer = 0;
    2e64:	2300      	movs	r3, #0
    2e66:	4a06      	ldr	r2, [pc, #24]	; (2e80 <checkUART+0xbc>)
    2e68:	7013      	strb	r3, [r2, #0]
		tailPointer = 0;
    2e6a:	4a06      	ldr	r2, [pc, #24]	; (2e84 <checkUART+0xc0>)
    2e6c:	7013      	strb	r3, [r2, #0]
	}
    2e6e:	bd70      	pop	{r4, r5, r6, pc}
		headPointer = 0;
    2e70:	2300      	movs	r3, #0
    2e72:	4a03      	ldr	r2, [pc, #12]	; (2e80 <checkUART+0xbc>)
    2e74:	7013      	strb	r3, [r2, #0]
		tailPointer = 0;
    2e76:	4a03      	ldr	r2, [pc, #12]	; (2e84 <checkUART+0xc0>)
    2e78:	7013      	strb	r3, [r2, #0]
		sendDataBLE();
    2e7a:	4b09      	ldr	r3, [pc, #36]	; (2ea0 <checkUART+0xdc>)
    2e7c:	4798      	blx	r3
    2e7e:	e7f6      	b.n	2e6e <checkUART+0xaa>
    2e80:	20001120 	.word	0x20001120
    2e84:	20001164 	.word	0x20001164
    2e88:	20001168 	.word	0x20001168
    2e8c:	20000198 	.word	0x20000198
    2e90:	00002d29 	.word	0x00002d29
    2e94:	20000195 	.word	0x20000195
    2e98:	20001124 	.word	0x20001124
    2e9c:	00002d69 	.word	0x00002d69
    2ea0:	00001b5d 	.word	0x00001b5d

00002ea4 <readSensors>:
extern uint8_t NoInDevCon ;
extern uint8_t inputsConnected[3];
extern uint8_t sensorOutputs[40];

void readSensors()
{
    2ea4:	b5f8      	push	{r3, r4, r5, r6, r7, lr}
    2ea6:	4f19      	ldr	r7, [pc, #100]	; (2f0c <readSensors+0x68>)
    2ea8:	4e19      	ldr	r6, [pc, #100]	; (2f10 <readSensors+0x6c>)
    2eaa:	4c1a      	ldr	r4, [pc, #104]	; (2f14 <readSensors+0x70>)
    2eac:	2501      	movs	r5, #1
    2eae:	e00b      	b.n	2ec8 <readSensors+0x24>
		for(i=0;i<NO_SENSORS;i++)
		{
			switch(inputsConnected[i])
			{
				case ANALOG_LIGHT_SENSOR:
					sensorOutputs[5*i + 4]     = i+1;
    2eb0:	7135      	strb	r5, [r6, #4]
					sensorOutputs[5*i + 4 +1] = adc_start_read_result(inputAnalogChannles[i]);
    2eb2:	7820      	ldrb	r0, [r4, #0]
    2eb4:	4b18      	ldr	r3, [pc, #96]	; (2f18 <readSensors+0x74>)
    2eb6:	4798      	blx	r3
    2eb8:	7170      	strb	r0, [r6, #5]
    2eba:	3501      	adds	r5, #1
    2ebc:	b2ed      	uxtb	r5, r5
    2ebe:	3701      	adds	r7, #1
    2ec0:	3605      	adds	r6, #5
    2ec2:	3401      	adds	r4, #1
		for(i=0;i<NO_SENSORS;i++)
    2ec4:	2d04      	cmp	r5, #4
    2ec6:	d020      	beq.n	2f0a <readSensors+0x66>
			switch(inputsConnected[i])
    2ec8:	783b      	ldrb	r3, [r7, #0]
    2eca:	3b1a      	subs	r3, #26
    2ecc:	b2da      	uxtb	r2, r3
    2ece:	2a05      	cmp	r2, #5
    2ed0:	d8f3      	bhi.n	2eba <readSensors+0x16>
    2ed2:	0093      	lsls	r3, r2, #2
    2ed4:	4a11      	ldr	r2, [pc, #68]	; (2f1c <readSensors+0x78>)
    2ed6:	58d3      	ldr	r3, [r2, r3]
    2ed8:	469f      	mov	pc, r3
					break;
				case ANALOG_DISTANCE_SENSOR:
					sensorOutputs[5*i + 4]     = i+1;
    2eda:	7135      	strb	r5, [r6, #4]
					sensorOutputs[5*i + 4 +1] = adc_start_read_result(inputAnalogChannles[i]);
    2edc:	7820      	ldrb	r0, [r4, #0]
    2ede:	4b0e      	ldr	r3, [pc, #56]	; (2f18 <readSensors+0x74>)
    2ee0:	4798      	blx	r3
    2ee2:	7170      	strb	r0, [r6, #5]
					break;
    2ee4:	e7e9      	b.n	2eba <readSensors+0x16>
				case ANALOG_SOUND_SENSOR:
					sensorOutputs[5*i + 4]     = i+1;
    2ee6:	7135      	strb	r5, [r6, #4]
					sensorOutputs[5*i + 4 +1] = adc_start_read_result(inputAnalogChannles[i]);
    2ee8:	7820      	ldrb	r0, [r4, #0]
    2eea:	4b0b      	ldr	r3, [pc, #44]	; (2f18 <readSensors+0x74>)
    2eec:	4798      	blx	r3
    2eee:	7170      	strb	r0, [r6, #5]
					break;
    2ef0:	e7e3      	b.n	2eba <readSensors+0x16>
				case ANALOG_DIAL:
					sensorOutputs[5*i + 4]     = i+1;
    2ef2:	7135      	strb	r5, [r6, #4]
					sensorOutputs[5*i + 4 +1] = adc_start_read_result(inputAnalogChannles[i]);
    2ef4:	7820      	ldrb	r0, [r4, #0]
    2ef6:	4b08      	ldr	r3, [pc, #32]	; (2f18 <readSensors+0x74>)
    2ef8:	4798      	blx	r3
    2efa:	7170      	strb	r0, [r6, #5]
					break;
    2efc:	e7dd      	b.n	2eba <readSensors+0x16>
				case ANALOG_TEMPERATURE:
					sensorOutputs[5*i + 4]     = i+1;
    2efe:	7135      	strb	r5, [r6, #4]
					sensorOutputs[5*i + 4 +1] = adc_start_read_result(inputAnalogChannles[i]);
    2f00:	7820      	ldrb	r0, [r4, #0]
    2f02:	4b05      	ldr	r3, [pc, #20]	; (2f18 <readSensors+0x74>)
    2f04:	4798      	blx	r3
    2f06:	7170      	strb	r0, [r6, #5]
					break;
    2f08:	e7d7      	b.n	2eba <readSensors+0x16>
					*/
					break;
			}
		}
	//}
}
    2f0a:	bdf8      	pop	{r3, r4, r5, r6, r7, pc}
    2f0c:	20000e10 	.word	0x20000e10
    2f10:	20000fc8 	.word	0x20000fc8
    2f14:	00005a70 	.word	0x00005a70
    2f18:	00002c69 	.word	0x00002c69
    2f1c:	00005a58 	.word	0x00005a58

00002f20 <usart_read_callback>:
	usart_enable(&usart_instance);
}

//USART callback with a ring buffer 
void usart_read_callback(struct usart_module *const usart_module)
{
    2f20:	b082      	sub	sp, #8
	volatile uint16_t recData = 0;
    2f22:	466b      	mov	r3, sp
    2f24:	1d99      	adds	r1, r3, #6
    2f26:	2300      	movs	r3, #0
    2f28:	800b      	strh	r3, [r1, #0]
	recData = (usart_instance.hw->USART.DATA.reg & SERCOM_USART_DATA_MASK);
    2f2a:	4b0b      	ldr	r3, [pc, #44]	; (2f58 <usart_read_callback+0x38>)
    2f2c:	681b      	ldr	r3, [r3, #0]
    2f2e:	8d1b      	ldrh	r3, [r3, #40]	; 0x28
    2f30:	05db      	lsls	r3, r3, #23
    2f32:	0ddb      	lsrs	r3, r3, #23
    2f34:	800b      	strh	r3, [r1, #0]
	*(ringBuffer + headPointer) = (uint8_t)recData;
    2f36:	4a09      	ldr	r2, [pc, #36]	; (2f5c <usart_read_callback+0x3c>)
    2f38:	7810      	ldrb	r0, [r2, #0]
    2f3a:	4b09      	ldr	r3, [pc, #36]	; (2f60 <usart_read_callback+0x40>)
    2f3c:	181b      	adds	r3, r3, r0
    2f3e:	8809      	ldrh	r1, [r1, #0]
    2f40:	b2c9      	uxtb	r1, r1
    2f42:	7019      	strb	r1, [r3, #0]
	headPointer++;
    2f44:	7813      	ldrb	r3, [r2, #0]
    2f46:	3301      	adds	r3, #1
    2f48:	b2db      	uxtb	r3, r3
    2f4a:	7013      	strb	r3, [r2, #0]
	recDataStatus = true;
    2f4c:	2201      	movs	r2, #1
    2f4e:	4b05      	ldr	r3, [pc, #20]	; (2f64 <usart_read_callback+0x44>)
    2f50:	701a      	strb	r2, [r3, #0]
}
    2f52:	b002      	add	sp, #8
    2f54:	4770      	bx	lr
    2f56:	46c0      	nop			; (mov r8, r8)
    2f58:	20000f38 	.word	0x20000f38
    2f5c:	20001120 	.word	0x20001120
    2f60:	20001168 	.word	0x20001168
    2f64:	20000ff0 	.word	0x20000ff0

00002f68 <serialInit>:
	usart_enable_callback(&usart_instance, USART_CALLBACK_BUFFER_RECEIVED);
}

//Main function 
void serialInit()
{
    2f68:	b530      	push	{r4, r5, lr}
    2f6a:	b093      	sub	sp, #76	; 0x4c
{
	/* Sanity check arguments */
	Assert(config);

	/* Set default config in the config struct */
	config->data_order       = USART_DATAORDER_LSB;
    2f6c:	ab01      	add	r3, sp, #4
    2f6e:	2280      	movs	r2, #128	; 0x80
    2f70:	05d2      	lsls	r2, r2, #23
    2f72:	9201      	str	r2, [sp, #4]
	config->transfer_mode    = USART_TRANSFER_ASYNCHRONOUSLY;
    2f74:	2200      	movs	r2, #0
    2f76:	605a      	str	r2, [r3, #4]
	config->parity           = USART_PARITY_NONE;
    2f78:	21ff      	movs	r1, #255	; 0xff
    2f7a:	8119      	strh	r1, [r3, #8]
	config->stopbits         = USART_STOPBITS_1;
    2f7c:	2100      	movs	r1, #0
    2f7e:	729a      	strb	r2, [r3, #10]
	config->character_size   = USART_CHARACTER_SIZE_8BIT;
    2f80:	72da      	strb	r2, [r3, #11]
	config->baudrate         = 9600;
	config->receiver_enable  = true;
    2f82:	2001      	movs	r0, #1
    2f84:	2424      	movs	r4, #36	; 0x24
    2f86:	5518      	strb	r0, [r3, r4]
	config->transmitter_enable = true;
    2f88:	3401      	adds	r4, #1
    2f8a:	5518      	strb	r0, [r3, r4]
	config->clock_polarity_inverted = false;
    2f8c:	3025      	adds	r0, #37	; 0x25
    2f8e:	541a      	strb	r2, [r3, r0]
	config->use_external_clock = false;
    2f90:	3001      	adds	r0, #1
    2f92:	541a      	strb	r2, [r3, r0]
	config->ext_clock_freq   = 0;
    2f94:	629a      	str	r2, [r3, #40]	; 0x28
	config->mux_setting      = USART_RX_1_TX_2_XCK_3;
	config->run_in_standby   = false;
    2f96:	3005      	adds	r0, #5
    2f98:	541a      	strb	r2, [r3, r0]
	config->pinmux_pad0      = PINMUX_DEFAULT;
	config->pinmux_pad1      = PINMUX_DEFAULT;
	config->pinmux_pad2      = PINMUX_DEFAULT;
	config->pinmux_pad3      = PINMUX_DEFAULT;
#ifdef FEATURE_USART_OVER_SAMPLE
	config->sample_adjustment     = USART_SAMPLE_ADJUSTMENT_7_8_9;
    2f9a:	615a      	str	r2, [r3, #20]
	config->sample_rate           = USART_SAMPLE_RATE_16X_ARITHMETIC;
    2f9c:	821a      	strh	r2, [r3, #16]
#endif
#ifdef FEATURE_USART_LIN_SLAVE
	config->lin_slave_enable      = false;
    2f9e:	76da      	strb	r2, [r3, #27]
	config->lin_header_delay = LIN_MASTER_HEADER_DELAY_0;
	config->lin_break_length = LIN_MASTER_BREAK_LENGTH_13_BIT;
#endif

#ifdef FEATURE_USART_IMMEDIATE_BUFFER_OVERFLOW_NOTIFICATION
	config->immediate_buffer_overflow_notification  = false;
    2fa0:	7619      	strb	r1, [r3, #24]
#endif
#ifdef FEATURE_USART_START_FRAME_DECTION
	config->start_frame_detection_enable            = false;
    2fa2:	7719      	strb	r1, [r3, #28]
#endif
#ifdef FEATURE_USART_IRDA
	config->encoding_format_enable                  = false;
    2fa4:	7659      	strb	r1, [r3, #25]
	config->receive_pulse_length                    = 19;
    2fa6:	2213      	movs	r2, #19
    2fa8:	769a      	strb	r2, [r3, #26]
	config->iso7816_config.inhibit_nack             = ISO7816_INHIBIT_NACK_DISABLE;
	config->iso7816_config.successive_recv_nack     = ISO7816_SUCCESSIVE_RECV_NACK_DISABLE;
	config->iso7816_config.max_iterations           = 7;
#endif
#ifdef FEATURE_USART_COLLISION_DECTION
	config->collision_detection_enable              = false;
    2faa:	7759      	strb	r1, [r3, #29]
	config_usart.baudrate    = BAUDRATE_BLE;
    2fac:	22e1      	movs	r2, #225	; 0xe1
    2fae:	0252      	lsls	r2, r2, #9
    2fb0:	621a      	str	r2, [r3, #32]
	config_usart.mux_setting = USART_SERCOM_MUX_SETTING;
    2fb2:	2280      	movs	r2, #128	; 0x80
    2fb4:	0392      	lsls	r2, r2, #14
    2fb6:	60da      	str	r2, [r3, #12]
	config_usart.pinmux_pad0 = USART_SERCOM_PINMUX_PAD0_TX;
    2fb8:	4a1b      	ldr	r2, [pc, #108]	; (3028 <serialInit+0xc0>)
    2fba:	631a      	str	r2, [r3, #48]	; 0x30
	config_usart.pinmux_pad1 = USART_SERCOM_PINMUX_PAD1_UNUSED;
    2fbc:	2201      	movs	r2, #1
    2fbe:	4252      	negs	r2, r2
    2fc0:	635a      	str	r2, [r3, #52]	; 0x34
	config_usart.pinmux_pad2 = USART_SERCOM_PINMUX_PAD2_RX;
    2fc2:	491a      	ldr	r1, [pc, #104]	; (302c <serialInit+0xc4>)
    2fc4:	6399      	str	r1, [r3, #56]	; 0x38
	config_usart.pinmux_pad3 = USART_SERCOM_PINMUX_PAD3_UNUSED;
    2fc6:	63da      	str	r2, [r3, #60]	; 0x3c
	config_usart.generator_source = GCLK_GENERATOR_3;
    2fc8:	2103      	movs	r1, #3
    2fca:	322e      	adds	r2, #46	; 0x2e
    2fcc:	5499      	strb	r1, [r3, r2]
	while (usart_init(&usart_instance,BLE_UART_MODULE, &config_usart) != STATUS_OK){}
    2fce:	4d18      	ldr	r5, [pc, #96]	; (3030 <serialInit+0xc8>)
    2fd0:	4c18      	ldr	r4, [pc, #96]	; (3034 <serialInit+0xcc>)
    2fd2:	aa01      	add	r2, sp, #4
    2fd4:	4918      	ldr	r1, [pc, #96]	; (3038 <serialInit+0xd0>)
    2fd6:	0028      	movs	r0, r5
    2fd8:	47a0      	blx	r4
    2fda:	2800      	cmp	r0, #0
    2fdc:	d1f9      	bne.n	2fd2 <serialInit+0x6a>
	/* Sanity check arguments */
	Assert(module);
	Assert(module->hw);

	/* Get a pointer to the hardware module instance */
	SercomUsart *const usart_hw = &(module->hw->USART);
    2fde:	4d14      	ldr	r5, [pc, #80]	; (3030 <serialInit+0xc8>)
    2fe0:	682c      	ldr	r4, [r5, #0]

#if USART_CALLBACK_MODE == true
	/* Enable Global interrupt for module */
	system_interrupt_enable(_sercom_get_interrupt_vector(module->hw));
    2fe2:	0020      	movs	r0, r4
    2fe4:	4b15      	ldr	r3, [pc, #84]	; (303c <serialInit+0xd4>)
    2fe6:	4798      	blx	r3
    2fe8:	231f      	movs	r3, #31
    2fea:	4018      	ands	r0, r3
    2fec:	3b1e      	subs	r3, #30
    2fee:	4083      	lsls	r3, r0
    2ff0:	4a13      	ldr	r2, [pc, #76]	; (3040 <serialInit+0xd8>)
    2ff2:	6013      	str	r3, [r2, #0]
	SercomUsart *const usart_hw = &(module->hw->USART);
    2ff4:	682a      	ldr	r2, [r5, #0]
	return (usart_hw->SYNCBUSY.reg);
    2ff6:	69d3      	ldr	r3, [r2, #28]
	while (usart_is_syncing(module)) {
    2ff8:	2b00      	cmp	r3, #0
    2ffa:	d1fc      	bne.n	2ff6 <serialInit+0x8e>

	/* Wait until synchronization is complete */
	_usart_wait_for_sync(module);

	/* Enable USART module */
	usart_hw->CTRLA.reg |= SERCOM_USART_CTRLA_ENABLE;
    2ffc:	6823      	ldr	r3, [r4, #0]
    2ffe:	2202      	movs	r2, #2
    3000:	4313      	orrs	r3, r2
    3002:	6023      	str	r3, [r4, #0]
	usart_register_callback(&usart_instance,usart_read_callback, USART_CALLBACK_BUFFER_RECEIVED);
    3004:	4c0a      	ldr	r4, [pc, #40]	; (3030 <serialInit+0xc8>)
    3006:	3a01      	subs	r2, #1
    3008:	490e      	ldr	r1, [pc, #56]	; (3044 <serialInit+0xdc>)
    300a:	0020      	movs	r0, r4
    300c:	4b0e      	ldr	r3, [pc, #56]	; (3048 <serialInit+0xe0>)
    300e:	4798      	blx	r3
{
	/* Sanity check arguments */
	Assert(module);

	/* Enable callback */
	module->callback_enable_mask |= (1 << callback_type);
    3010:	2231      	movs	r2, #49	; 0x31
    3012:	5ca3      	ldrb	r3, [r4, r2]
    3014:	2102      	movs	r1, #2
    3016:	430b      	orrs	r3, r1
    3018:	54a3      	strb	r3, [r4, r2]
	uint8_t temp_buffer[MAX_RX_BUFFER_LENGTH];
	configureUSART();
	configureUSARTCallbacks();
	usart_read_buffer_job(&usart_instance,(uint8_t *)temp_buffer, MAX_RX_BUFFER_LENGTH);
    301a:	3a30      	subs	r2, #48	; 0x30
    301c:	a911      	add	r1, sp, #68	; 0x44
    301e:	0020      	movs	r0, r4
    3020:	4b0a      	ldr	r3, [pc, #40]	; (304c <serialInit+0xe4>)
    3022:	4798      	blx	r3
    3024:	b013      	add	sp, #76	; 0x4c
    3026:	bd30      	pop	{r4, r5, pc}
    3028:	002c0002 	.word	0x002c0002
    302c:	002e0002 	.word	0x002e0002
    3030:	20000f38 	.word	0x20000f38
    3034:	000025d9 	.word	0x000025d9
    3038:	42001800 	.word	0x42001800
    303c:	00002549 	.word	0x00002549
    3040:	e000e100 	.word	0xe000e100
    3044:	00002f21 	.word	0x00002f21
    3048:	00002a59 	.word	0x00002a59
    304c:	00002a71 	.word	0x00002a71

00003050 <inputOutputConnection>:

uint8_t  inputOutputConnection(uint8_t analogInput)
{
	uint8_t inputOutput = 100;
	
	if((analogInput > MIN_THRES_LIGHT) && (analogInput <= MAX_THRES_LIGHT))
    3050:	0003      	movs	r3, r0
    3052:	3b65      	subs	r3, #101	; 0x65
    3054:	b2db      	uxtb	r3, r3
	{
		inputOutput	=		ANALOG_LIGHT_SENSOR;
    3056:	221f      	movs	r2, #31
	if((analogInput > MIN_THRES_LIGHT) && (analogInput <= MAX_THRES_LIGHT))
    3058:	2b09      	cmp	r3, #9
    305a:	d801      	bhi.n	3060 <inputOutputConnection+0x10>
	else if((analogInput > MIN_THRES_NOTHING) && (analogInput <= MAX_THRES_NOTHING))
	{
		inputOutput	=		NOTHINGCONNECTED;
	}
	return inputOutput;
}
    305c:	0010      	movs	r0, r2
    305e:	4770      	bx	lr
	else if((analogInput > MIN_THRES_DIAL) && (analogInput <= MAX_THRES_DIAL))
    3060:	0001      	movs	r1, r0
    3062:	317d      	adds	r1, #125	; 0x7d
    3064:	b2c9      	uxtb	r1, r1
		inputOutput	=		ANALOG_DIAL;
    3066:	3a01      	subs	r2, #1
	else if((analogInput > MIN_THRES_DIAL) && (analogInput <= MAX_THRES_DIAL))
    3068:	2909      	cmp	r1, #9
    306a:	d9f7      	bls.n	305c <inputOutputConnection+0xc>
		inputOutput	=	    ANALOG_DISTANCE_SENSOR;
    306c:	3a01      	subs	r2, #1
	else if((analogInput > MIN_THRES_DISTANCE) && (analogInput <= MAX_THRES_DISTANCE))
    306e:	2b13      	cmp	r3, #19
    3070:	d9f4      	bls.n	305c <inputOutputConnection+0xc>
		inputOutput	=		ANALOG_SOUND_SENSOR;
    3072:	3a01      	subs	r2, #1
	else if((analogInput > MIN_THRES_SOUND) && (analogInput <= MAX_THRES_SOUND))
    3074:	0003      	movs	r3, r0
    3076:	3b6f      	subs	r3, #111	; 0x6f
    3078:	2b09      	cmp	r3, #9
    307a:	d9ef      	bls.n	305c <inputOutputConnection+0xc>
		inputOutput	=		OUTPUT_SERVO_POSITION;
    307c:	3a1a      	subs	r2, #26
	else if((analogInput > MIN_THRES_SERVO) && (analogInput <= MAX_THRES_SERVO))
    307e:	3328      	adds	r3, #40	; 0x28
    3080:	2b13      	cmp	r3, #19
    3082:	d9eb      	bls.n	305c <inputOutputConnection+0xc>
		inputOutput	=		OUTPUT_LEDMATRIX;
    3084:	3201      	adds	r2, #1
	else if((analogInput > MIN_THRES_LEDMATRIX) && (analogInput <= MAX_THRES_LEDMATRIX))
    3086:	3332      	adds	r3, #50	; 0x32
    3088:	2b1d      	cmp	r3, #29
    308a:	d9e7      	bls.n	305c <inputOutputConnection+0xc>
	else if((analogInput > MIN_THRES_PLACEVALUE) && (analogInput <= MAX_THRES_PLACEVALUE))
    308c:	3360      	adds	r3, #96	; 0x60
    308e:	b2db      	uxtb	r3, r3
		inputOutput	=		INPUT_PLACEVALUE;
    3090:	3218      	adds	r2, #24
	else if((analogInput > MIN_THRES_PLACEVALUE) && (analogInput <= MAX_THRES_PLACEVALUE))
    3092:	2b3b      	cmp	r3, #59	; 0x3b
    3094:	d9e2      	bls.n	305c <inputOutputConnection+0xc>
	uint8_t inputOutput = 100;
    3096:	3249      	adds	r2, #73	; 0x49
	else if((analogInput > MIN_THRES_NOTHING) && (analogInput <= MAX_THRES_NOTHING))
    3098:	28f0      	cmp	r0, #240	; 0xf0
    309a:	d9df      	bls.n	305c <inputOutputConnection+0xc>
		inputOutput	=		NOTHINGCONNECTED;
    309c:	2200      	movs	r2, #0
    309e:	e7dd      	b.n	305c <inputOutputConnection+0xc>

000030a0 <convertAnalogOutputs>:


void convertAnalogOutputs(uint8_t* analogOutput)
{
    30a0:	b5f8      	push	{r3, r4, r5, r6, r7, lr}
    30a2:	0006      	movs	r6, r0
    30a4:	4d34      	ldr	r5, [pc, #208]	; (3178 <convertAnalogOutputs+0xd8>)
    30a6:	2400      	movs	r4, #0
	uint8_t tempOutput = 0;
	uint8_t i =0;
	uint8_t tempOutputCount = 0;
	for(i=0;i<NO_OUTPUTS;i++)
	{
		tempOutput	=   inputOutputConnection(analogOutput[i]);
    30a8:	4f34      	ldr	r7, [pc, #208]	; (317c <convertAnalogOutputs+0xdc>)
    30aa:	e011      	b.n	30d0 <convertAnalogOutputs+0x30>
    30ac:	0029      	movs	r1, r5
				connecting[i] = true;
				tempOutputsConnected[i] = tempOutput;
			}
			else
			{
				if((connecting[i] == true) && (tempOutputsConnected[i] == tempOutput ))
    30ae:	782a      	ldrb	r2, [r5, #0]
    30b0:	2a01      	cmp	r2, #1
    30b2:	d020      	beq.n	30f6 <convertAnalogOutputs+0x56>
						countConnecting[i] = 0;
					}
				}
				else
				{
					connecting[i] = false;
    30b4:	2300      	movs	r3, #0
    30b6:	700b      	strb	r3, [r1, #0]
					countConnecting[i] = 0;
    30b8:	4a31      	ldr	r2, [pc, #196]	; (3180 <convertAnalogOutputs+0xe0>)
    30ba:	54a3      	strb	r3, [r4, r2]
					tempOutputsConnected[i] = NOTHINGCONNECTED;
    30bc:	4a31      	ldr	r2, [pc, #196]	; (3184 <convertAnalogOutputs+0xe4>)
    30be:	54a3      	strb	r3, [r4, r2]
				countDisconnection[i] = 0;
				outputsConnected[i]	= NOTHINGCONNECTED;
			}
		}
		
		previousOutputsConnected[i] = outputsConnected[i];
    30c0:	4b31      	ldr	r3, [pc, #196]	; (3188 <convertAnalogOutputs+0xe8>)
    30c2:	5d1a      	ldrb	r2, [r3, r4]
    30c4:	4b31      	ldr	r3, [pc, #196]	; (318c <convertAnalogOutputs+0xec>)
    30c6:	54e2      	strb	r2, [r4, r3]
    30c8:	3401      	adds	r4, #1
    30ca:	3501      	adds	r5, #1
	for(i=0;i<NO_OUTPUTS;i++)
    30cc:	2c04      	cmp	r4, #4
    30ce:	d03a      	beq.n	3146 <convertAnalogOutputs+0xa6>
		tempOutput	=   inputOutputConnection(analogOutput[i]);
    30d0:	5d30      	ldrb	r0, [r6, r4]
    30d2:	47b8      	blx	r7
    30d4:	1e03      	subs	r3, r0, #0
		if(tempOutput != NOTHINGCONNECTED)
    30d6:	d01f      	beq.n	3118 <convertAnalogOutputs+0x78>
			countDisconnection[i] = 0;
    30d8:	2200      	movs	r2, #0
    30da:	492d      	ldr	r1, [pc, #180]	; (3190 <convertAnalogOutputs+0xf0>)
    30dc:	5462      	strb	r2, [r4, r1]
			if((previousOutputsConnected[i] == NOTHINGCONNECTED) && (connecting[i] == false))
    30de:	4a2b      	ldr	r2, [pc, #172]	; (318c <convertAnalogOutputs+0xec>)
    30e0:	5ca2      	ldrb	r2, [r4, r2]
    30e2:	2a00      	cmp	r2, #0
    30e4:	d1e2      	bne.n	30ac <convertAnalogOutputs+0xc>
    30e6:	782a      	ldrb	r2, [r5, #0]
    30e8:	2a00      	cmp	r2, #0
    30ea:	d1df      	bne.n	30ac <convertAnalogOutputs+0xc>
				connecting[i] = true;
    30ec:	2301      	movs	r3, #1
    30ee:	702b      	strb	r3, [r5, #0]
				tempOutputsConnected[i] = tempOutput;
    30f0:	4b24      	ldr	r3, [pc, #144]	; (3184 <convertAnalogOutputs+0xe4>)
    30f2:	54e0      	strb	r0, [r4, r3]
    30f4:	e7e4      	b.n	30c0 <convertAnalogOutputs+0x20>
				if((connecting[i] == true) && (tempOutputsConnected[i] == tempOutput ))
    30f6:	4a23      	ldr	r2, [pc, #140]	; (3184 <convertAnalogOutputs+0xe4>)
    30f8:	5ca2      	ldrb	r2, [r4, r2]
    30fa:	429a      	cmp	r2, r3
    30fc:	d1da      	bne.n	30b4 <convertAnalogOutputs+0x14>
					countConnecting[i]++;
    30fe:	4a20      	ldr	r2, [pc, #128]	; (3180 <convertAnalogOutputs+0xe0>)
    3100:	5ca3      	ldrb	r3, [r4, r2]
    3102:	3301      	adds	r3, #1
    3104:	b2db      	uxtb	r3, r3
    3106:	54a3      	strb	r3, [r4, r2]
					if(countConnecting[i] > COUNT_CONNECTING_THRESHOLD)
    3108:	2b05      	cmp	r3, #5
    310a:	d9d9      	bls.n	30c0 <convertAnalogOutputs+0x20>
						outputsConnected[i] = tempOutput;
    310c:	4b1e      	ldr	r3, [pc, #120]	; (3188 <convertAnalogOutputs+0xe8>)
    310e:	5518      	strb	r0, [r3, r4]
						connecting[i] = false;
    3110:	2300      	movs	r3, #0
    3112:	702b      	strb	r3, [r5, #0]
						countConnecting[i] = 0;
    3114:	54a3      	strb	r3, [r4, r2]
    3116:	e7d3      	b.n	30c0 <convertAnalogOutputs+0x20>
			countDisconnection[i]++;
    3118:	4b1d      	ldr	r3, [pc, #116]	; (3190 <convertAnalogOutputs+0xf0>)
    311a:	5ce3      	ldrb	r3, [r4, r3]
    311c:	3301      	adds	r3, #1
    311e:	b2db      	uxtb	r3, r3
    3120:	4a1b      	ldr	r2, [pc, #108]	; (3190 <convertAnalogOutputs+0xf0>)
    3122:	54a3      	strb	r3, [r4, r2]
			if(countDisconnection[i] > COUNT_CONNECTING_THRESHOLD)
    3124:	2b05      	cmp	r3, #5
    3126:	d9cb      	bls.n	30c0 <convertAnalogOutputs+0x20>
				if(i==3)
    3128:	b2e3      	uxtb	r3, r4
    312a:	2b03      	cmp	r3, #3
    312c:	d006      	beq.n	313c <convertAnalogOutputs+0x9c>
				countDisconnection[i] = 0;
    312e:	2300      	movs	r3, #0
    3130:	4a17      	ldr	r2, [pc, #92]	; (3190 <convertAnalogOutputs+0xf0>)
    3132:	54a3      	strb	r3, [r4, r2]
				outputsConnected[i]	= NOTHINGCONNECTED;
    3134:	4a14      	ldr	r2, [pc, #80]	; (3188 <convertAnalogOutputs+0xe8>)
    3136:	18a2      	adds	r2, r4, r2
    3138:	7013      	strb	r3, [r2, #0]
    313a:	e7c1      	b.n	30c0 <convertAnalogOutputs+0x20>
					countDisconnection[3] = 0;
    313c:	2300      	movs	r3, #0
    313e:	70d3      	strb	r3, [r2, #3]
				    outputsConnected[3]	= NOTHINGCONNECTED;
    3140:	4a11      	ldr	r2, [pc, #68]	; (3188 <convertAnalogOutputs+0xe8>)
    3142:	70d3      	strb	r3, [r2, #3]
    3144:	e7f3      	b.n	312e <convertAnalogOutputs+0x8e>
	}
	temp_test_outputs_connected_1[temp_count] = analogOutput[0] ;
    3146:	4b13      	ldr	r3, [pc, #76]	; (3194 <convertAnalogOutputs+0xf4>)
    3148:	881b      	ldrh	r3, [r3, #0]
    314a:	7831      	ldrb	r1, [r6, #0]
    314c:	4a12      	ldr	r2, [pc, #72]	; (3198 <convertAnalogOutputs+0xf8>)
    314e:	54d1      	strb	r1, [r2, r3]
	temp_test_outputs_connected_2[temp_count] = analogOutput[1] ;
    3150:	7871      	ldrb	r1, [r6, #1]
    3152:	4a12      	ldr	r2, [pc, #72]	; (319c <convertAnalogOutputs+0xfc>)
    3154:	54d1      	strb	r1, [r2, r3]
	temp_test_outputs_connected_3[temp_count] = analogOutput[3] ;
    3156:	78f1      	ldrb	r1, [r6, #3]
    3158:	4a11      	ldr	r2, [pc, #68]	; (31a0 <convertAnalogOutputs+0x100>)
    315a:	54d1      	strb	r1, [r2, r3]
	
	temp_count++;
    315c:	3301      	adds	r3, #1
    315e:	b29b      	uxth	r3, r3
	if(temp_count == 500)
    3160:	22fa      	movs	r2, #250	; 0xfa
    3162:	0052      	lsls	r2, r2, #1
    3164:	4293      	cmp	r3, r2
    3166:	d002      	beq.n	316e <convertAnalogOutputs+0xce>
	temp_count++;
    3168:	4a0a      	ldr	r2, [pc, #40]	; (3194 <convertAnalogOutputs+0xf4>)
    316a:	8013      	strh	r3, [r2, #0]
	{
		temp_count = 0;
	}
	
}
    316c:	bdf8      	pop	{r3, r4, r5, r6, r7, pc}
		temp_count = 0;
    316e:	2200      	movs	r2, #0
    3170:	4b08      	ldr	r3, [pc, #32]	; (3194 <convertAnalogOutputs+0xf4>)
    3172:	801a      	strh	r2, [r3, #0]
}
    3174:	e7fa      	b.n	316c <convertAnalogOutputs+0xcc>
    3176:	46c0      	nop			; (mov r8, r8)
    3178:	20000204 	.word	0x20000204
    317c:	00003051 	.word	0x00003051
    3180:	2000020c 	.word	0x2000020c
    3184:	2000022c 	.word	0x2000022c
    3188:	20000fc4 	.word	0x20000fc4
    318c:	20000220 	.word	0x20000220
    3190:	20000214 	.word	0x20000214
    3194:	20000230 	.word	0x20000230
    3198:	20000810 	.word	0x20000810
    319c:	20000a04 	.word	0x20000a04
    31a0:	20000bf8 	.word	0x20000bf8

000031a4 <convertAnalogInputs>:




void convertAnalogInputs(uint8_t* analogInputs)
{
    31a4:	b5f8      	push	{r3, r4, r5, r6, r7, lr}
    31a6:	0006      	movs	r6, r0
    31a8:	4d30      	ldr	r5, [pc, #192]	; (326c <convertAnalogInputs+0xc8>)
    31aa:	2400      	movs	r4, #0
	uint8_t tempInput = 0;
	uint8_t i =0;
	uint8_t tempInputCount = 0;
	for(i=0;i<NO_SENSORS;i++)
	{
		tempInput			=		inputOutputConnection(analogInputs[i]);
    31ac:	4f30      	ldr	r7, [pc, #192]	; (3270 <convertAnalogInputs+0xcc>)
    31ae:	e011      	b.n	31d4 <convertAnalogInputs+0x30>
    31b0:	0029      	movs	r1, r5
				connecting[i] = true;
				tempInputsConnected[i] = tempInput;
			}
			else 
			{
				if((connecting[i] == true) && (tempInputsConnected[i] == tempInput ))
    31b2:	782a      	ldrb	r2, [r5, #0]
    31b4:	2a01      	cmp	r2, #1
    31b6:	d020      	beq.n	31fa <convertAnalogInputs+0x56>
						countConnecting[i] = 0;
					}
				}
				else
				{
					connecting[i] = false;
    31b8:	2300      	movs	r3, #0
    31ba:	700b      	strb	r3, [r1, #0]
					countConnecting[i] = 0;
    31bc:	4a2d      	ldr	r2, [pc, #180]	; (3274 <convertAnalogInputs+0xd0>)
    31be:	54a3      	strb	r3, [r4, r2]
					tempInputsConnected[i] = NOTHINGCONNECTED;
    31c0:	4a2d      	ldr	r2, [pc, #180]	; (3278 <convertAnalogInputs+0xd4>)
    31c2:	54a3      	strb	r3, [r4, r2]
				countDisconnection[i]	= 0;
				inputsConnected[i]		= NOTHINGCONNECTED;
			}
		}
		
		previousInputsConnected[i] = inputsConnected[i];
    31c4:	4b2d      	ldr	r3, [pc, #180]	; (327c <convertAnalogInputs+0xd8>)
    31c6:	5d1a      	ldrb	r2, [r3, r4]
    31c8:	4b2d      	ldr	r3, [pc, #180]	; (3280 <convertAnalogInputs+0xdc>)
    31ca:	54e2      	strb	r2, [r4, r3]
    31cc:	3401      	adds	r4, #1
    31ce:	3501      	adds	r5, #1
	for(i=0;i<NO_SENSORS;i++)
    31d0:	2c03      	cmp	r4, #3
    31d2:	d033      	beq.n	323c <convertAnalogInputs+0x98>
		tempInput			=		inputOutputConnection(analogInputs[i]);
    31d4:	5d30      	ldrb	r0, [r6, r4]
    31d6:	47b8      	blx	r7
    31d8:	1e03      	subs	r3, r0, #0
		if(tempInput != NOTHINGCONNECTED)
    31da:	d01f      	beq.n	321c <convertAnalogInputs+0x78>
			countDisconnection[i] = 0;
    31dc:	2200      	movs	r2, #0
    31de:	4929      	ldr	r1, [pc, #164]	; (3284 <convertAnalogInputs+0xe0>)
    31e0:	5462      	strb	r2, [r4, r1]
			if((previousInputsConnected[i] == NOTHINGCONNECTED) && (connecting[i] == false))
    31e2:	4a27      	ldr	r2, [pc, #156]	; (3280 <convertAnalogInputs+0xdc>)
    31e4:	5ca2      	ldrb	r2, [r4, r2]
    31e6:	2a00      	cmp	r2, #0
    31e8:	d1e2      	bne.n	31b0 <convertAnalogInputs+0xc>
    31ea:	782a      	ldrb	r2, [r5, #0]
    31ec:	2a00      	cmp	r2, #0
    31ee:	d1df      	bne.n	31b0 <convertAnalogInputs+0xc>
				connecting[i] = true;
    31f0:	2301      	movs	r3, #1
    31f2:	702b      	strb	r3, [r5, #0]
				tempInputsConnected[i] = tempInput;
    31f4:	4b20      	ldr	r3, [pc, #128]	; (3278 <convertAnalogInputs+0xd4>)
    31f6:	54e0      	strb	r0, [r4, r3]
    31f8:	e7e4      	b.n	31c4 <convertAnalogInputs+0x20>
				if((connecting[i] == true) && (tempInputsConnected[i] == tempInput ))
    31fa:	4a1f      	ldr	r2, [pc, #124]	; (3278 <convertAnalogInputs+0xd4>)
    31fc:	5ca2      	ldrb	r2, [r4, r2]
    31fe:	429a      	cmp	r2, r3
    3200:	d1da      	bne.n	31b8 <convertAnalogInputs+0x14>
					countConnecting[i]++;
    3202:	4a1c      	ldr	r2, [pc, #112]	; (3274 <convertAnalogInputs+0xd0>)
    3204:	5ca3      	ldrb	r3, [r4, r2]
    3206:	3301      	adds	r3, #1
    3208:	b2db      	uxtb	r3, r3
    320a:	54a3      	strb	r3, [r4, r2]
					if(countConnecting[i] > COUNT_CONNECTING_THRESHOLD)
    320c:	2b05      	cmp	r3, #5
    320e:	d9d9      	bls.n	31c4 <convertAnalogInputs+0x20>
						inputsConnected[i] = tempInput;
    3210:	4b1a      	ldr	r3, [pc, #104]	; (327c <convertAnalogInputs+0xd8>)
    3212:	5518      	strb	r0, [r3, r4]
						connecting[i] = false;
    3214:	2300      	movs	r3, #0
    3216:	702b      	strb	r3, [r5, #0]
						countConnecting[i] = 0;
    3218:	54a3      	strb	r3, [r4, r2]
    321a:	e7d3      	b.n	31c4 <convertAnalogInputs+0x20>
			countDisconnection[i]++;
    321c:	4b19      	ldr	r3, [pc, #100]	; (3284 <convertAnalogInputs+0xe0>)
    321e:	5ce3      	ldrb	r3, [r4, r3]
    3220:	3301      	adds	r3, #1
    3222:	b2db      	uxtb	r3, r3
			if(countDisconnection[i] > COUNT_CONNECTING_THRESHOLD)
    3224:	2b05      	cmp	r3, #5
    3226:	d802      	bhi.n	322e <convertAnalogInputs+0x8a>
			countDisconnection[i]++;
    3228:	4a16      	ldr	r2, [pc, #88]	; (3284 <convertAnalogInputs+0xe0>)
    322a:	54a3      	strb	r3, [r4, r2]
    322c:	e7ca      	b.n	31c4 <convertAnalogInputs+0x20>
				countDisconnection[i]	= 0;
    322e:	2300      	movs	r3, #0
    3230:	4a14      	ldr	r2, [pc, #80]	; (3284 <convertAnalogInputs+0xe0>)
    3232:	54a3      	strb	r3, [r4, r2]
				inputsConnected[i]		= NOTHINGCONNECTED;
    3234:	4a11      	ldr	r2, [pc, #68]	; (327c <convertAnalogInputs+0xd8>)
    3236:	18a2      	adds	r2, r4, r2
    3238:	7013      	strb	r3, [r2, #0]
    323a:	e7c3      	b.n	31c4 <convertAnalogInputs+0x20>
	{
		NoInDevCon = tempInputCount;
	}
	*/
	
	temp_test_inputs_connected_1[temp_count] = analogInputs[0] ;
    323c:	4b12      	ldr	r3, [pc, #72]	; (3288 <convertAnalogInputs+0xe4>)
    323e:	881b      	ldrh	r3, [r3, #0]
    3240:	7831      	ldrb	r1, [r6, #0]
    3242:	4a12      	ldr	r2, [pc, #72]	; (328c <convertAnalogInputs+0xe8>)
    3244:	54d1      	strb	r1, [r2, r3]
	temp_test_inputs_connected_2[temp_count] = analogInputs[1];
    3246:	7871      	ldrb	r1, [r6, #1]
    3248:	4a11      	ldr	r2, [pc, #68]	; (3290 <convertAnalogInputs+0xec>)
    324a:	54d1      	strb	r1, [r2, r3]
	temp_test_inputs_connected_3[temp_count] = analogInputs[2] ;
    324c:	78b1      	ldrb	r1, [r6, #2]
    324e:	4a11      	ldr	r2, [pc, #68]	; (3294 <convertAnalogInputs+0xf0>)
    3250:	54d1      	strb	r1, [r2, r3]
	
	temp_count++;
    3252:	3301      	adds	r3, #1
    3254:	b29b      	uxth	r3, r3
	if(temp_count == 500)
    3256:	22fa      	movs	r2, #250	; 0xfa
    3258:	0052      	lsls	r2, r2, #1
    325a:	4293      	cmp	r3, r2
    325c:	d002      	beq.n	3264 <convertAnalogInputs+0xc0>
	temp_count++;
    325e:	4a0a      	ldr	r2, [pc, #40]	; (3288 <convertAnalogInputs+0xe4>)
    3260:	8013      	strh	r3, [r2, #0]
	{
		temp_count = 0;
	}
}
    3262:	bdf8      	pop	{r3, r4, r5, r6, r7, pc}
		temp_count = 0;
    3264:	2200      	movs	r2, #0
    3266:	4b08      	ldr	r3, [pc, #32]	; (3288 <convertAnalogInputs+0xe4>)
    3268:	801a      	strh	r2, [r3, #0]
}
    326a:	e7fa      	b.n	3262 <convertAnalogInputs+0xbe>
    326c:	20000208 	.word	0x20000208
    3270:	00003051 	.word	0x00003051
    3274:	20000210 	.word	0x20000210
    3278:	20000228 	.word	0x20000228
    327c:	20000e10 	.word	0x20000e10
    3280:	2000021c 	.word	0x2000021c
    3284:	20000218 	.word	0x20000218
    3288:	20000232 	.word	0x20000232
    328c:	20000234 	.word	0x20000234
    3290:	20000428 	.word	0x20000428
    3294:	2000061c 	.word	0x2000061c

00003298 <checkOutputs>:



void checkOutputs()
{
    3298:	b5f8      	push	{r3, r4, r5, r6, r7, lr}
    329a:	2400      	movs	r4, #0
	uint8_t i =0;
	static uint8_t analogOutput[4];
	for(i=0;i<4;i++)
	{
		analogOutput[i] = adc_start_read_result(outputDetectAnalogChannles[i]);
    329c:	4f06      	ldr	r7, [pc, #24]	; (32b8 <checkOutputs+0x20>)
    329e:	4e07      	ldr	r6, [pc, #28]	; (32bc <checkOutputs+0x24>)
    32a0:	4d07      	ldr	r5, [pc, #28]	; (32c0 <checkOutputs+0x28>)
    32a2:	5de0      	ldrb	r0, [r4, r7]
    32a4:	47b0      	blx	r6
    32a6:	5560      	strb	r0, [r4, r5]
    32a8:	3401      	adds	r4, #1
	for(i=0;i<4;i++)
    32aa:	2c04      	cmp	r4, #4
    32ac:	d1f9      	bne.n	32a2 <checkOutputs+0xa>
	}
	convertAnalogOutputs(analogOutput);
    32ae:	4804      	ldr	r0, [pc, #16]	; (32c0 <checkOutputs+0x28>)
    32b0:	4b04      	ldr	r3, [pc, #16]	; (32c4 <checkOutputs+0x2c>)
    32b2:	4798      	blx	r3
}
    32b4:	bdf8      	pop	{r3, r4, r5, r6, r7, pc}
    32b6:	46c0      	nop			; (mov r8, r8)
    32b8:	00005a74 	.word	0x00005a74
    32bc:	00002c69 	.word	0x00002c69
    32c0:	20000200 	.word	0x20000200
    32c4:	000030a1 	.word	0x000030a1

000032c8 <checkInputs>:


void checkInputs()
{
    32c8:	b570      	push	{r4, r5, r6, lr}
	uint8_t i =0;
	static uint8_t analogInput[4];
	for(i=0;i<3;i++)
	{
		analogInput[i]			= adc_start_read_result(sensorDetectAnalogChannles[i]);
    32ca:	200e      	movs	r0, #14
    32cc:	4d06      	ldr	r5, [pc, #24]	; (32e8 <checkInputs+0x20>)
    32ce:	47a8      	blx	r5
    32d0:	4c06      	ldr	r4, [pc, #24]	; (32ec <checkInputs+0x24>)
    32d2:	7020      	strb	r0, [r4, #0]
    32d4:	200d      	movs	r0, #13
    32d6:	47a8      	blx	r5
    32d8:	7060      	strb	r0, [r4, #1]
    32da:	2012      	movs	r0, #18
    32dc:	47a8      	blx	r5
    32de:	70a0      	strb	r0, [r4, #2]
	}
	convertAnalogInputs(analogInput);
    32e0:	0020      	movs	r0, r4
    32e2:	4b03      	ldr	r3, [pc, #12]	; (32f0 <checkInputs+0x28>)
    32e4:	4798      	blx	r3
}
    32e6:	bd70      	pop	{r4, r5, r6, pc}
    32e8:	00002c69 	.word	0x00002c69
    32ec:	200001fc 	.word	0x200001fc
    32f0:	000031a5 	.word	0x000031a5

000032f4 <loadIdentifier>:
	uint32_t temp				= 0;
	uint8_t  i					= 0;
	
	for(i=0;i<NO_OUTPUTS;i++)
	{
		temp		         =  outputsConnected[i];
    32f4:	4a12      	ldr	r2, [pc, #72]	; (3340 <loadIdentifier+0x4c>)
    32f6:	7813      	ldrb	r3, [r2, #0]
		current_identifier  |=  temp << (28 - 4*i);
    32f8:	071b      	lsls	r3, r3, #28
		temp		         =  outputsConnected[i];
    32fa:	7851      	ldrb	r1, [r2, #1]
		current_identifier  |=  temp << (28 - 4*i);
    32fc:	0609      	lsls	r1, r1, #24
    32fe:	430b      	orrs	r3, r1
	}
	
	for(i=0;i<NO_SENSORS;i++)
	{
		temp		  =  inputsConnected[i];
    3300:	4910      	ldr	r1, [pc, #64]	; (3344 <loadIdentifier+0x50>)
    3302:	7808      	ldrb	r0, [r1, #0]
		current_identifier  |=  temp << (11-(5*i));
    3304:	02c0      	lsls	r0, r0, #11
    3306:	4303      	orrs	r3, r0
		temp		  =  inputsConnected[i];
    3308:	7848      	ldrb	r0, [r1, #1]
		current_identifier  |=  temp << (11-(5*i));
    330a:	0180      	lsls	r0, r0, #6
    330c:	4303      	orrs	r3, r0
		temp		         =  outputsConnected[i];
    330e:	7890      	ldrb	r0, [r2, #2]
		current_identifier  |=  temp << (28 - 4*i);
    3310:	0500      	lsls	r0, r0, #20
    3312:	4303      	orrs	r3, r0
		temp		  =  inputsConnected[i];
    3314:	7889      	ldrb	r1, [r1, #2]
		current_identifier  |=  temp << (11-(5*i));
    3316:	0049      	lsls	r1, r1, #1
    3318:	430b      	orrs	r3, r1
		temp		         =  outputsConnected[i];
    331a:	78d2      	ldrb	r2, [r2, #3]
		current_identifier  |=  temp << (28 - 4*i);
    331c:	0412      	lsls	r2, r2, #16
		current_identifier  |=  temp << (11-(5*i));
    331e:	4313      	orrs	r3, r2
	}

	if(current_identifier != previous_identifier)
    3320:	4a09      	ldr	r2, [pc, #36]	; (3348 <loadIdentifier+0x54>)
    3322:	6812      	ldr	r2, [r2, #0]
    3324:	4293      	cmp	r3, r2
    3326:	d009      	beq.n	333c <loadIdentifier+0x48>
	{
		for(i=0;i<4;i++)
		{
			sensorOutputs[i] = (current_identifier >> 8* (3-i)) & 0x000000FF ;
    3328:	4a08      	ldr	r2, [pc, #32]	; (334c <loadIdentifier+0x58>)
    332a:	0e19      	lsrs	r1, r3, #24
    332c:	7011      	strb	r1, [r2, #0]
    332e:	0c19      	lsrs	r1, r3, #16
    3330:	7051      	strb	r1, [r2, #1]
    3332:	0a19      	lsrs	r1, r3, #8
    3334:	7091      	strb	r1, [r2, #2]
    3336:	70d3      	strb	r3, [r2, #3]
		}
		previous_identifier = current_identifier;
    3338:	4a03      	ldr	r2, [pc, #12]	; (3348 <loadIdentifier+0x54>)
    333a:	6013      	str	r3, [r2, #0]
	}
}
    333c:	4770      	bx	lr
    333e:	46c0      	nop			; (mov r8, r8)
    3340:	20000fc4 	.word	0x20000fc4
    3344:	20000e10 	.word	0x20000e10
    3348:	20000224 	.word	0x20000224
    334c:	20000fc8 	.word	0x20000fc8

00003350 <checkOutputsInputs>:

void checkOutputsInputs()
{
    3350:	b510      	push	{r4, lr}
	checkOutputs();
    3352:	4b03      	ldr	r3, [pc, #12]	; (3360 <checkOutputsInputs+0x10>)
    3354:	4798      	blx	r3
	checkInputs();
    3356:	4b03      	ldr	r3, [pc, #12]	; (3364 <checkOutputsInputs+0x14>)
    3358:	4798      	blx	r3
	loadIdentifier(); //Set the identifier which will be used in the notifications by the Bluetooth
    335a:	4b03      	ldr	r3, [pc, #12]	; (3368 <checkOutputsInputs+0x18>)
    335c:	4798      	blx	r3
}
    335e:	bd10      	pop	{r4, pc}
    3360:	00003299 	.word	0x00003299
    3364:	000032c9 	.word	0x000032c9
    3368:	000032f5 	.word	0x000032f5

0000336c <configureInputOutputDetection>:


void configureInputOutputDetection()
{
    336c:	b510      	push	{r4, lr}
	configureADC();
    336e:	4b01      	ldr	r3, [pc, #4]	; (3374 <configureInputOutputDetection+0x8>)
    3370:	4798      	blx	r3
    3372:	bd10      	pop	{r4, pc}
    3374:	00002be1 	.word	0x00002be1

00003378 <system_board_init>:
{
	/* This function is meant to contain board-specific initialization code
	 * for, e.g., the I/O pins. The initialization can rely on application-
	 * specific board configuration, found in conf_board.h.
	 */
    3378:	4770      	bx	lr
	...

0000337c <cpu_irq_enter_critical>:
volatile bool g_interrupt_enabled = true;
#endif

void cpu_irq_enter_critical(void)
{
	if (cpu_irq_critical_section_counter == 0) {
    337c:	4b0c      	ldr	r3, [pc, #48]	; (33b0 <cpu_irq_enter_critical+0x34>)
    337e:	681b      	ldr	r3, [r3, #0]
    3380:	2b00      	cmp	r3, #0
    3382:	d106      	bne.n	3392 <cpu_irq_enter_critical+0x16>
 */
__attribute__( ( always_inline ) ) __STATIC_INLINE uint32_t __get_PRIMASK(void)
{
  uint32_t result;

  __ASM volatile ("MRS %0, primask" : "=r" (result) );
    3384:	f3ef 8310 	mrs	r3, PRIMASK
		if (cpu_irq_is_enabled()) {
    3388:	2b00      	cmp	r3, #0
    338a:	d007      	beq.n	339c <cpu_irq_enter_critical+0x20>
			cpu_irq_disable();
			cpu_irq_prev_interrupt_state = true;
		} else {
			/* Make sure the to save the prev state as false */
			cpu_irq_prev_interrupt_state = false;
    338c:	2200      	movs	r2, #0
    338e:	4b09      	ldr	r3, [pc, #36]	; (33b4 <cpu_irq_enter_critical+0x38>)
    3390:	701a      	strb	r2, [r3, #0]
		}

	}

	cpu_irq_critical_section_counter++;
    3392:	4a07      	ldr	r2, [pc, #28]	; (33b0 <cpu_irq_enter_critical+0x34>)
    3394:	6813      	ldr	r3, [r2, #0]
    3396:	3301      	adds	r3, #1
    3398:	6013      	str	r3, [r2, #0]
}
    339a:	4770      	bx	lr
  __ASM volatile ("cpsid i" : : : "memory");
    339c:	b672      	cpsid	i
    This function ensures the apparent order of the explicit memory operations before
    and after the instruction, without ensuring their completion.
 */
__attribute__( ( always_inline ) ) __STATIC_INLINE void __DMB(void)
{
  __ASM volatile ("dmb");
    339e:	f3bf 8f5f 	dmb	sy
			cpu_irq_disable();
    33a2:	2200      	movs	r2, #0
    33a4:	4b04      	ldr	r3, [pc, #16]	; (33b8 <cpu_irq_enter_critical+0x3c>)
    33a6:	701a      	strb	r2, [r3, #0]
			cpu_irq_prev_interrupt_state = true;
    33a8:	3201      	adds	r2, #1
    33aa:	4b02      	ldr	r3, [pc, #8]	; (33b4 <cpu_irq_enter_critical+0x38>)
    33ac:	701a      	strb	r2, [r3, #0]
    33ae:	e7f0      	b.n	3392 <cpu_irq_enter_critical+0x16>
    33b0:	20000dec 	.word	0x20000dec
    33b4:	20000df0 	.word	0x20000df0
    33b8:	20000054 	.word	0x20000054

000033bc <cpu_irq_leave_critical>:
void cpu_irq_leave_critical(void)
{
	/* Check if the user is trying to leave a critical section when not in a critical section */
	Assert(cpu_irq_critical_section_counter > 0);

	cpu_irq_critical_section_counter--;
    33bc:	4b08      	ldr	r3, [pc, #32]	; (33e0 <cpu_irq_leave_critical+0x24>)
    33be:	681a      	ldr	r2, [r3, #0]
    33c0:	3a01      	subs	r2, #1
    33c2:	601a      	str	r2, [r3, #0]

	/* Only enable global interrupts when the counter reaches 0 and the state of the global interrupt flag
	   was enabled when entering critical state */
	if ((cpu_irq_critical_section_counter == 0) && (cpu_irq_prev_interrupt_state)) {
    33c4:	681b      	ldr	r3, [r3, #0]
    33c6:	2b00      	cmp	r3, #0
    33c8:	d109      	bne.n	33de <cpu_irq_leave_critical+0x22>
    33ca:	4b06      	ldr	r3, [pc, #24]	; (33e4 <cpu_irq_leave_critical+0x28>)
    33cc:	781b      	ldrb	r3, [r3, #0]
    33ce:	2b00      	cmp	r3, #0
    33d0:	d005      	beq.n	33de <cpu_irq_leave_critical+0x22>
		cpu_irq_enable();
    33d2:	2201      	movs	r2, #1
    33d4:	4b04      	ldr	r3, [pc, #16]	; (33e8 <cpu_irq_leave_critical+0x2c>)
    33d6:	701a      	strb	r2, [r3, #0]
    33d8:	f3bf 8f5f 	dmb	sy
  __ASM volatile ("cpsie i" : : : "memory");
    33dc:	b662      	cpsie	i
	}
}
    33de:	4770      	bx	lr
    33e0:	20000dec 	.word	0x20000dec
    33e4:	20000df0 	.word	0x20000df0
    33e8:	20000054 	.word	0x20000054

000033ec <system_clock_source_get_hz>:
 *
 * \returns Frequency of the given clock source, in Hz.
 */
uint32_t system_clock_source_get_hz(
		const enum system_clock_source clock_source)
{
    33ec:	b510      	push	{r4, lr}
	switch (clock_source) {
    33ee:	2808      	cmp	r0, #8
    33f0:	d803      	bhi.n	33fa <system_clock_source_get_hz+0xe>
    33f2:	0080      	lsls	r0, r0, #2
    33f4:	4b1b      	ldr	r3, [pc, #108]	; (3464 <system_clock_source_get_hz+0x78>)
    33f6:	581b      	ldr	r3, [r3, r0]
    33f8:	469f      	mov	pc, r3

		return _system_clock_inst.dpll.frequency;
#endif

	default:
		return 0;
    33fa:	2000      	movs	r0, #0
    33fc:	e030      	b.n	3460 <system_clock_source_get_hz+0x74>
		return _system_clock_inst.xosc.frequency;
    33fe:	4b1a      	ldr	r3, [pc, #104]	; (3468 <system_clock_source_get_hz+0x7c>)
    3400:	6918      	ldr	r0, [r3, #16]
    3402:	e02d      	b.n	3460 <system_clock_source_get_hz+0x74>
		return 8000000UL >> SYSCTRL->OSC8M.bit.PRESC;
    3404:	4b19      	ldr	r3, [pc, #100]	; (346c <system_clock_source_get_hz+0x80>)
    3406:	6a1b      	ldr	r3, [r3, #32]
    3408:	059b      	lsls	r3, r3, #22
    340a:	0f9b      	lsrs	r3, r3, #30
    340c:	4818      	ldr	r0, [pc, #96]	; (3470 <system_clock_source_get_hz+0x84>)
    340e:	40d8      	lsrs	r0, r3
    3410:	e026      	b.n	3460 <system_clock_source_get_hz+0x74>
		return _system_clock_inst.xosc32k.frequency;
    3412:	4b15      	ldr	r3, [pc, #84]	; (3468 <system_clock_source_get_hz+0x7c>)
    3414:	6958      	ldr	r0, [r3, #20]
    3416:	e023      	b.n	3460 <system_clock_source_get_hz+0x74>
		if (!(_system_clock_inst.dfll.control & SYSCTRL_DFLLCTRL_ENABLE))
    3418:	4b13      	ldr	r3, [pc, #76]	; (3468 <system_clock_source_get_hz+0x7c>)
    341a:	681b      	ldr	r3, [r3, #0]
			return 0;
    341c:	2000      	movs	r0, #0
		if (!(_system_clock_inst.dfll.control & SYSCTRL_DFLLCTRL_ENABLE))
    341e:	079b      	lsls	r3, r3, #30
    3420:	d51e      	bpl.n	3460 <system_clock_source_get_hz+0x74>
	while (!(SYSCTRL->PCLKSR.reg & SYSCTRL_PCLKSR_DFLLRDY)) {
    3422:	4912      	ldr	r1, [pc, #72]	; (346c <system_clock_source_get_hz+0x80>)
    3424:	2210      	movs	r2, #16
    3426:	68cb      	ldr	r3, [r1, #12]
    3428:	421a      	tst	r2, r3
    342a:	d0fc      	beq.n	3426 <system_clock_source_get_hz+0x3a>
		if (_system_clock_inst.dfll.control & SYSCTRL_DFLLCTRL_MODE) {
    342c:	4b0e      	ldr	r3, [pc, #56]	; (3468 <system_clock_source_get_hz+0x7c>)
    342e:	681b      	ldr	r3, [r3, #0]
    3430:	075b      	lsls	r3, r3, #29
    3432:	d401      	bmi.n	3438 <system_clock_source_get_hz+0x4c>
		return 48000000UL;
    3434:	480f      	ldr	r0, [pc, #60]	; (3474 <system_clock_source_get_hz+0x88>)
    3436:	e013      	b.n	3460 <system_clock_source_get_hz+0x74>
			return system_gclk_chan_get_hz(SYSCTRL_GCLK_ID_DFLL48) *
    3438:	2000      	movs	r0, #0
    343a:	4b0f      	ldr	r3, [pc, #60]	; (3478 <system_clock_source_get_hz+0x8c>)
    343c:	4798      	blx	r3
					(_system_clock_inst.dfll.mul & 0xffff);
    343e:	4b0a      	ldr	r3, [pc, #40]	; (3468 <system_clock_source_get_hz+0x7c>)
    3440:	689b      	ldr	r3, [r3, #8]
    3442:	041b      	lsls	r3, r3, #16
    3444:	0c1b      	lsrs	r3, r3, #16
			return system_gclk_chan_get_hz(SYSCTRL_GCLK_ID_DFLL48) *
    3446:	4358      	muls	r0, r3
    3448:	e00a      	b.n	3460 <system_clock_source_get_hz+0x74>
		if (!(SYSCTRL->DPLLSTATUS.reg & SYSCTRL_DPLLSTATUS_ENABLE)) {
    344a:	2350      	movs	r3, #80	; 0x50
    344c:	4a07      	ldr	r2, [pc, #28]	; (346c <system_clock_source_get_hz+0x80>)
    344e:	5cd3      	ldrb	r3, [r2, r3]
			return 0;
    3450:	2000      	movs	r0, #0
		if (!(SYSCTRL->DPLLSTATUS.reg & SYSCTRL_DPLLSTATUS_ENABLE)) {
    3452:	075b      	lsls	r3, r3, #29
    3454:	d504      	bpl.n	3460 <system_clock_source_get_hz+0x74>
		return _system_clock_inst.dpll.frequency;
    3456:	4b04      	ldr	r3, [pc, #16]	; (3468 <system_clock_source_get_hz+0x7c>)
    3458:	68d8      	ldr	r0, [r3, #12]
    345a:	e001      	b.n	3460 <system_clock_source_get_hz+0x74>
		return 32768UL;
    345c:	2080      	movs	r0, #128	; 0x80
    345e:	0200      	lsls	r0, r0, #8
	}
}
    3460:	bd10      	pop	{r4, pc}
    3462:	46c0      	nop			; (mov r8, r8)
    3464:	00005a78 	.word	0x00005a78
    3468:	20000df4 	.word	0x20000df4
    346c:	40000800 	.word	0x40000800
    3470:	007a1200 	.word	0x007a1200
    3474:	02dc6c00 	.word	0x02dc6c00
    3478:	00003a2d 	.word	0x00003a2d

0000347c <system_clock_source_osc8m_set_config>:
 *
 * \param[in] config  OSC8M configuration structure containing the new config
 */
void system_clock_source_osc8m_set_config(
		struct system_clock_source_osc8m_config *const config)
{
    347c:	b570      	push	{r4, r5, r6, lr}
	SYSCTRL_OSC8M_Type temp = SYSCTRL->OSC8M;
    347e:	490c      	ldr	r1, [pc, #48]	; (34b0 <system_clock_source_osc8m_set_config+0x34>)
    3480:	6a0b      	ldr	r3, [r1, #32]

	/* Use temporary struct to reduce register access */
	temp.bit.PRESC    = config->prescaler;
    3482:	7804      	ldrb	r4, [r0, #0]
	temp.bit.ONDEMAND = config->on_demand;
    3484:	7885      	ldrb	r5, [r0, #2]
	temp.bit.RUNSTDBY = config->run_in_standby;

	SYSCTRL->OSC8M = temp;
    3486:	7840      	ldrb	r0, [r0, #1]
    3488:	2201      	movs	r2, #1
    348a:	4010      	ands	r0, r2
    348c:	0180      	lsls	r0, r0, #6
    348e:	2640      	movs	r6, #64	; 0x40
    3490:	43b3      	bics	r3, r6
    3492:	4303      	orrs	r3, r0
    3494:	402a      	ands	r2, r5
    3496:	01d2      	lsls	r2, r2, #7
    3498:	2080      	movs	r0, #128	; 0x80
    349a:	4383      	bics	r3, r0
    349c:	4313      	orrs	r3, r2
    349e:	2203      	movs	r2, #3
    34a0:	4022      	ands	r2, r4
    34a2:	0212      	lsls	r2, r2, #8
    34a4:	4803      	ldr	r0, [pc, #12]	; (34b4 <system_clock_source_osc8m_set_config+0x38>)
    34a6:	4003      	ands	r3, r0
    34a8:	4313      	orrs	r3, r2
    34aa:	620b      	str	r3, [r1, #32]
}
    34ac:	bd70      	pop	{r4, r5, r6, pc}
    34ae:	46c0      	nop			; (mov r8, r8)
    34b0:	40000800 	.word	0x40000800
    34b4:	fffffcff 	.word	0xfffffcff

000034b8 <system_clock_source_osc32k_set_config>:
 *
 * \param[in] config  OSC32K configuration structure containing the new config
 */
void system_clock_source_osc32k_set_config(
		struct system_clock_source_osc32k_config *const config)
{
    34b8:	b5f0      	push	{r4, r5, r6, r7, lr}
    34ba:	46ce      	mov	lr, r9
    34bc:	4647      	mov	r7, r8
    34be:	b580      	push	{r7, lr}
	SYSCTRL_OSC32K_Type temp = SYSCTRL->OSC32K;
    34c0:	4b19      	ldr	r3, [pc, #100]	; (3528 <system_clock_source_osc32k_set_config+0x70>)
    34c2:	4699      	mov	r9, r3
    34c4:	699b      	ldr	r3, [r3, #24]

	/* Update settings via a temporary struct to reduce register access */
	temp.bit.EN1K     = config->enable_1khz_output;
    34c6:	7841      	ldrb	r1, [r0, #1]
    34c8:	468c      	mov	ip, r1
	temp.bit.EN32K    = config->enable_32khz_output;
	temp.bit.STARTUP  = config->startup_time;
    34ca:	7805      	ldrb	r5, [r0, #0]
	temp.bit.ONDEMAND = config->on_demand;
    34cc:	7906      	ldrb	r6, [r0, #4]
	temp.bit.RUNSTDBY = config->run_in_standby;
    34ce:	78c7      	ldrb	r7, [r0, #3]
	temp.bit.WRTLOCK  = config->write_once;
    34d0:	7944      	ldrb	r4, [r0, #5]

	SYSCTRL->OSC32K  = temp;
    34d2:	7880      	ldrb	r0, [r0, #2]
    34d4:	2101      	movs	r1, #1
    34d6:	4008      	ands	r0, r1
    34d8:	0080      	lsls	r0, r0, #2
    34da:	2204      	movs	r2, #4
    34dc:	4393      	bics	r3, r2
    34de:	4303      	orrs	r3, r0
    34e0:	4660      	mov	r0, ip
    34e2:	4008      	ands	r0, r1
    34e4:	00c0      	lsls	r0, r0, #3
    34e6:	3204      	adds	r2, #4
    34e8:	4393      	bics	r3, r2
    34ea:	4303      	orrs	r3, r0
    34ec:	0038      	movs	r0, r7
    34ee:	4008      	ands	r0, r1
    34f0:	0180      	lsls	r0, r0, #6
    34f2:	2740      	movs	r7, #64	; 0x40
    34f4:	43bb      	bics	r3, r7
    34f6:	4303      	orrs	r3, r0
    34f8:	0030      	movs	r0, r6
    34fa:	4008      	ands	r0, r1
    34fc:	01c0      	lsls	r0, r0, #7
    34fe:	2680      	movs	r6, #128	; 0x80
    3500:	43b3      	bics	r3, r6
    3502:	4303      	orrs	r3, r0
    3504:	2007      	movs	r0, #7
    3506:	4005      	ands	r5, r0
    3508:	022d      	lsls	r5, r5, #8
    350a:	4808      	ldr	r0, [pc, #32]	; (352c <system_clock_source_osc32k_set_config+0x74>)
    350c:	4003      	ands	r3, r0
    350e:	432b      	orrs	r3, r5
    3510:	4021      	ands	r1, r4
    3512:	0309      	lsls	r1, r1, #12
    3514:	4806      	ldr	r0, [pc, #24]	; (3530 <system_clock_source_osc32k_set_config+0x78>)
    3516:	4003      	ands	r3, r0
    3518:	430b      	orrs	r3, r1
    351a:	464a      	mov	r2, r9
    351c:	6193      	str	r3, [r2, #24]
}
    351e:	bc0c      	pop	{r2, r3}
    3520:	4690      	mov	r8, r2
    3522:	4699      	mov	r9, r3
    3524:	bdf0      	pop	{r4, r5, r6, r7, pc}
    3526:	46c0      	nop			; (mov r8, r8)
    3528:	40000800 	.word	0x40000800
    352c:	fffff8ff 	.word	0xfffff8ff
    3530:	ffffefff 	.word	0xffffefff

00003534 <system_clock_source_dfll_set_config>:
 *
 * \param[in] config  DFLL configuration structure containing the new config
 */
void system_clock_source_dfll_set_config(
		struct system_clock_source_dfll_config *const config)
{
    3534:	b510      	push	{r4, lr}
	_system_clock_inst.dfll.val =
			SYSCTRL_DFLLVAL_COARSE(config->coarse_value) |
    3536:	7a03      	ldrb	r3, [r0, #8]
    3538:	069b      	lsls	r3, r3, #26
    353a:	0c1b      	lsrs	r3, r3, #16
			SYSCTRL_DFLLVAL_FINE(config->fine_value);
    353c:	8942      	ldrh	r2, [r0, #10]
    353e:	0592      	lsls	r2, r2, #22
    3540:	0d92      	lsrs	r2, r2, #22
			SYSCTRL_DFLLVAL_COARSE(config->coarse_value) |
    3542:	4313      	orrs	r3, r2
	_system_clock_inst.dfll.val =
    3544:	4918      	ldr	r1, [pc, #96]	; (35a8 <system_clock_source_dfll_set_config+0x74>)
    3546:	604b      	str	r3, [r1, #4]

	_system_clock_inst.dfll.control =
			(uint32_t)config->wakeup_lock     |
    3548:	7983      	ldrb	r3, [r0, #6]
    354a:	79c2      	ldrb	r2, [r0, #7]
    354c:	4313      	orrs	r3, r2
			(uint32_t)config->stable_tracking |
			(uint32_t)config->quick_lock      |
    354e:	8842      	ldrh	r2, [r0, #2]
    3550:	8884      	ldrh	r4, [r0, #4]
    3552:	4322      	orrs	r2, r4
    3554:	4313      	orrs	r3, r2
			(uint32_t)config->chill_cycle     |
			((uint32_t)config->on_demand << SYSCTRL_DFLLCTRL_ONDEMAND_Pos);
    3556:	7842      	ldrb	r2, [r0, #1]
    3558:	01d2      	lsls	r2, r2, #7
			(uint32_t)config->chill_cycle     |
    355a:	4313      	orrs	r3, r2
	_system_clock_inst.dfll.control =
    355c:	600b      	str	r3, [r1, #0]

	if (config->loop_mode == SYSTEM_CLOCK_DFLL_LOOP_MODE_CLOSED) {
    355e:	7803      	ldrb	r3, [r0, #0]
    3560:	2b04      	cmp	r3, #4
    3562:	d011      	beq.n	3588 <system_clock_source_dfll_set_config+0x54>
				SYSCTRL_DFLLMUL_MUL(config->multiply_factor);

		/* Enable the closed loop mode */
		_system_clock_inst.dfll.control |= config->loop_mode;
	}
	if (config->loop_mode == SYSTEM_CLOCK_DFLL_LOOP_MODE_USB_RECOVERY) {
    3564:	2b20      	cmp	r3, #32
    3566:	d10e      	bne.n	3586 <system_clock_source_dfll_set_config+0x52>

		_system_clock_inst.dfll.mul =
				SYSCTRL_DFLLMUL_CSTEP(config->coarse_max_step) |
    3568:	7b03      	ldrb	r3, [r0, #12]
    356a:	069b      	lsls	r3, r3, #26
				SYSCTRL_DFLLMUL_FSTEP(config->fine_max_step)   |
				SYSCTRL_DFLLMUL_MUL(config->multiply_factor);
    356c:	8a02      	ldrh	r2, [r0, #16]
				SYSCTRL_DFLLMUL_FSTEP(config->fine_max_step)   |
    356e:	4313      	orrs	r3, r2
    3570:	89c2      	ldrh	r2, [r0, #14]
    3572:	0412      	lsls	r2, r2, #16
    3574:	490d      	ldr	r1, [pc, #52]	; (35ac <system_clock_source_dfll_set_config+0x78>)
    3576:	400a      	ands	r2, r1
    3578:	4313      	orrs	r3, r2
		_system_clock_inst.dfll.mul =
    357a:	4a0b      	ldr	r2, [pc, #44]	; (35a8 <system_clock_source_dfll_set_config+0x74>)
    357c:	6093      	str	r3, [r2, #8]

		/* Enable the USB recovery mode */
		_system_clock_inst.dfll.control |= config->loop_mode |
    357e:	6811      	ldr	r1, [r2, #0]
    3580:	4b0b      	ldr	r3, [pc, #44]	; (35b0 <system_clock_source_dfll_set_config+0x7c>)
    3582:	430b      	orrs	r3, r1
    3584:	6013      	str	r3, [r2, #0]
				SYSCTRL_DFLLCTRL_MODE | SYSCTRL_DFLLCTRL_BPLCKC;
	}
}
    3586:	bd10      	pop	{r4, pc}
				SYSCTRL_DFLLMUL_CSTEP(config->coarse_max_step) |
    3588:	7b03      	ldrb	r3, [r0, #12]
    358a:	069b      	lsls	r3, r3, #26
				SYSCTRL_DFLLMUL_MUL(config->multiply_factor);
    358c:	8a02      	ldrh	r2, [r0, #16]
				SYSCTRL_DFLLMUL_FSTEP(config->fine_max_step)   |
    358e:	4313      	orrs	r3, r2
    3590:	89c2      	ldrh	r2, [r0, #14]
    3592:	0412      	lsls	r2, r2, #16
    3594:	4905      	ldr	r1, [pc, #20]	; (35ac <system_clock_source_dfll_set_config+0x78>)
    3596:	400a      	ands	r2, r1
    3598:	4313      	orrs	r3, r2
		_system_clock_inst.dfll.mul =
    359a:	4a03      	ldr	r2, [pc, #12]	; (35a8 <system_clock_source_dfll_set_config+0x74>)
    359c:	6093      	str	r3, [r2, #8]
		_system_clock_inst.dfll.control |= config->loop_mode;
    359e:	6813      	ldr	r3, [r2, #0]
    35a0:	2104      	movs	r1, #4
    35a2:	430b      	orrs	r3, r1
    35a4:	6013      	str	r3, [r2, #0]
    35a6:	e7ee      	b.n	3586 <system_clock_source_dfll_set_config+0x52>
    35a8:	20000df4 	.word	0x20000df4
    35ac:	03ff0000 	.word	0x03ff0000
    35b0:	00000424 	.word	0x00000424

000035b4 <system_clock_source_enable>:
 *                                 device
 */
enum status_code system_clock_source_enable(
		const enum system_clock_source clock_source)
{
	switch (clock_source) {
    35b4:	2808      	cmp	r0, #8
    35b6:	d803      	bhi.n	35c0 <system_clock_source_enable+0xc>
    35b8:	0080      	lsls	r0, r0, #2
    35ba:	4b25      	ldr	r3, [pc, #148]	; (3650 <system_clock_source_enable+0x9c>)
    35bc:	581b      	ldr	r3, [r3, r0]
    35be:	469f      	mov	pc, r3
		/* Always enabled */
		return STATUS_OK;

	default:
		Assert(false);
		return STATUS_ERR_INVALID_ARG;
    35c0:	2017      	movs	r0, #23
    35c2:	e044      	b.n	364e <system_clock_source_enable+0x9a>
		SYSCTRL->OSC8M.reg |= SYSCTRL_OSC8M_ENABLE;
    35c4:	4a23      	ldr	r2, [pc, #140]	; (3654 <system_clock_source_enable+0xa0>)
    35c6:	6a13      	ldr	r3, [r2, #32]
    35c8:	2102      	movs	r1, #2
    35ca:	430b      	orrs	r3, r1
    35cc:	6213      	str	r3, [r2, #32]
		return STATUS_OK;
    35ce:	2000      	movs	r0, #0
    35d0:	e03d      	b.n	364e <system_clock_source_enable+0x9a>
		SYSCTRL->OSC32K.reg |= SYSCTRL_OSC32K_ENABLE;
    35d2:	4a20      	ldr	r2, [pc, #128]	; (3654 <system_clock_source_enable+0xa0>)
    35d4:	6993      	ldr	r3, [r2, #24]
    35d6:	2102      	movs	r1, #2
    35d8:	430b      	orrs	r3, r1
    35da:	6193      	str	r3, [r2, #24]
	}

	return STATUS_OK;
    35dc:	2000      	movs	r0, #0
		break;
    35de:	e036      	b.n	364e <system_clock_source_enable+0x9a>
		SYSCTRL->XOSC.reg |= SYSCTRL_XOSC_ENABLE;
    35e0:	4a1c      	ldr	r2, [pc, #112]	; (3654 <system_clock_source_enable+0xa0>)
    35e2:	8a13      	ldrh	r3, [r2, #16]
    35e4:	2102      	movs	r1, #2
    35e6:	430b      	orrs	r3, r1
    35e8:	8213      	strh	r3, [r2, #16]
	return STATUS_OK;
    35ea:	2000      	movs	r0, #0
		break;
    35ec:	e02f      	b.n	364e <system_clock_source_enable+0x9a>
		SYSCTRL->XOSC32K.reg |= SYSCTRL_XOSC32K_ENABLE;
    35ee:	4a19      	ldr	r2, [pc, #100]	; (3654 <system_clock_source_enable+0xa0>)
    35f0:	8a93      	ldrh	r3, [r2, #20]
    35f2:	2102      	movs	r1, #2
    35f4:	430b      	orrs	r3, r1
    35f6:	8293      	strh	r3, [r2, #20]
	return STATUS_OK;
    35f8:	2000      	movs	r0, #0
		break;
    35fa:	e028      	b.n	364e <system_clock_source_enable+0x9a>
		_system_clock_inst.dfll.control |= SYSCTRL_DFLLCTRL_ENABLE;
    35fc:	4916      	ldr	r1, [pc, #88]	; (3658 <system_clock_source_enable+0xa4>)
    35fe:	680b      	ldr	r3, [r1, #0]
    3600:	2202      	movs	r2, #2
    3602:	4313      	orrs	r3, r2
    3604:	600b      	str	r3, [r1, #0]
	SYSCTRL->DFLLCTRL.reg = SYSCTRL_DFLLCTRL_ENABLE;
    3606:	4b13      	ldr	r3, [pc, #76]	; (3654 <system_clock_source_enable+0xa0>)
    3608:	849a      	strh	r2, [r3, #36]	; 0x24
	while (!(SYSCTRL->PCLKSR.reg & SYSCTRL_PCLKSR_DFLLRDY)) {
    360a:	0019      	movs	r1, r3
    360c:	320e      	adds	r2, #14
    360e:	68cb      	ldr	r3, [r1, #12]
    3610:	421a      	tst	r2, r3
    3612:	d0fc      	beq.n	360e <system_clock_source_enable+0x5a>
	SYSCTRL->DFLLMUL.reg = _system_clock_inst.dfll.mul;
    3614:	4a10      	ldr	r2, [pc, #64]	; (3658 <system_clock_source_enable+0xa4>)
    3616:	6891      	ldr	r1, [r2, #8]
    3618:	4b0e      	ldr	r3, [pc, #56]	; (3654 <system_clock_source_enable+0xa0>)
    361a:	62d9      	str	r1, [r3, #44]	; 0x2c
	SYSCTRL->DFLLVAL.reg = _system_clock_inst.dfll.val;
    361c:	6852      	ldr	r2, [r2, #4]
    361e:	629a      	str	r2, [r3, #40]	; 0x28
	SYSCTRL->DFLLCTRL.reg = 0;
    3620:	2200      	movs	r2, #0
    3622:	849a      	strh	r2, [r3, #36]	; 0x24
	while (!(SYSCTRL->PCLKSR.reg & SYSCTRL_PCLKSR_DFLLRDY)) {
    3624:	0019      	movs	r1, r3
    3626:	3210      	adds	r2, #16
    3628:	68cb      	ldr	r3, [r1, #12]
    362a:	421a      	tst	r2, r3
    362c:	d0fc      	beq.n	3628 <system_clock_source_enable+0x74>
	SYSCTRL->DFLLCTRL.reg = _system_clock_inst.dfll.control;
    362e:	4b0a      	ldr	r3, [pc, #40]	; (3658 <system_clock_source_enable+0xa4>)
    3630:	681b      	ldr	r3, [r3, #0]
    3632:	b29b      	uxth	r3, r3
    3634:	4a07      	ldr	r2, [pc, #28]	; (3654 <system_clock_source_enable+0xa0>)
    3636:	8493      	strh	r3, [r2, #36]	; 0x24
	return STATUS_OK;
    3638:	2000      	movs	r0, #0
    363a:	e008      	b.n	364e <system_clock_source_enable+0x9a>
		SYSCTRL->DPLLCTRLA.reg |= SYSCTRL_DPLLCTRLA_ENABLE;
    363c:	4905      	ldr	r1, [pc, #20]	; (3654 <system_clock_source_enable+0xa0>)
    363e:	2244      	movs	r2, #68	; 0x44
    3640:	5c8b      	ldrb	r3, [r1, r2]
    3642:	2002      	movs	r0, #2
    3644:	4303      	orrs	r3, r0
    3646:	548b      	strb	r3, [r1, r2]
	return STATUS_OK;
    3648:	2000      	movs	r0, #0
		break;
    364a:	e000      	b.n	364e <system_clock_source_enable+0x9a>
		return STATUS_OK;
    364c:	2000      	movs	r0, #0
}
    364e:	4770      	bx	lr
    3650:	00005a9c 	.word	0x00005a9c
    3654:	40000800 	.word	0x40000800
    3658:	20000df4 	.word	0x20000df4

0000365c <system_clock_init>:
 * \note OSC8M is always enabled and if user selects other clocks for GCLK generators,
 * the OSC8M default enable can be disabled after system_clock_init. Make sure the
 * clock switch successfully before disabling OSC8M.
 */
void system_clock_init(void)
{
    365c:	b5f0      	push	{r4, r5, r6, r7, lr}
    365e:	46ce      	mov	lr, r9
    3660:	4647      	mov	r7, r8
    3662:	b580      	push	{r7, lr}
    3664:	b08d      	sub	sp, #52	; 0x34
	/* Various bits in the INTFLAG register can be set to one at startup.
	   This will ensure that these bits are cleared */
	SYSCTRL->INTFLAG.reg = SYSCTRL_INTFLAG_BOD33RDY | SYSCTRL_INTFLAG_BOD33DET |
    3666:	22c2      	movs	r2, #194	; 0xc2
    3668:	00d2      	lsls	r2, r2, #3
    366a:	4b4d      	ldr	r3, [pc, #308]	; (37a0 <system_clock_init+0x144>)
    366c:	609a      	str	r2, [r3, #8]
static inline void system_flash_set_waitstates(uint8_t wait_states)
{
	Assert(NVMCTRL_CTRLB_RWS((uint32_t)wait_states) ==
			((uint32_t)wait_states << NVMCTRL_CTRLB_RWS_Pos));

	NVMCTRL->CTRLB.bit.RWS = wait_states;
    366e:	494d      	ldr	r1, [pc, #308]	; (37a4 <system_clock_init+0x148>)
    3670:	684b      	ldr	r3, [r1, #4]
    3672:	221e      	movs	r2, #30
    3674:	4393      	bics	r3, r2
    3676:	3a1c      	subs	r2, #28
    3678:	4313      	orrs	r3, r2
    367a:	604b      	str	r3, [r1, #4]
	gclk_conf.source_generator = GCLK_GENERATOR_2;
    367c:	ab01      	add	r3, sp, #4
    367e:	701a      	strb	r2, [r3, #0]
	for (gclk_id = 0; gclk_id < GCLK_NUM; gclk_id++) {
    3680:	2400      	movs	r4, #0
		system_gclk_chan_set_config(gclk_id, &gclk_conf);
    3682:	4d49      	ldr	r5, [pc, #292]	; (37a8 <system_clock_init+0x14c>)
    3684:	b2e0      	uxtb	r0, r4
    3686:	a901      	add	r1, sp, #4
    3688:	47a8      	blx	r5
	for (gclk_id = 0; gclk_id < GCLK_NUM; gclk_id++) {
    368a:	3401      	adds	r4, #1
    368c:	2c25      	cmp	r4, #37	; 0x25
    368e:	d1f9      	bne.n	3684 <system_clock_init+0x28>


	/* OSCK32K */
#if CONF_CLOCK_OSC32K_ENABLE == true
	SYSCTRL->OSC32K.bit.CALIB =
			((*(uint32_t *)SYSCTRL_FUSES_OSC32K_ADDR >> 
    3690:	4c46      	ldr	r4, [pc, #280]	; (37ac <system_clock_init+0x150>)
	SYSCTRL->OSC32K.bit.CALIB =
    3692:	6823      	ldr	r3, [r4, #0]
    3694:	04db      	lsls	r3, r3, #19
    3696:	4942      	ldr	r1, [pc, #264]	; (37a0 <system_clock_init+0x144>)
    3698:	698a      	ldr	r2, [r1, #24]
    369a:	0e5b      	lsrs	r3, r3, #25
    369c:	041b      	lsls	r3, r3, #16
    369e:	4844      	ldr	r0, [pc, #272]	; (37b0 <system_clock_init+0x154>)
    36a0:	4002      	ands	r2, r0
    36a2:	4313      	orrs	r3, r2
    36a4:	618b      	str	r3, [r1, #24]
	config->enable_1khz_output  = true;
    36a6:	a80a      	add	r0, sp, #40	; 0x28
    36a8:	2301      	movs	r3, #1
    36aa:	7043      	strb	r3, [r0, #1]
	config->enable_32khz_output = true;
    36ac:	7083      	strb	r3, [r0, #2]
	config->run_in_standby      = false;
    36ae:	2500      	movs	r5, #0
    36b0:	70c5      	strb	r5, [r0, #3]
	config->on_demand           = true;
    36b2:	7103      	strb	r3, [r0, #4]
	config->startup_time        = SYSTEM_OSC32K_STARTUP_130;
    36b4:	3306      	adds	r3, #6
    36b6:	7003      	strb	r3, [r0, #0]
	config->write_once          = false;
    36b8:	7145      	strb	r5, [r0, #5]
	osc32k_conf.enable_1khz_output  = CONF_CLOCK_OSC32K_ENABLE_1KHZ_OUTPUT;
	osc32k_conf.enable_32khz_output = CONF_CLOCK_OSC32K_ENABLE_32KHZ_OUTPUT;
	osc32k_conf.on_demand           = CONF_CLOCK_OSC32K_ON_DEMAND;
	osc32k_conf.run_in_standby      = CONF_CLOCK_OSC32K_RUN_IN_STANDBY;

	system_clock_source_osc32k_set_config(&osc32k_conf);
    36ba:	4b3e      	ldr	r3, [pc, #248]	; (37b4 <system_clock_init+0x158>)
    36bc:	4798      	blx	r3
	system_clock_source_enable(SYSTEM_CLOCK_SOURCE_OSC32K);
    36be:	2004      	movs	r0, #4
    36c0:	4b3d      	ldr	r3, [pc, #244]	; (37b8 <system_clock_init+0x15c>)
    36c2:	4798      	blx	r3
	config->quick_lock      = SYSTEM_CLOCK_DFLL_QUICK_LOCK_ENABLE;
    36c4:	ab05      	add	r3, sp, #20
    36c6:	2200      	movs	r2, #0
    36c8:	805d      	strh	r5, [r3, #2]
	config->chill_cycle     = SYSTEM_CLOCK_DFLL_CHILL_CYCLE_ENABLE;
    36ca:	809d      	strh	r5, [r3, #4]
	config->wakeup_lock     = SYSTEM_CLOCK_DFLL_WAKEUP_LOCK_KEEP;
    36cc:	719a      	strb	r2, [r3, #6]
	config->stable_tracking = SYSTEM_CLOCK_DFLL_STABLE_TRACKING_TRACK_AFTER_LOCK;
    36ce:	71da      	strb	r2, [r3, #7]
	config->fine_value      = 0xff / 4; /* Midpoint */
    36d0:	213f      	movs	r1, #63	; 0x3f
    36d2:	8159      	strh	r1, [r3, #10]
	/* DFLL Config (Open and Closed Loop) */
#if CONF_CLOCK_DFLL_ENABLE == true
	struct system_clock_source_dfll_config dfll_conf;
	system_clock_source_dfll_get_config_defaults(&dfll_conf);

	dfll_conf.loop_mode      = CONF_CLOCK_DFLL_LOOP_MODE;
    36d4:	393b      	subs	r1, #59	; 0x3b
    36d6:	7019      	strb	r1, [r3, #0]
	dfll_conf.on_demand      = false;
    36d8:	705a      	strb	r2, [r3, #1]
	/* Using DFLL48M COARSE CAL value from NVM Software Calibration Area Mapping 
	   in DFLL.COARSE helps to output a frequency close to 48 MHz.*/
#define NVM_DFLL_COARSE_POS    58 /* DFLL48M Coarse calibration value bit position.*/
#define NVM_DFLL_COARSE_SIZE   6  /* DFLL48M Coarse calibration value bit size.*/

	uint32_t coarse =( *((uint32_t *)(NVMCTRL_OTP4)
    36da:	6823      	ldr	r3, [r4, #0]
    36dc:	0e9b      	lsrs	r3, r3, #26
			+ (NVM_DFLL_COARSE_POS / 32))
		>> (NVM_DFLL_COARSE_POS % 32))
		& ((1 << NVM_DFLL_COARSE_SIZE) - 1);
	/* In some revision chip, the coarse calibration value is not correct. */
	if (coarse == 0x3f) {
    36de:	2b3f      	cmp	r3, #63	; 0x3f
    36e0:	d05b      	beq.n	379a <system_clock_init+0x13e>
		coarse = 0x1f;
	}
	dfll_conf.coarse_value = coarse;
    36e2:	a805      	add	r0, sp, #20
    36e4:	7203      	strb	r3, [r0, #8]
#  else
	dfll_conf.chill_cycle = SYSTEM_CLOCK_DFLL_CHILL_CYCLE_DISABLE;
#  endif

	if (CONF_CLOCK_DFLL_LOOP_MODE == SYSTEM_CLOCK_DFLL_LOOP_MODE_CLOSED) {
		dfll_conf.multiply_factor = CONF_CLOCK_DFLL_MULTIPLY_FACTOR;
    36e6:	23b7      	movs	r3, #183	; 0xb7
    36e8:	00db      	lsls	r3, r3, #3
    36ea:	8203      	strh	r3, [r0, #16]
	}

	dfll_conf.coarse_max_step = CONF_CLOCK_DFLL_MAX_COARSE_STEP_SIZE;
    36ec:	2307      	movs	r3, #7
    36ee:	7303      	strb	r3, [r0, #12]
	dfll_conf.fine_max_step   = CONF_CLOCK_DFLL_MAX_FINE_STEP_SIZE;
    36f0:	3338      	adds	r3, #56	; 0x38
    36f2:	81c3      	strh	r3, [r0, #14]
		dfll_conf.chill_cycle = SYSTEM_CLOCK_DFLL_CHILL_CYCLE_DISABLE;

		dfll_conf.multiply_factor = 48000;
	}

	system_clock_source_dfll_set_config(&dfll_conf);
    36f4:	4b31      	ldr	r3, [pc, #196]	; (37bc <system_clock_init+0x160>)
    36f6:	4798      	blx	r3
	config->run_in_standby  = false;
    36f8:	a804      	add	r0, sp, #16
    36fa:	2500      	movs	r5, #0
    36fc:	7045      	strb	r5, [r0, #1]
	config->on_demand       = true;
    36fe:	2601      	movs	r6, #1
    3700:	7086      	strb	r6, [r0, #2]

	/* OSC8M */
	struct system_clock_source_osc8m_config osc8m_conf;
	system_clock_source_osc8m_get_config_defaults(&osc8m_conf);

	osc8m_conf.prescaler       = CONF_CLOCK_OSC8M_PRESCALER;
    3702:	7005      	strb	r5, [r0, #0]
	osc8m_conf.on_demand       = CONF_CLOCK_OSC8M_ON_DEMAND;
	osc8m_conf.run_in_standby  = CONF_CLOCK_OSC8M_RUN_IN_STANDBY;

	system_clock_source_osc8m_set_config(&osc8m_conf);
    3704:	4b2e      	ldr	r3, [pc, #184]	; (37c0 <system_clock_init+0x164>)
    3706:	4798      	blx	r3
	system_clock_source_enable(SYSTEM_CLOCK_SOURCE_OSC8M);
    3708:	2006      	movs	r0, #6
    370a:	4f2b      	ldr	r7, [pc, #172]	; (37b8 <system_clock_init+0x15c>)
    370c:	47b8      	blx	r7


	/* GCLK */
#if CONF_CLOCK_CONFIGURE_GCLK == true
	system_gclk_init();
    370e:	4b2d      	ldr	r3, [pc, #180]	; (37c4 <system_clock_init+0x168>)
    3710:	4798      	blx	r3
{
	/* Sanity check arguments */
	Assert(config);

	/* Default configuration values */
	config->division_factor    = 1;
    3712:	ac01      	add	r4, sp, #4
    3714:	9602      	str	r6, [sp, #8]
	config->high_when_disabled = false;
    3716:	7065      	strb	r5, [r4, #1]
#elif (SAMC20) || (SAMC21)
	config->source_clock       = GCLK_SOURCE_OSC48M;
#else
	config->source_clock       = GCLK_SOURCE_OSC8M;
#endif
	config->run_in_standby     = false;
    3718:	7225      	strb	r5, [r4, #8]
	config->output_enable      = false;
    371a:	7265      	strb	r5, [r4, #9]

	/* Configure all GCLK generators except for the main generator, which
	 * is configured later after all other clock systems are set up */
	MREPEAT(GCLK_GEN_NUM, _CONF_CLOCK_GCLK_CONFIG_NONMAIN, ~);
    371c:	2304      	movs	r3, #4
    371e:	7023      	strb	r3, [r4, #0]
    3720:	0021      	movs	r1, r4
    3722:	2001      	movs	r0, #1
    3724:	4b28      	ldr	r3, [pc, #160]	; (37c8 <system_clock_init+0x16c>)
    3726:	4699      	mov	r9, r3
    3728:	4798      	blx	r3
    372a:	2001      	movs	r0, #1
    372c:	4b27      	ldr	r3, [pc, #156]	; (37cc <system_clock_init+0x170>)
    372e:	4698      	mov	r8, r3
    3730:	4798      	blx	r3
	config->division_factor    = 1;
    3732:	6066      	str	r6, [r4, #4]
	config->high_when_disabled = false;
    3734:	7065      	strb	r5, [r4, #1]
	config->source_clock       = GCLK_SOURCE_OSC8M;
    3736:	2306      	movs	r3, #6
    3738:	7023      	strb	r3, [r4, #0]
	config->run_in_standby     = false;
    373a:	7225      	strb	r5, [r4, #8]
	config->output_enable      = false;
    373c:	7265      	strb	r5, [r4, #9]
    373e:	0021      	movs	r1, r4
    3740:	2003      	movs	r0, #3
    3742:	47c8      	blx	r9
    3744:	2003      	movs	r0, #3
    3746:	47c0      	blx	r8
	/* Enable DFLL reference clock if in closed loop mode */
	if (CONF_CLOCK_DFLL_LOOP_MODE == SYSTEM_CLOCK_DFLL_LOOP_MODE_CLOSED) {
		struct system_gclk_chan_config dfll_gclk_chan_conf;

		system_gclk_chan_get_config_defaults(&dfll_gclk_chan_conf);
		dfll_gclk_chan_conf.source_generator = CONF_CLOCK_DFLL_SOURCE_GCLK_GENERATOR;
    3748:	7026      	strb	r6, [r4, #0]
		system_gclk_chan_set_config(SYSCTRL_GCLK_ID_DFLL48, &dfll_gclk_chan_conf);
    374a:	0021      	movs	r1, r4
    374c:	2000      	movs	r0, #0
    374e:	4b16      	ldr	r3, [pc, #88]	; (37a8 <system_clock_init+0x14c>)
    3750:	4798      	blx	r3
		system_gclk_chan_enable(SYSCTRL_GCLK_ID_DFLL48);
    3752:	2000      	movs	r0, #0
    3754:	4b1e      	ldr	r3, [pc, #120]	; (37d0 <system_clock_init+0x174>)
    3756:	4798      	blx	r3
#  endif
#endif

	/* DFLL Enable (Open and Closed Loop) */
#if CONF_CLOCK_DFLL_ENABLE == true
	system_clock_source_enable(SYSTEM_CLOCK_SOURCE_DFLL);
    3758:	2007      	movs	r0, #7
    375a:	47b8      	blx	r7
	return ((SYSCTRL->PCLKSR.reg & mask) == mask);
    375c:	4910      	ldr	r1, [pc, #64]	; (37a0 <system_clock_init+0x144>)
    375e:	22d0      	movs	r2, #208	; 0xd0
    3760:	68cb      	ldr	r3, [r1, #12]
    3762:	4013      	ands	r3, r2
	while(!system_clock_source_is_ready(SYSTEM_CLOCK_SOURCE_DFLL));
    3764:	2bd0      	cmp	r3, #208	; 0xd0
    3766:	d1fb      	bne.n	3760 <system_clock_init+0x104>
	PM->CPUSEL.reg = (uint32_t)divider;
    3768:	4a1a      	ldr	r2, [pc, #104]	; (37d4 <system_clock_init+0x178>)
    376a:	2300      	movs	r3, #0
    376c:	7213      	strb	r3, [r2, #8]
			PM->APBASEL.reg = (uint32_t)divider;
    376e:	7253      	strb	r3, [r2, #9]
			PM->APBBSEL.reg = (uint32_t)divider;
    3770:	7293      	strb	r3, [r2, #10]
			PM->APBCSEL.reg = (uint32_t)divider;
    3772:	72d3      	strb	r3, [r2, #11]
	config->division_factor    = 1;
    3774:	a901      	add	r1, sp, #4
    3776:	2201      	movs	r2, #1
    3778:	604a      	str	r2, [r1, #4]
	config->high_when_disabled = false;
    377a:	704b      	strb	r3, [r1, #1]
	config->run_in_standby     = false;
    377c:	720b      	strb	r3, [r1, #8]
	config->output_enable      = false;
    377e:	724b      	strb	r3, [r1, #9]
	system_apb_clock_set_divider(SYSTEM_CLOCK_APB_APBC, CONF_CLOCK_APBC_DIVIDER);

	/* GCLK 0 */
#if CONF_CLOCK_CONFIGURE_GCLK == true
	/* Configure the main GCLK last as it might depend on other generators */
	_CONF_CLOCK_GCLK_CONFIG(0, ~);
    3780:	3307      	adds	r3, #7
    3782:	700b      	strb	r3, [r1, #0]
    3784:	2000      	movs	r0, #0
    3786:	4b10      	ldr	r3, [pc, #64]	; (37c8 <system_clock_init+0x16c>)
    3788:	4798      	blx	r3
    378a:	2000      	movs	r0, #0
    378c:	4b0f      	ldr	r3, [pc, #60]	; (37cc <system_clock_init+0x170>)
    378e:	4798      	blx	r3
#endif
}
    3790:	b00d      	add	sp, #52	; 0x34
    3792:	bc0c      	pop	{r2, r3}
    3794:	4690      	mov	r8, r2
    3796:	4699      	mov	r9, r3
    3798:	bdf0      	pop	{r4, r5, r6, r7, pc}
		coarse = 0x1f;
    379a:	3b20      	subs	r3, #32
    379c:	e7a1      	b.n	36e2 <system_clock_init+0x86>
    379e:	46c0      	nop			; (mov r8, r8)
    37a0:	40000800 	.word	0x40000800
    37a4:	41004000 	.word	0x41004000
    37a8:	00003a11 	.word	0x00003a11
    37ac:	00806024 	.word	0x00806024
    37b0:	ff80ffff 	.word	0xff80ffff
    37b4:	000034b9 	.word	0x000034b9
    37b8:	000035b5 	.word	0x000035b5
    37bc:	00003535 	.word	0x00003535
    37c0:	0000347d 	.word	0x0000347d
    37c4:	000037d9 	.word	0x000037d9
    37c8:	000037fd 	.word	0x000037fd
    37cc:	000038b5 	.word	0x000038b5
    37d0:	00003985 	.word	0x00003985
    37d4:	40000400 	.word	0x40000400

000037d8 <system_gclk_init>:
			PM->APBAMASK.reg |= mask;
    37d8:	4a06      	ldr	r2, [pc, #24]	; (37f4 <system_gclk_init+0x1c>)
    37da:	6993      	ldr	r3, [r2, #24]
    37dc:	2108      	movs	r1, #8
    37de:	430b      	orrs	r3, r1
    37e0:	6193      	str	r3, [r2, #24]
{
	/* Turn on the digital interface clock */
	system_apb_clock_set_mask(SYSTEM_CLOCK_APB_APBA, PM_APBAMASK_GCLK);

	/* Software reset the module to ensure it is re-initialized correctly */
	GCLK->CTRL.reg = GCLK_CTRL_SWRST;
    37e2:	2201      	movs	r2, #1
    37e4:	4b04      	ldr	r3, [pc, #16]	; (37f8 <system_gclk_init+0x20>)
    37e6:	701a      	strb	r2, [r3, #0]
	while (GCLK->CTRL.reg & GCLK_CTRL_SWRST) {
    37e8:	0019      	movs	r1, r3
    37ea:	780b      	ldrb	r3, [r1, #0]
    37ec:	4213      	tst	r3, r2
    37ee:	d1fc      	bne.n	37ea <system_gclk_init+0x12>
		/* Wait for reset to complete */
	}
}
    37f0:	4770      	bx	lr
    37f2:	46c0      	nop			; (mov r8, r8)
    37f4:	40000400 	.word	0x40000400
    37f8:	40000c00 	.word	0x40000c00

000037fc <system_gclk_gen_set_config>:
 * \param[in] config     Configuration settings for the generator
 */
void system_gclk_gen_set_config(
		const uint8_t generator,
		struct system_gclk_gen_config *const config)
{
    37fc:	b570      	push	{r4, r5, r6, lr}
    37fe:	0006      	movs	r6, r0
	/* Sanity check arguments */
	Assert(config);

	/* Cache new register configurations to minimize sync requirements. */
	uint32_t new_genctrl_config = (generator << GCLK_GENCTRL_ID_Pos);
    3800:	0004      	movs	r4, r0
	uint32_t new_gendiv_config  = (generator << GCLK_GENDIV_ID_Pos);

	/* Select the requested source clock for the generator */
	new_genctrl_config |= config->source_clock << GCLK_GENCTRL_SRC_Pos;
    3802:	780d      	ldrb	r5, [r1, #0]
    3804:	022d      	lsls	r5, r5, #8
    3806:	4305      	orrs	r5, r0

	/* Configure the clock to be either high or low when disabled */
	if (config->high_when_disabled) {
    3808:	784b      	ldrb	r3, [r1, #1]
    380a:	2b00      	cmp	r3, #0
    380c:	d002      	beq.n	3814 <system_gclk_gen_set_config+0x18>
		new_genctrl_config |= GCLK_GENCTRL_OOV;
    380e:	2380      	movs	r3, #128	; 0x80
    3810:	02db      	lsls	r3, r3, #11
    3812:	431d      	orrs	r5, r3
	}

	/* Configure if the clock output to I/O pin should be enabled. */
	if (config->output_enable) {
    3814:	7a4b      	ldrb	r3, [r1, #9]
    3816:	2b00      	cmp	r3, #0
    3818:	d002      	beq.n	3820 <system_gclk_gen_set_config+0x24>
		new_genctrl_config |= GCLK_GENCTRL_OE;
    381a:	2380      	movs	r3, #128	; 0x80
    381c:	031b      	lsls	r3, r3, #12
    381e:	431d      	orrs	r5, r3
	}

	/* Set division factor */
	if (config->division_factor > 1) {
    3820:	6848      	ldr	r0, [r1, #4]
    3822:	2801      	cmp	r0, #1
    3824:	d910      	bls.n	3848 <system_gclk_gen_set_config+0x4c>
		/* Check if division is a power of two */
		if (((config->division_factor & (config->division_factor - 1)) == 0)) {
    3826:	1e43      	subs	r3, r0, #1
    3828:	4218      	tst	r0, r3
    382a:	d134      	bne.n	3896 <system_gclk_gen_set_config+0x9a>
			 * register */

			uint32_t div2_count = 0;

			uint32_t mask;
			for (mask = (1UL << 1); mask < config->division_factor;
    382c:	2802      	cmp	r0, #2
    382e:	d930      	bls.n	3892 <system_gclk_gen_set_config+0x96>
    3830:	2302      	movs	r3, #2
    3832:	2200      	movs	r2, #0
						mask <<= 1) {
				div2_count++;
    3834:	3201      	adds	r2, #1
						mask <<= 1) {
    3836:	005b      	lsls	r3, r3, #1
			for (mask = (1UL << 1); mask < config->division_factor;
    3838:	4298      	cmp	r0, r3
    383a:	d8fb      	bhi.n	3834 <system_gclk_gen_set_config+0x38>
			}

			/* Set binary divider power of 2 division factor */
			new_gendiv_config  |= div2_count << GCLK_GENDIV_DIV_Pos;
    383c:	0212      	lsls	r2, r2, #8
    383e:	4332      	orrs	r2, r6
    3840:	0014      	movs	r4, r2
			new_genctrl_config |= GCLK_GENCTRL_DIVSEL;
    3842:	2380      	movs	r3, #128	; 0x80
    3844:	035b      	lsls	r3, r3, #13
    3846:	431d      	orrs	r5, r3
		}

	}

	/* Enable or disable the clock in standby mode */
	if (config->run_in_standby) {
    3848:	7a0b      	ldrb	r3, [r1, #8]
    384a:	2b00      	cmp	r3, #0
    384c:	d002      	beq.n	3854 <system_gclk_gen_set_config+0x58>
		new_genctrl_config |= GCLK_GENCTRL_RUNSTDBY;
    384e:	2380      	movs	r3, #128	; 0x80
    3850:	039b      	lsls	r3, r3, #14
    3852:	431d      	orrs	r5, r3
	if (GCLK->STATUS.reg & GCLK_STATUS_SYNCBUSY){
    3854:	4a13      	ldr	r2, [pc, #76]	; (38a4 <system_gclk_gen_set_config+0xa8>)
    3856:	7853      	ldrb	r3, [r2, #1]
	}

	while (system_gclk_is_syncing()) {
    3858:	b25b      	sxtb	r3, r3
    385a:	2b00      	cmp	r3, #0
    385c:	dbfb      	blt.n	3856 <system_gclk_gen_set_config+0x5a>
	cpu_irq_enter_critical();
    385e:	4b12      	ldr	r3, [pc, #72]	; (38a8 <system_gclk_gen_set_config+0xac>)
    3860:	4798      	blx	r3
	};

	system_interrupt_enter_critical_section();

	/* Select the correct generator */
	*((uint8_t*)&GCLK->GENDIV.reg) = generator;
    3862:	4b12      	ldr	r3, [pc, #72]	; (38ac <system_gclk_gen_set_config+0xb0>)
    3864:	701e      	strb	r6, [r3, #0]
	if (GCLK->STATUS.reg & GCLK_STATUS_SYNCBUSY){
    3866:	4a0f      	ldr	r2, [pc, #60]	; (38a4 <system_gclk_gen_set_config+0xa8>)
    3868:	7853      	ldrb	r3, [r2, #1]

	/* Write the new generator configuration */
	while (system_gclk_is_syncing()) {
    386a:	b25b      	sxtb	r3, r3
    386c:	2b00      	cmp	r3, #0
    386e:	dbfb      	blt.n	3868 <system_gclk_gen_set_config+0x6c>
		/* Wait for synchronization */
	};
	GCLK->GENDIV.reg  = new_gendiv_config;
    3870:	4b0c      	ldr	r3, [pc, #48]	; (38a4 <system_gclk_gen_set_config+0xa8>)
    3872:	609c      	str	r4, [r3, #8]
	if (GCLK->STATUS.reg & GCLK_STATUS_SYNCBUSY){
    3874:	001a      	movs	r2, r3
    3876:	7853      	ldrb	r3, [r2, #1]

	while (system_gclk_is_syncing()) {
    3878:	b25b      	sxtb	r3, r3
    387a:	2b00      	cmp	r3, #0
    387c:	dbfb      	blt.n	3876 <system_gclk_gen_set_config+0x7a>
		/* Wait for synchronization */
	};
	GCLK->GENCTRL.reg = new_genctrl_config | (GCLK->GENCTRL.reg & GCLK_GENCTRL_GENEN);
    387e:	4a09      	ldr	r2, [pc, #36]	; (38a4 <system_gclk_gen_set_config+0xa8>)
    3880:	6853      	ldr	r3, [r2, #4]
    3882:	2180      	movs	r1, #128	; 0x80
    3884:	0249      	lsls	r1, r1, #9
    3886:	400b      	ands	r3, r1
    3888:	431d      	orrs	r5, r3
    388a:	6055      	str	r5, [r2, #4]
	cpu_irq_leave_critical();
    388c:	4b08      	ldr	r3, [pc, #32]	; (38b0 <system_gclk_gen_set_config+0xb4>)
    388e:	4798      	blx	r3

	system_interrupt_leave_critical_section();
}
    3890:	bd70      	pop	{r4, r5, r6, pc}
			for (mask = (1UL << 1); mask < config->division_factor;
    3892:	2200      	movs	r2, #0
    3894:	e7d2      	b.n	383c <system_gclk_gen_set_config+0x40>
					(config->division_factor) << GCLK_GENDIV_DIV_Pos;
    3896:	0204      	lsls	r4, r0, #8
			new_gendiv_config  |=
    3898:	4334      	orrs	r4, r6
			new_genctrl_config |= GCLK_GENCTRL_IDC;
    389a:	2380      	movs	r3, #128	; 0x80
    389c:	029b      	lsls	r3, r3, #10
    389e:	431d      	orrs	r5, r3
    38a0:	e7d2      	b.n	3848 <system_gclk_gen_set_config+0x4c>
    38a2:	46c0      	nop			; (mov r8, r8)
    38a4:	40000c00 	.word	0x40000c00
    38a8:	0000337d 	.word	0x0000337d
    38ac:	40000c08 	.word	0x40000c08
    38b0:	000033bd 	.word	0x000033bd

000038b4 <system_gclk_gen_enable>:
 *
 * \param[in] generator  Generic Clock Generator index to enable
 */
void system_gclk_gen_enable(
		const uint8_t generator)
{
    38b4:	b510      	push	{r4, lr}
    38b6:	0004      	movs	r4, r0
	if (GCLK->STATUS.reg & GCLK_STATUS_SYNCBUSY){
    38b8:	4a0b      	ldr	r2, [pc, #44]	; (38e8 <system_gclk_gen_enable+0x34>)
    38ba:	7853      	ldrb	r3, [r2, #1]
	while (system_gclk_is_syncing()) {
    38bc:	b25b      	sxtb	r3, r3
    38be:	2b00      	cmp	r3, #0
    38c0:	dbfb      	blt.n	38ba <system_gclk_gen_enable+0x6>
	cpu_irq_enter_critical();
    38c2:	4b0a      	ldr	r3, [pc, #40]	; (38ec <system_gclk_gen_enable+0x38>)
    38c4:	4798      	blx	r3
	};

	system_interrupt_enter_critical_section();

	/* Select the requested generator */
	*((uint8_t*)&GCLK->GENCTRL.reg) = generator;
    38c6:	4b0a      	ldr	r3, [pc, #40]	; (38f0 <system_gclk_gen_enable+0x3c>)
    38c8:	701c      	strb	r4, [r3, #0]
	if (GCLK->STATUS.reg & GCLK_STATUS_SYNCBUSY){
    38ca:	4a07      	ldr	r2, [pc, #28]	; (38e8 <system_gclk_gen_enable+0x34>)
    38cc:	7853      	ldrb	r3, [r2, #1]
	while (system_gclk_is_syncing()) {
    38ce:	b25b      	sxtb	r3, r3
    38d0:	2b00      	cmp	r3, #0
    38d2:	dbfb      	blt.n	38cc <system_gclk_gen_enable+0x18>
		/* Wait for synchronization */
	};

	/* Enable generator */
	GCLK->GENCTRL.reg |= GCLK_GENCTRL_GENEN;
    38d4:	4a04      	ldr	r2, [pc, #16]	; (38e8 <system_gclk_gen_enable+0x34>)
    38d6:	6851      	ldr	r1, [r2, #4]
    38d8:	2380      	movs	r3, #128	; 0x80
    38da:	025b      	lsls	r3, r3, #9
    38dc:	430b      	orrs	r3, r1
    38de:	6053      	str	r3, [r2, #4]
	cpu_irq_leave_critical();
    38e0:	4b04      	ldr	r3, [pc, #16]	; (38f4 <system_gclk_gen_enable+0x40>)
    38e2:	4798      	blx	r3

	system_interrupt_leave_critical_section();
}
    38e4:	bd10      	pop	{r4, pc}
    38e6:	46c0      	nop			; (mov r8, r8)
    38e8:	40000c00 	.word	0x40000c00
    38ec:	0000337d 	.word	0x0000337d
    38f0:	40000c04 	.word	0x40000c04
    38f4:	000033bd 	.word	0x000033bd

000038f8 <system_gclk_gen_get_hz>:
 *
 * \return The frequency of the generic clock generator, in Hz.
 */
uint32_t system_gclk_gen_get_hz(
		const uint8_t generator)
{
    38f8:	b570      	push	{r4, r5, r6, lr}
    38fa:	0004      	movs	r4, r0
	if (GCLK->STATUS.reg & GCLK_STATUS_SYNCBUSY){
    38fc:	4a1a      	ldr	r2, [pc, #104]	; (3968 <system_gclk_gen_get_hz+0x70>)
    38fe:	7853      	ldrb	r3, [r2, #1]
	while (system_gclk_is_syncing()) {
    3900:	b25b      	sxtb	r3, r3
    3902:	2b00      	cmp	r3, #0
    3904:	dbfb      	blt.n	38fe <system_gclk_gen_get_hz+0x6>
	cpu_irq_enter_critical();
    3906:	4b19      	ldr	r3, [pc, #100]	; (396c <system_gclk_gen_get_hz+0x74>)
    3908:	4798      	blx	r3
	};

	system_interrupt_enter_critical_section();

	/* Select the appropriate generator */
	*((uint8_t*)&GCLK->GENCTRL.reg) = generator;
    390a:	4b19      	ldr	r3, [pc, #100]	; (3970 <system_gclk_gen_get_hz+0x78>)
    390c:	701c      	strb	r4, [r3, #0]
	if (GCLK->STATUS.reg & GCLK_STATUS_SYNCBUSY){
    390e:	4a16      	ldr	r2, [pc, #88]	; (3968 <system_gclk_gen_get_hz+0x70>)
    3910:	7853      	ldrb	r3, [r2, #1]
	while (system_gclk_is_syncing()) {
    3912:	b25b      	sxtb	r3, r3
    3914:	2b00      	cmp	r3, #0
    3916:	dbfb      	blt.n	3910 <system_gclk_gen_get_hz+0x18>
		/* Wait for synchronization */
	};

	/* Get the frequency of the source connected to the GCLK generator */
	uint32_t gen_input_hz = system_clock_source_get_hz(
			(enum system_clock_source)GCLK->GENCTRL.bit.SRC);
    3918:	4e13      	ldr	r6, [pc, #76]	; (3968 <system_gclk_gen_get_hz+0x70>)
    391a:	6870      	ldr	r0, [r6, #4]
    391c:	04c0      	lsls	r0, r0, #19
    391e:	0ec0      	lsrs	r0, r0, #27
	uint32_t gen_input_hz = system_clock_source_get_hz(
    3920:	4b14      	ldr	r3, [pc, #80]	; (3974 <system_gclk_gen_get_hz+0x7c>)
    3922:	4798      	blx	r3
    3924:	0005      	movs	r5, r0

	*((uint8_t*)&GCLK->GENCTRL.reg) = generator;
    3926:	4b12      	ldr	r3, [pc, #72]	; (3970 <system_gclk_gen_get_hz+0x78>)
    3928:	701c      	strb	r4, [r3, #0]

	uint8_t divsel = GCLK->GENCTRL.bit.DIVSEL;
    392a:	6876      	ldr	r6, [r6, #4]
    392c:	02f6      	lsls	r6, r6, #11
    392e:	0ff6      	lsrs	r6, r6, #31

	/* Select the appropriate generator division register */
	*((uint8_t*)&GCLK->GENDIV.reg) = generator;
    3930:	4b11      	ldr	r3, [pc, #68]	; (3978 <system_gclk_gen_get_hz+0x80>)
    3932:	701c      	strb	r4, [r3, #0]
	if (GCLK->STATUS.reg & GCLK_STATUS_SYNCBUSY){
    3934:	4a0c      	ldr	r2, [pc, #48]	; (3968 <system_gclk_gen_get_hz+0x70>)
    3936:	7853      	ldrb	r3, [r2, #1]
	while (system_gclk_is_syncing()) {
    3938:	b25b      	sxtb	r3, r3
    393a:	2b00      	cmp	r3, #0
    393c:	dbfb      	blt.n	3936 <system_gclk_gen_get_hz+0x3e>
		/* Wait for synchronization */
	};

	uint32_t divider = GCLK->GENDIV.bit.DIV;
    393e:	4b0a      	ldr	r3, [pc, #40]	; (3968 <system_gclk_gen_get_hz+0x70>)
    3940:	689c      	ldr	r4, [r3, #8]
    3942:	0224      	lsls	r4, r4, #8
    3944:	0c24      	lsrs	r4, r4, #16
	cpu_irq_leave_critical();
    3946:	4b0d      	ldr	r3, [pc, #52]	; (397c <system_gclk_gen_get_hz+0x84>)
    3948:	4798      	blx	r3

	system_interrupt_leave_critical_section();

	/* Check if the generator is using fractional or binary division */
	if (!divsel && divider > 1) {
    394a:	2e00      	cmp	r6, #0
    394c:	d107      	bne.n	395e <system_gclk_gen_get_hz+0x66>
    394e:	2c01      	cmp	r4, #1
    3950:	d907      	bls.n	3962 <system_gclk_gen_get_hz+0x6a>
		gen_input_hz /= divider;
    3952:	0021      	movs	r1, r4
    3954:	0028      	movs	r0, r5
    3956:	4b0a      	ldr	r3, [pc, #40]	; (3980 <system_gclk_gen_get_hz+0x88>)
    3958:	4798      	blx	r3
    395a:	0005      	movs	r5, r0
    395c:	e001      	b.n	3962 <system_gclk_gen_get_hz+0x6a>
	} else if (divsel) {
		gen_input_hz >>= (divider+1);
    395e:	3401      	adds	r4, #1
    3960:	40e5      	lsrs	r5, r4
	}

	return gen_input_hz;
}
    3962:	0028      	movs	r0, r5
    3964:	bd70      	pop	{r4, r5, r6, pc}
    3966:	46c0      	nop			; (mov r8, r8)
    3968:	40000c00 	.word	0x40000c00
    396c:	0000337d 	.word	0x0000337d
    3970:	40000c04 	.word	0x40000c04
    3974:	000033ed 	.word	0x000033ed
    3978:	40000c08 	.word	0x40000c08
    397c:	000033bd 	.word	0x000033bd
    3980:	00003cf5 	.word	0x00003cf5

00003984 <system_gclk_chan_enable>:
 *
 * \param[in] channel   Generic Clock channel to enable
 */
void system_gclk_chan_enable(
		const uint8_t channel)
{
    3984:	b510      	push	{r4, lr}
    3986:	0004      	movs	r4, r0
	cpu_irq_enter_critical();
    3988:	4b06      	ldr	r3, [pc, #24]	; (39a4 <system_gclk_chan_enable+0x20>)
    398a:	4798      	blx	r3
	system_interrupt_enter_critical_section();

	/* Select the requested generator channel */
	*((uint8_t*)&GCLK->CLKCTRL.reg) = channel;
    398c:	4b06      	ldr	r3, [pc, #24]	; (39a8 <system_gclk_chan_enable+0x24>)
    398e:	701c      	strb	r4, [r3, #0]

	/* Enable the generic clock */
	GCLK->CLKCTRL.reg |= GCLK_CLKCTRL_CLKEN;
    3990:	4a06      	ldr	r2, [pc, #24]	; (39ac <system_gclk_chan_enable+0x28>)
    3992:	8853      	ldrh	r3, [r2, #2]
    3994:	2180      	movs	r1, #128	; 0x80
    3996:	01c9      	lsls	r1, r1, #7
    3998:	430b      	orrs	r3, r1
    399a:	8053      	strh	r3, [r2, #2]
	cpu_irq_leave_critical();
    399c:	4b04      	ldr	r3, [pc, #16]	; (39b0 <system_gclk_chan_enable+0x2c>)
    399e:	4798      	blx	r3

	system_interrupt_leave_critical_section();
}
    39a0:	bd10      	pop	{r4, pc}
    39a2:	46c0      	nop			; (mov r8, r8)
    39a4:	0000337d 	.word	0x0000337d
    39a8:	40000c02 	.word	0x40000c02
    39ac:	40000c00 	.word	0x40000c00
    39b0:	000033bd 	.word	0x000033bd

000039b4 <system_gclk_chan_disable>:
 *
 * \param[in] channel  Generic Clock channel to disable
 */
void system_gclk_chan_disable(
		const uint8_t channel)
{
    39b4:	b510      	push	{r4, lr}
    39b6:	0004      	movs	r4, r0
	cpu_irq_enter_critical();
    39b8:	4b0f      	ldr	r3, [pc, #60]	; (39f8 <system_gclk_chan_disable+0x44>)
    39ba:	4798      	blx	r3
	system_interrupt_enter_critical_section();

	/* Select the requested generator channel */
	*((uint8_t*)&GCLK->CLKCTRL.reg) = channel;
    39bc:	4b0f      	ldr	r3, [pc, #60]	; (39fc <system_gclk_chan_disable+0x48>)
    39be:	701c      	strb	r4, [r3, #0]

	/* Sanity check WRTLOCK */
	Assert(!GCLK->CLKCTRL.bit.WRTLOCK);

	/* Switch to known-working source so that the channel can be disabled */
	uint32_t prev_gen_id = GCLK->CLKCTRL.bit.GEN;
    39c0:	4a0f      	ldr	r2, [pc, #60]	; (3a00 <system_gclk_chan_disable+0x4c>)
    39c2:	8853      	ldrh	r3, [r2, #2]
    39c4:	051b      	lsls	r3, r3, #20
    39c6:	0f18      	lsrs	r0, r3, #28
	GCLK->CLKCTRL.bit.GEN = 0;
    39c8:	8853      	ldrh	r3, [r2, #2]
    39ca:	490e      	ldr	r1, [pc, #56]	; (3a04 <system_gclk_chan_disable+0x50>)
    39cc:	400b      	ands	r3, r1
    39ce:	8053      	strh	r3, [r2, #2]

	/* Disable the generic clock */
	GCLK->CLKCTRL.reg &= ~GCLK_CLKCTRL_CLKEN;
    39d0:	8853      	ldrh	r3, [r2, #2]
    39d2:	490d      	ldr	r1, [pc, #52]	; (3a08 <system_gclk_chan_disable+0x54>)
    39d4:	400b      	ands	r3, r1
    39d6:	8053      	strh	r3, [r2, #2]
	while (GCLK->CLKCTRL.reg & GCLK_CLKCTRL_CLKEN) {
    39d8:	0011      	movs	r1, r2
    39da:	2280      	movs	r2, #128	; 0x80
    39dc:	01d2      	lsls	r2, r2, #7
    39de:	884b      	ldrh	r3, [r1, #2]
    39e0:	4213      	tst	r3, r2
    39e2:	d1fc      	bne.n	39de <system_gclk_chan_disable+0x2a>
		/* Wait for clock to become disabled */
	}

	/* Restore previous configured clock generator */
	GCLK->CLKCTRL.bit.GEN = prev_gen_id;
    39e4:	4906      	ldr	r1, [pc, #24]	; (3a00 <system_gclk_chan_disable+0x4c>)
    39e6:	884a      	ldrh	r2, [r1, #2]
    39e8:	0203      	lsls	r3, r0, #8
    39ea:	4806      	ldr	r0, [pc, #24]	; (3a04 <system_gclk_chan_disable+0x50>)
    39ec:	4002      	ands	r2, r0
    39ee:	4313      	orrs	r3, r2
    39f0:	804b      	strh	r3, [r1, #2]
	cpu_irq_leave_critical();
    39f2:	4b06      	ldr	r3, [pc, #24]	; (3a0c <system_gclk_chan_disable+0x58>)
    39f4:	4798      	blx	r3

	system_interrupt_leave_critical_section();
}
    39f6:	bd10      	pop	{r4, pc}
    39f8:	0000337d 	.word	0x0000337d
    39fc:	40000c02 	.word	0x40000c02
    3a00:	40000c00 	.word	0x40000c00
    3a04:	fffff0ff 	.word	0xfffff0ff
    3a08:	ffffbfff 	.word	0xffffbfff
    3a0c:	000033bd 	.word	0x000033bd

00003a10 <system_gclk_chan_set_config>:
{
    3a10:	b510      	push	{r4, lr}
	new_clkctrl_config |= config->source_generator << GCLK_CLKCTRL_GEN_Pos;
    3a12:	780c      	ldrb	r4, [r1, #0]
    3a14:	0224      	lsls	r4, r4, #8
    3a16:	4304      	orrs	r4, r0
	system_gclk_chan_disable(channel);
    3a18:	4b02      	ldr	r3, [pc, #8]	; (3a24 <system_gclk_chan_set_config+0x14>)
    3a1a:	4798      	blx	r3
	GCLK->CLKCTRL.reg = new_clkctrl_config;
    3a1c:	b2a4      	uxth	r4, r4
    3a1e:	4b02      	ldr	r3, [pc, #8]	; (3a28 <system_gclk_chan_set_config+0x18>)
    3a20:	805c      	strh	r4, [r3, #2]
}
    3a22:	bd10      	pop	{r4, pc}
    3a24:	000039b5 	.word	0x000039b5
    3a28:	40000c00 	.word	0x40000c00

00003a2c <system_gclk_chan_get_hz>:
 *
 * \return The frequency of the generic clock channel, in Hz.
 */
uint32_t system_gclk_chan_get_hz(
		const uint8_t channel)
{
    3a2c:	b510      	push	{r4, lr}
    3a2e:	0004      	movs	r4, r0
	cpu_irq_enter_critical();
    3a30:	4b06      	ldr	r3, [pc, #24]	; (3a4c <system_gclk_chan_get_hz+0x20>)
    3a32:	4798      	blx	r3
	uint8_t gen_id;

	system_interrupt_enter_critical_section();

	/* Select the requested generic clock channel */
	*((uint8_t*)&GCLK->CLKCTRL.reg) = channel;
    3a34:	4b06      	ldr	r3, [pc, #24]	; (3a50 <system_gclk_chan_get_hz+0x24>)
    3a36:	701c      	strb	r4, [r3, #0]
	gen_id = GCLK->CLKCTRL.bit.GEN;
    3a38:	4b06      	ldr	r3, [pc, #24]	; (3a54 <system_gclk_chan_get_hz+0x28>)
    3a3a:	885c      	ldrh	r4, [r3, #2]
    3a3c:	0524      	lsls	r4, r4, #20
    3a3e:	0f24      	lsrs	r4, r4, #28
	cpu_irq_leave_critical();
    3a40:	4b05      	ldr	r3, [pc, #20]	; (3a58 <system_gclk_chan_get_hz+0x2c>)
    3a42:	4798      	blx	r3

	system_interrupt_leave_critical_section();

	/* Return the clock speed of the associated GCLK generator */
	return system_gclk_gen_get_hz(gen_id);
    3a44:	0020      	movs	r0, r4
    3a46:	4b05      	ldr	r3, [pc, #20]	; (3a5c <system_gclk_chan_get_hz+0x30>)
    3a48:	4798      	blx	r3
}
    3a4a:	bd10      	pop	{r4, pc}
    3a4c:	0000337d 	.word	0x0000337d
    3a50:	40000c02 	.word	0x40000c02
    3a54:	40000c00 	.word	0x40000c00
    3a58:	000033bd 	.word	0x000033bd
    3a5c:	000038f9 	.word	0x000038f9

00003a60 <_system_pinmux_config>:
 */
static void _system_pinmux_config(
		PortGroup *const port,
		const uint32_t pin_mask,
		const struct system_pinmux_config *const config)
{
    3a60:	b530      	push	{r4, r5, lr}

	/* Track the configuration bits into a temporary variable before writing */
	uint32_t pin_cfg = 0;

	/* Enabled powersave mode, don't create configuration */
	if (!config->powersave) {
    3a62:	78d3      	ldrb	r3, [r2, #3]
    3a64:	2b00      	cmp	r3, #0
    3a66:	d135      	bne.n	3ad4 <_system_pinmux_config+0x74>
		/* Enable the pin peripheral MUX flag if non-GPIO selected (pinmux will
		 * be written later) and store the new MUX mask */
		if (config->mux_position != SYSTEM_PINMUX_GPIO) {
    3a68:	7813      	ldrb	r3, [r2, #0]
    3a6a:	2b80      	cmp	r3, #128	; 0x80
    3a6c:	d029      	beq.n	3ac2 <_system_pinmux_config+0x62>
			pin_cfg |= PORT_WRCONFIG_PMUXEN;
			pin_cfg |= (config->mux_position << PORT_WRCONFIG_PMUX_Pos);
    3a6e:	061b      	lsls	r3, r3, #24
    3a70:	2480      	movs	r4, #128	; 0x80
    3a72:	0264      	lsls	r4, r4, #9
    3a74:	4323      	orrs	r3, r4
		}

		/* Check if the user has requested that the input buffer be enabled */
		if ((config->direction == SYSTEM_PINMUX_PIN_DIR_INPUT) ||
    3a76:	7854      	ldrb	r4, [r2, #1]
    3a78:	2502      	movs	r5, #2
    3a7a:	43ac      	bics	r4, r5
    3a7c:	d106      	bne.n	3a8c <_system_pinmux_config+0x2c>
				(config->direction == SYSTEM_PINMUX_PIN_DIR_OUTPUT_WITH_READBACK)) {
			/* Enable input buffer flag */
			pin_cfg |= PORT_WRCONFIG_INEN;

			/* Enable pull-up/pull-down control flag if requested */
			if (config->input_pull != SYSTEM_PINMUX_PIN_PULL_NONE) {
    3a7e:	7894      	ldrb	r4, [r2, #2]
    3a80:	2c00      	cmp	r4, #0
    3a82:	d120      	bne.n	3ac6 <_system_pinmux_config+0x66>
			pin_cfg |= PORT_WRCONFIG_INEN;
    3a84:	2480      	movs	r4, #128	; 0x80
    3a86:	02a4      	lsls	r4, r4, #10
    3a88:	4323      	orrs	r3, r4
				pin_cfg |= PORT_WRCONFIG_PULLEN;
			}

			/* Clear the port DIR bits to disable the output buffer */
			port->DIRCLR.reg = pin_mask;
    3a8a:	6041      	str	r1, [r0, #4]
		}

		/* Check if the user has requested that the output buffer be enabled */
		if ((config->direction == SYSTEM_PINMUX_PIN_DIR_OUTPUT) ||
    3a8c:	7854      	ldrb	r4, [r2, #1]
    3a8e:	3c01      	subs	r4, #1
    3a90:	2c01      	cmp	r4, #1
    3a92:	d91c      	bls.n	3ace <_system_pinmux_config+0x6e>
		port->DIRCLR.reg = pin_mask;
	}

	/* The Write Configuration register (WRCONFIG) requires the
	 * pins to to grouped into two 16-bit half-words - split them out here */
	uint32_t lower_pin_mask = (pin_mask & 0xFFFF);
    3a94:	040d      	lsls	r5, r1, #16
    3a96:	0c2d      	lsrs	r5, r5, #16

	/* Configure the lower 16-bits of the port to the desired configuration,
	 * including the pin peripheral multiplexer just in case it is enabled */
	port->WRCONFIG.reg
		= (lower_pin_mask << PORT_WRCONFIG_PINMASK_Pos) |
			pin_cfg | PORT_WRCONFIG_WRPMUX | PORT_WRCONFIG_WRPINCFG;
    3a98:	24a0      	movs	r4, #160	; 0xa0
    3a9a:	05e4      	lsls	r4, r4, #23
    3a9c:	432c      	orrs	r4, r5
    3a9e:	431c      	orrs	r4, r3
		= (lower_pin_mask << PORT_WRCONFIG_PINMASK_Pos) |
    3aa0:	6284      	str	r4, [r0, #40]	; 0x28
	uint32_t upper_pin_mask = (pin_mask >> 16);
    3aa2:	0c0d      	lsrs	r5, r1, #16

	/* Configure the upper 16-bits of the port to the desired configuration,
	 * including the pin peripheral multiplexer just in case it is enabled */
	port->WRCONFIG.reg
		= (upper_pin_mask << PORT_WRCONFIG_PINMASK_Pos) |
			pin_cfg | PORT_WRCONFIG_WRPMUX | PORT_WRCONFIG_WRPINCFG |
    3aa4:	24d0      	movs	r4, #208	; 0xd0
    3aa6:	0624      	lsls	r4, r4, #24
    3aa8:	432c      	orrs	r4, r5
    3aaa:	431c      	orrs	r4, r3
		= (upper_pin_mask << PORT_WRCONFIG_PINMASK_Pos) |
    3aac:	6284      	str	r4, [r0, #40]	; 0x28
			PORT_WRCONFIG_HWSEL;

	if(!config->powersave) {
    3aae:	78d4      	ldrb	r4, [r2, #3]
    3ab0:	2c00      	cmp	r4, #0
    3ab2:	d122      	bne.n	3afa <_system_pinmux_config+0x9a>
		/* Set the pull-up state once the port pins are configured if one was
		 * requested and it does not violate the valid set of port
		 * configurations */
		if (pin_cfg & PORT_WRCONFIG_PULLEN) {
    3ab4:	035b      	lsls	r3, r3, #13
    3ab6:	d51c      	bpl.n	3af2 <_system_pinmux_config+0x92>
			/* Set the OUT register bits to enable the pull-up if requested,
			 * clear to enable pull-down */
			if (config->input_pull == SYSTEM_PINMUX_PIN_PULL_UP) {
    3ab8:	7893      	ldrb	r3, [r2, #2]
    3aba:	2b01      	cmp	r3, #1
    3abc:	d01e      	beq.n	3afc <_system_pinmux_config+0x9c>
				port->OUTSET.reg = pin_mask;
			} else {
				port->OUTCLR.reg = pin_mask;
    3abe:	6141      	str	r1, [r0, #20]
    3ac0:	e017      	b.n	3af2 <_system_pinmux_config+0x92>
	uint32_t pin_cfg = 0;
    3ac2:	2300      	movs	r3, #0
    3ac4:	e7d7      	b.n	3a76 <_system_pinmux_config+0x16>
				pin_cfg |= PORT_WRCONFIG_PULLEN;
    3ac6:	24c0      	movs	r4, #192	; 0xc0
    3ac8:	02e4      	lsls	r4, r4, #11
    3aca:	4323      	orrs	r3, r4
    3acc:	e7dd      	b.n	3a8a <_system_pinmux_config+0x2a>
			pin_cfg &= ~PORT_WRCONFIG_PULLEN;
    3ace:	4c0d      	ldr	r4, [pc, #52]	; (3b04 <_system_pinmux_config+0xa4>)
    3ad0:	4023      	ands	r3, r4
    3ad2:	e7df      	b.n	3a94 <_system_pinmux_config+0x34>
		port->DIRCLR.reg = pin_mask;
    3ad4:	6041      	str	r1, [r0, #4]
	uint32_t lower_pin_mask = (pin_mask & 0xFFFF);
    3ad6:	040c      	lsls	r4, r1, #16
    3ad8:	0c24      	lsrs	r4, r4, #16
			pin_cfg | PORT_WRCONFIG_WRPMUX | PORT_WRCONFIG_WRPINCFG;
    3ada:	23a0      	movs	r3, #160	; 0xa0
    3adc:	05db      	lsls	r3, r3, #23
    3ade:	4323      	orrs	r3, r4
		= (lower_pin_mask << PORT_WRCONFIG_PINMASK_Pos) |
    3ae0:	6283      	str	r3, [r0, #40]	; 0x28
	uint32_t upper_pin_mask = (pin_mask >> 16);
    3ae2:	0c0c      	lsrs	r4, r1, #16
			pin_cfg | PORT_WRCONFIG_WRPMUX | PORT_WRCONFIG_WRPINCFG |
    3ae4:	23d0      	movs	r3, #208	; 0xd0
    3ae6:	061b      	lsls	r3, r3, #24
    3ae8:	4323      	orrs	r3, r4
		= (upper_pin_mask << PORT_WRCONFIG_PINMASK_Pos) |
    3aea:	6283      	str	r3, [r0, #40]	; 0x28
	if(!config->powersave) {
    3aec:	78d3      	ldrb	r3, [r2, #3]
    3aee:	2b00      	cmp	r3, #0
    3af0:	d103      	bne.n	3afa <_system_pinmux_config+0x9a>
			}
		}

		/* Check if the user has requested that the output buffer be enabled */
		if ((config->direction == SYSTEM_PINMUX_PIN_DIR_OUTPUT) ||
    3af2:	7853      	ldrb	r3, [r2, #1]
    3af4:	3b01      	subs	r3, #1
    3af6:	2b01      	cmp	r3, #1
    3af8:	d902      	bls.n	3b00 <_system_pinmux_config+0xa0>
				(config->direction == SYSTEM_PINMUX_PIN_DIR_OUTPUT_WITH_READBACK)) {
			/* Set the port DIR bits to enable the output buffer */
			port->DIRSET.reg = pin_mask;
		}
	}
}
    3afa:	bd30      	pop	{r4, r5, pc}
				port->OUTSET.reg = pin_mask;
    3afc:	6181      	str	r1, [r0, #24]
    3afe:	e7f8      	b.n	3af2 <_system_pinmux_config+0x92>
			port->DIRSET.reg = pin_mask;
    3b00:	6081      	str	r1, [r0, #8]
}
    3b02:	e7fa      	b.n	3afa <_system_pinmux_config+0x9a>
    3b04:	fffbffff 	.word	0xfffbffff

00003b08 <system_pinmux_pin_set_config>:
 * \param[in] config    Configuration settings for the pin
 */
void system_pinmux_pin_set_config(
		const uint8_t gpio_pin,
		const struct system_pinmux_config *const config)
{
    3b08:	b510      	push	{r4, lr}
    3b0a:	000a      	movs	r2, r1
	uint8_t group_index = (gpio_pin / 32);

	/* Array of available ports */
	Port *const ports[PORT_INST_NUM] = PORT_INSTS;

	if (port_index < PORT_INST_NUM) {
    3b0c:	09c1      	lsrs	r1, r0, #7
		return &(ports[port_index]->Group[group_index]);
	} else {
		Assert(false);
		return NULL;
    3b0e:	2300      	movs	r3, #0
	if (port_index < PORT_INST_NUM) {
    3b10:	2900      	cmp	r1, #0
    3b12:	d104      	bne.n	3b1e <system_pinmux_pin_set_config+0x16>
		return &(ports[port_index]->Group[group_index]);
    3b14:	0943      	lsrs	r3, r0, #5
    3b16:	01db      	lsls	r3, r3, #7
    3b18:	4905      	ldr	r1, [pc, #20]	; (3b30 <system_pinmux_pin_set_config+0x28>)
    3b1a:	468c      	mov	ip, r1
    3b1c:	4463      	add	r3, ip
	PortGroup *const port = system_pinmux_get_group_from_gpio_pin(gpio_pin);
	uint32_t pin_mask = (1UL << (gpio_pin % 32));
    3b1e:	241f      	movs	r4, #31
    3b20:	4020      	ands	r0, r4
    3b22:	2101      	movs	r1, #1
    3b24:	4081      	lsls	r1, r0

	_system_pinmux_config(port, pin_mask, config);
    3b26:	0018      	movs	r0, r3
    3b28:	4b02      	ldr	r3, [pc, #8]	; (3b34 <system_pinmux_pin_set_config+0x2c>)
    3b2a:	4798      	blx	r3
}
    3b2c:	bd10      	pop	{r4, pc}
    3b2e:	46c0      	nop			; (mov r8, r8)
    3b30:	41004400 	.word	0x41004400
    3b34:	00003a61 	.word	0x00003a61

00003b38 <_system_dummy_init>:
 */
void _system_dummy_init(void);
void _system_dummy_init(void)
{
	return;
}
    3b38:	4770      	bx	lr
	...

00003b3c <system_init>:
 *  - Board hardware initialization (via the Board module)
 *  - Event system driver initialization (via the EVSYS module)
 *  - External Interrupt driver initialization (via the EXTINT module)
 */
void system_init(void)
{
    3b3c:	b510      	push	{r4, lr}
	/* Configure GCLK and clock sources according to conf_clocks.h */
	system_clock_init();
    3b3e:	4b05      	ldr	r3, [pc, #20]	; (3b54 <system_init+0x18>)
    3b40:	4798      	blx	r3

	/* Initialize board hardware */
	system_board_init();
    3b42:	4b05      	ldr	r3, [pc, #20]	; (3b58 <system_init+0x1c>)
    3b44:	4798      	blx	r3

	/* Initialize EVSYS hardware */
	_system_events_init();
    3b46:	4b05      	ldr	r3, [pc, #20]	; (3b5c <system_init+0x20>)
    3b48:	4798      	blx	r3

	/* Initialize External hardware */
	_system_extint_init();
    3b4a:	4b05      	ldr	r3, [pc, #20]	; (3b60 <system_init+0x24>)
    3b4c:	4798      	blx	r3
	
	/* Initialize DIVAS hardware */
	_system_divas_init();
    3b4e:	4b05      	ldr	r3, [pc, #20]	; (3b64 <system_init+0x28>)
    3b50:	4798      	blx	r3
}
    3b52:	bd10      	pop	{r4, pc}
    3b54:	0000365d 	.word	0x0000365d
    3b58:	00003379 	.word	0x00003379
    3b5c:	00003b39 	.word	0x00003b39
    3b60:	00003b39 	.word	0x00003b39
    3b64:	00003b39 	.word	0x00003b39

00003b68 <Dummy_Handler>:

/**
 * \brief Default interrupt handler for unused IRQs.
 */
void Dummy_Handler(void)
{
    3b68:	e7fe      	b.n	3b68 <Dummy_Handler>
	...

00003b6c <Reset_Handler>:
{
    3b6c:	b5f8      	push	{r3, r4, r5, r6, r7, lr}
        if (pSrc != pDest) {
    3b6e:	4a2a      	ldr	r2, [pc, #168]	; (3c18 <Reset_Handler+0xac>)
    3b70:	4b2a      	ldr	r3, [pc, #168]	; (3c1c <Reset_Handler+0xb0>)
    3b72:	429a      	cmp	r2, r3
    3b74:	d011      	beq.n	3b9a <Reset_Handler+0x2e>
                for (; pDest < &_erelocate;) {
    3b76:	001a      	movs	r2, r3
    3b78:	4b29      	ldr	r3, [pc, #164]	; (3c20 <Reset_Handler+0xb4>)
    3b7a:	429a      	cmp	r2, r3
    3b7c:	d20d      	bcs.n	3b9a <Reset_Handler+0x2e>
    3b7e:	4a29      	ldr	r2, [pc, #164]	; (3c24 <Reset_Handler+0xb8>)
    3b80:	3303      	adds	r3, #3
    3b82:	1a9b      	subs	r3, r3, r2
    3b84:	089b      	lsrs	r3, r3, #2
    3b86:	3301      	adds	r3, #1
    3b88:	009b      	lsls	r3, r3, #2
    3b8a:	2200      	movs	r2, #0
                        *pDest++ = *pSrc++;
    3b8c:	4823      	ldr	r0, [pc, #140]	; (3c1c <Reset_Handler+0xb0>)
    3b8e:	4922      	ldr	r1, [pc, #136]	; (3c18 <Reset_Handler+0xac>)
    3b90:	588c      	ldr	r4, [r1, r2]
    3b92:	5084      	str	r4, [r0, r2]
    3b94:	3204      	adds	r2, #4
                for (; pDest < &_erelocate;) {
    3b96:	429a      	cmp	r2, r3
    3b98:	d1fa      	bne.n	3b90 <Reset_Handler+0x24>
        for (pDest = &_szero; pDest < &_ezero;) {
    3b9a:	4a23      	ldr	r2, [pc, #140]	; (3c28 <Reset_Handler+0xbc>)
    3b9c:	4b23      	ldr	r3, [pc, #140]	; (3c2c <Reset_Handler+0xc0>)
    3b9e:	429a      	cmp	r2, r3
    3ba0:	d20a      	bcs.n	3bb8 <Reset_Handler+0x4c>
    3ba2:	43d3      	mvns	r3, r2
    3ba4:	4921      	ldr	r1, [pc, #132]	; (3c2c <Reset_Handler+0xc0>)
    3ba6:	185b      	adds	r3, r3, r1
    3ba8:	2103      	movs	r1, #3
    3baa:	438b      	bics	r3, r1
    3bac:	3304      	adds	r3, #4
    3bae:	189b      	adds	r3, r3, r2
                *pDest++ = 0;
    3bb0:	2100      	movs	r1, #0
    3bb2:	c202      	stmia	r2!, {r1}
        for (pDest = &_szero; pDest < &_ezero;) {
    3bb4:	4293      	cmp	r3, r2
    3bb6:	d1fc      	bne.n	3bb2 <Reset_Handler+0x46>
        SCB->VTOR = ((uint32_t) pSrc & SCB_VTOR_TBLOFF_Msk);
    3bb8:	4a1d      	ldr	r2, [pc, #116]	; (3c30 <Reset_Handler+0xc4>)
    3bba:	21ff      	movs	r1, #255	; 0xff
    3bbc:	4b1d      	ldr	r3, [pc, #116]	; (3c34 <Reset_Handler+0xc8>)
    3bbe:	438b      	bics	r3, r1
    3bc0:	6093      	str	r3, [r2, #8]
        SBMATRIX->SFR[SBMATRIX_SLAVE_HMCRAMC0].reg = 2;
    3bc2:	39fd      	subs	r1, #253	; 0xfd
    3bc4:	2390      	movs	r3, #144	; 0x90
    3bc6:	005b      	lsls	r3, r3, #1
    3bc8:	4a1b      	ldr	r2, [pc, #108]	; (3c38 <Reset_Handler+0xcc>)
    3bca:	50d1      	str	r1, [r2, r3]
        USB->DEVICE.QOSCTRL.bit.CQOS = 2;
    3bcc:	4a1b      	ldr	r2, [pc, #108]	; (3c3c <Reset_Handler+0xd0>)
    3bce:	78d3      	ldrb	r3, [r2, #3]
    3bd0:	2503      	movs	r5, #3
    3bd2:	43ab      	bics	r3, r5
    3bd4:	2402      	movs	r4, #2
    3bd6:	4323      	orrs	r3, r4
    3bd8:	70d3      	strb	r3, [r2, #3]
        USB->DEVICE.QOSCTRL.bit.DQOS = 2;
    3bda:	78d3      	ldrb	r3, [r2, #3]
    3bdc:	270c      	movs	r7, #12
    3bde:	43bb      	bics	r3, r7
    3be0:	2608      	movs	r6, #8
    3be2:	4333      	orrs	r3, r6
    3be4:	70d3      	strb	r3, [r2, #3]
        DMAC->QOSCTRL.bit.DQOS = 2;
    3be6:	4b16      	ldr	r3, [pc, #88]	; (3c40 <Reset_Handler+0xd4>)
    3be8:	7b98      	ldrb	r0, [r3, #14]
    3bea:	2230      	movs	r2, #48	; 0x30
    3bec:	4390      	bics	r0, r2
    3bee:	2220      	movs	r2, #32
    3bf0:	4310      	orrs	r0, r2
    3bf2:	7398      	strb	r0, [r3, #14]
        DMAC->QOSCTRL.bit.FQOS = 2;
    3bf4:	7b99      	ldrb	r1, [r3, #14]
    3bf6:	43b9      	bics	r1, r7
    3bf8:	4331      	orrs	r1, r6
    3bfa:	7399      	strb	r1, [r3, #14]
        DMAC->QOSCTRL.bit.WRBQOS = 2;
    3bfc:	7b9a      	ldrb	r2, [r3, #14]
    3bfe:	43aa      	bics	r2, r5
    3c00:	4322      	orrs	r2, r4
    3c02:	739a      	strb	r2, [r3, #14]
        NVMCTRL->CTRLB.bit.MANW = 1;
    3c04:	4a0f      	ldr	r2, [pc, #60]	; (3c44 <Reset_Handler+0xd8>)
    3c06:	6853      	ldr	r3, [r2, #4]
    3c08:	2180      	movs	r1, #128	; 0x80
    3c0a:	430b      	orrs	r3, r1
    3c0c:	6053      	str	r3, [r2, #4]
        __libc_init_array();
    3c0e:	4b0e      	ldr	r3, [pc, #56]	; (3c48 <Reset_Handler+0xdc>)
    3c10:	4798      	blx	r3
        main();
    3c12:	4b0e      	ldr	r3, [pc, #56]	; (3c4c <Reset_Handler+0xe0>)
    3c14:	4798      	blx	r3
    3c16:	e7fe      	b.n	3c16 <Reset_Handler+0xaa>
    3c18:	00005b60 	.word	0x00005b60
    3c1c:	20000000 	.word	0x20000000
    3c20:	200000bc 	.word	0x200000bc
    3c24:	20000004 	.word	0x20000004
    3c28:	200000bc 	.word	0x200000bc
    3c2c:	2000126c 	.word	0x2000126c
    3c30:	e000ed00 	.word	0xe000ed00
    3c34:	00000000 	.word	0x00000000
    3c38:	41007000 	.word	0x41007000
    3c3c:	41005000 	.word	0x41005000
    3c40:	41004800 	.word	0x41004800
    3c44:	41004000 	.word	0x41004000
    3c48:	00005729 	.word	0x00005729
    3c4c:	00003c75 	.word	0x00003c75

00003c50 <_sbrk>:
extern void _exit(int status);
extern void _kill(int pid, int sig);
extern int _getpid(void);

extern caddr_t _sbrk(int incr)
{
    3c50:	0003      	movs	r3, r0
	static unsigned char *heap = NULL;
	unsigned char *prev_heap;

	if (heap == NULL) {
    3c52:	4a06      	ldr	r2, [pc, #24]	; (3c6c <_sbrk+0x1c>)
    3c54:	6812      	ldr	r2, [r2, #0]
    3c56:	2a00      	cmp	r2, #0
    3c58:	d004      	beq.n	3c64 <_sbrk+0x14>
		heap = (unsigned char *)&_end;
	}
	prev_heap = heap;
    3c5a:	4a04      	ldr	r2, [pc, #16]	; (3c6c <_sbrk+0x1c>)
    3c5c:	6810      	ldr	r0, [r2, #0]

	heap += incr;
    3c5e:	18c3      	adds	r3, r0, r3
    3c60:	6013      	str	r3, [r2, #0]

	return (caddr_t) prev_heap;
}
    3c62:	4770      	bx	lr
		heap = (unsigned char *)&_end;
    3c64:	4902      	ldr	r1, [pc, #8]	; (3c70 <_sbrk+0x20>)
    3c66:	4a01      	ldr	r2, [pc, #4]	; (3c6c <_sbrk+0x1c>)
    3c68:	6011      	str	r1, [r2, #0]
    3c6a:	e7f6      	b.n	3c5a <_sbrk+0xa>
    3c6c:	20000e0c 	.word	0x20000e0c
    3c70:	20003270 	.word	0x20003270

00003c74 <main>:
	port_pin_set_output_level(PIN_PB06,false);
}


int main (void)
{
    3c74:	b570      	push	{r4, r5, r6, lr}
	system_init();
    3c76:	4b11      	ldr	r3, [pc, #68]	; (3cbc <main+0x48>)
    3c78:	4798      	blx	r3
	delay_init();
    3c7a:	4b11      	ldr	r3, [pc, #68]	; (3cc0 <main+0x4c>)
    3c7c:	4798      	blx	r3
	configureSendInfo();
    3c7e:	4b11      	ldr	r3, [pc, #68]	; (3cc4 <main+0x50>)
    3c80:	4798      	blx	r3
	initializeI2CModules();
    3c82:	4b11      	ldr	r3, [pc, #68]	; (3cc8 <main+0x54>)
    3c84:	4798      	blx	r3
	delay_cycles_ms(500);
    3c86:	20fa      	movs	r0, #250	; 0xfa
    3c88:	0040      	lsls	r0, r0, #1
    3c8a:	4b10      	ldr	r3, [pc, #64]	; (3ccc <main+0x58>)
    3c8c:	4798      	blx	r3
	//enableServoTCC();
	//USART -- 115200
	serialInit();  
    3c8e:	4b10      	ldr	r3, [pc, #64]	; (3cd0 <main+0x5c>)
    3c90:	4798      	blx	r3
	//testDetectPin();
	configureInputOutputDetection();
    3c92:	4b10      	ldr	r3, [pc, #64]	; (3cd4 <main+0x60>)
    3c94:	4798      	blx	r3
	while(1)
	{
		
		checkOutputsInputs();
    3c96:	4e10      	ldr	r6, [pc, #64]	; (3cd8 <main+0x64>)
		checkSetOutputs();
    3c98:	4d10      	ldr	r5, [pc, #64]	; (3cdc <main+0x68>)
		checkSetInputs();
    3c9a:	4c11      	ldr	r4, [pc, #68]	; (3ce0 <main+0x6c>)
		checkOutputsInputs();
    3c9c:	47b0      	blx	r6
		checkSetOutputs();
    3c9e:	47a8      	blx	r5
		checkSetInputs();
    3ca0:	47a0      	blx	r4
		readSensors();
    3ca2:	4b10      	ldr	r3, [pc, #64]	; (3ce4 <main+0x70>)
    3ca4:	4798      	blx	r3
		//setOutputs();
		checkUART();
    3ca6:	4b10      	ldr	r3, [pc, #64]	; (3ce8 <main+0x74>)
    3ca8:	4798      	blx	r3
		delay_cycles_ms(5);
    3caa:	2005      	movs	r0, #5
    3cac:	4b07      	ldr	r3, [pc, #28]	; (3ccc <main+0x58>)
    3cae:	4798      	blx	r3
		checkSendOutputs();
    3cb0:	4b0e      	ldr	r3, [pc, #56]	; (3cec <main+0x78>)
    3cb2:	4798      	blx	r3
		checkSendInputs();
    3cb4:	4b0e      	ldr	r3, [pc, #56]	; (3cf0 <main+0x7c>)
    3cb6:	4798      	blx	r3
    3cb8:	e7f0      	b.n	3c9c <main+0x28>
    3cba:	46c0      	nop			; (mov r8, r8)
    3cbc:	00003b3d 	.word	0x00003b3d
    3cc0:	00001bf9 	.word	0x00001bf9
    3cc4:	00001be5 	.word	0x00001be5
    3cc8:	00001405 	.word	0x00001405
    3ccc:	00001c39 	.word	0x00001c39
    3cd0:	00002f69 	.word	0x00002f69
    3cd4:	0000336d 	.word	0x0000336d
    3cd8:	00003351 	.word	0x00003351
    3cdc:	00000f81 	.word	0x00000f81
    3ce0:	00000e79 	.word	0x00000e79
    3ce4:	00002ea5 	.word	0x00002ea5
    3ce8:	00002dc5 	.word	0x00002dc5
    3cec:	0000194d 	.word	0x0000194d
    3cf0:	00001891 	.word	0x00001891

00003cf4 <__udivsi3>:
    3cf4:	2200      	movs	r2, #0
    3cf6:	0843      	lsrs	r3, r0, #1
    3cf8:	428b      	cmp	r3, r1
    3cfa:	d374      	bcc.n	3de6 <__udivsi3+0xf2>
    3cfc:	0903      	lsrs	r3, r0, #4
    3cfe:	428b      	cmp	r3, r1
    3d00:	d35f      	bcc.n	3dc2 <__udivsi3+0xce>
    3d02:	0a03      	lsrs	r3, r0, #8
    3d04:	428b      	cmp	r3, r1
    3d06:	d344      	bcc.n	3d92 <__udivsi3+0x9e>
    3d08:	0b03      	lsrs	r3, r0, #12
    3d0a:	428b      	cmp	r3, r1
    3d0c:	d328      	bcc.n	3d60 <__udivsi3+0x6c>
    3d0e:	0c03      	lsrs	r3, r0, #16
    3d10:	428b      	cmp	r3, r1
    3d12:	d30d      	bcc.n	3d30 <__udivsi3+0x3c>
    3d14:	22ff      	movs	r2, #255	; 0xff
    3d16:	0209      	lsls	r1, r1, #8
    3d18:	ba12      	rev	r2, r2
    3d1a:	0c03      	lsrs	r3, r0, #16
    3d1c:	428b      	cmp	r3, r1
    3d1e:	d302      	bcc.n	3d26 <__udivsi3+0x32>
    3d20:	1212      	asrs	r2, r2, #8
    3d22:	0209      	lsls	r1, r1, #8
    3d24:	d065      	beq.n	3df2 <__udivsi3+0xfe>
    3d26:	0b03      	lsrs	r3, r0, #12
    3d28:	428b      	cmp	r3, r1
    3d2a:	d319      	bcc.n	3d60 <__udivsi3+0x6c>
    3d2c:	e000      	b.n	3d30 <__udivsi3+0x3c>
    3d2e:	0a09      	lsrs	r1, r1, #8
    3d30:	0bc3      	lsrs	r3, r0, #15
    3d32:	428b      	cmp	r3, r1
    3d34:	d301      	bcc.n	3d3a <__udivsi3+0x46>
    3d36:	03cb      	lsls	r3, r1, #15
    3d38:	1ac0      	subs	r0, r0, r3
    3d3a:	4152      	adcs	r2, r2
    3d3c:	0b83      	lsrs	r3, r0, #14
    3d3e:	428b      	cmp	r3, r1
    3d40:	d301      	bcc.n	3d46 <__udivsi3+0x52>
    3d42:	038b      	lsls	r3, r1, #14
    3d44:	1ac0      	subs	r0, r0, r3
    3d46:	4152      	adcs	r2, r2
    3d48:	0b43      	lsrs	r3, r0, #13
    3d4a:	428b      	cmp	r3, r1
    3d4c:	d301      	bcc.n	3d52 <__udivsi3+0x5e>
    3d4e:	034b      	lsls	r3, r1, #13
    3d50:	1ac0      	subs	r0, r0, r3
    3d52:	4152      	adcs	r2, r2
    3d54:	0b03      	lsrs	r3, r0, #12
    3d56:	428b      	cmp	r3, r1
    3d58:	d301      	bcc.n	3d5e <__udivsi3+0x6a>
    3d5a:	030b      	lsls	r3, r1, #12
    3d5c:	1ac0      	subs	r0, r0, r3
    3d5e:	4152      	adcs	r2, r2
    3d60:	0ac3      	lsrs	r3, r0, #11
    3d62:	428b      	cmp	r3, r1
    3d64:	d301      	bcc.n	3d6a <__udivsi3+0x76>
    3d66:	02cb      	lsls	r3, r1, #11
    3d68:	1ac0      	subs	r0, r0, r3
    3d6a:	4152      	adcs	r2, r2
    3d6c:	0a83      	lsrs	r3, r0, #10
    3d6e:	428b      	cmp	r3, r1
    3d70:	d301      	bcc.n	3d76 <__udivsi3+0x82>
    3d72:	028b      	lsls	r3, r1, #10
    3d74:	1ac0      	subs	r0, r0, r3
    3d76:	4152      	adcs	r2, r2
    3d78:	0a43      	lsrs	r3, r0, #9
    3d7a:	428b      	cmp	r3, r1
    3d7c:	d301      	bcc.n	3d82 <__udivsi3+0x8e>
    3d7e:	024b      	lsls	r3, r1, #9
    3d80:	1ac0      	subs	r0, r0, r3
    3d82:	4152      	adcs	r2, r2
    3d84:	0a03      	lsrs	r3, r0, #8
    3d86:	428b      	cmp	r3, r1
    3d88:	d301      	bcc.n	3d8e <__udivsi3+0x9a>
    3d8a:	020b      	lsls	r3, r1, #8
    3d8c:	1ac0      	subs	r0, r0, r3
    3d8e:	4152      	adcs	r2, r2
    3d90:	d2cd      	bcs.n	3d2e <__udivsi3+0x3a>
    3d92:	09c3      	lsrs	r3, r0, #7
    3d94:	428b      	cmp	r3, r1
    3d96:	d301      	bcc.n	3d9c <__udivsi3+0xa8>
    3d98:	01cb      	lsls	r3, r1, #7
    3d9a:	1ac0      	subs	r0, r0, r3
    3d9c:	4152      	adcs	r2, r2
    3d9e:	0983      	lsrs	r3, r0, #6
    3da0:	428b      	cmp	r3, r1
    3da2:	d301      	bcc.n	3da8 <__udivsi3+0xb4>
    3da4:	018b      	lsls	r3, r1, #6
    3da6:	1ac0      	subs	r0, r0, r3
    3da8:	4152      	adcs	r2, r2
    3daa:	0943      	lsrs	r3, r0, #5
    3dac:	428b      	cmp	r3, r1
    3dae:	d301      	bcc.n	3db4 <__udivsi3+0xc0>
    3db0:	014b      	lsls	r3, r1, #5
    3db2:	1ac0      	subs	r0, r0, r3
    3db4:	4152      	adcs	r2, r2
    3db6:	0903      	lsrs	r3, r0, #4
    3db8:	428b      	cmp	r3, r1
    3dba:	d301      	bcc.n	3dc0 <__udivsi3+0xcc>
    3dbc:	010b      	lsls	r3, r1, #4
    3dbe:	1ac0      	subs	r0, r0, r3
    3dc0:	4152      	adcs	r2, r2
    3dc2:	08c3      	lsrs	r3, r0, #3
    3dc4:	428b      	cmp	r3, r1
    3dc6:	d301      	bcc.n	3dcc <__udivsi3+0xd8>
    3dc8:	00cb      	lsls	r3, r1, #3
    3dca:	1ac0      	subs	r0, r0, r3
    3dcc:	4152      	adcs	r2, r2
    3dce:	0883      	lsrs	r3, r0, #2
    3dd0:	428b      	cmp	r3, r1
    3dd2:	d301      	bcc.n	3dd8 <__udivsi3+0xe4>
    3dd4:	008b      	lsls	r3, r1, #2
    3dd6:	1ac0      	subs	r0, r0, r3
    3dd8:	4152      	adcs	r2, r2
    3dda:	0843      	lsrs	r3, r0, #1
    3ddc:	428b      	cmp	r3, r1
    3dde:	d301      	bcc.n	3de4 <__udivsi3+0xf0>
    3de0:	004b      	lsls	r3, r1, #1
    3de2:	1ac0      	subs	r0, r0, r3
    3de4:	4152      	adcs	r2, r2
    3de6:	1a41      	subs	r1, r0, r1
    3de8:	d200      	bcs.n	3dec <__udivsi3+0xf8>
    3dea:	4601      	mov	r1, r0
    3dec:	4152      	adcs	r2, r2
    3dee:	4610      	mov	r0, r2
    3df0:	4770      	bx	lr
    3df2:	e7ff      	b.n	3df4 <__udivsi3+0x100>
    3df4:	b501      	push	{r0, lr}
    3df6:	2000      	movs	r0, #0
    3df8:	f000 f806 	bl	3e08 <__aeabi_idiv0>
    3dfc:	bd02      	pop	{r1, pc}
    3dfe:	46c0      	nop			; (mov r8, r8)

00003e00 <__aeabi_uidivmod>:
    3e00:	2900      	cmp	r1, #0
    3e02:	d0f7      	beq.n	3df4 <__udivsi3+0x100>
    3e04:	e776      	b.n	3cf4 <__udivsi3>
    3e06:	4770      	bx	lr

00003e08 <__aeabi_idiv0>:
    3e08:	4770      	bx	lr
    3e0a:	46c0      	nop			; (mov r8, r8)

00003e0c <__aeabi_lmul>:
    3e0c:	b5f0      	push	{r4, r5, r6, r7, lr}
    3e0e:	46ce      	mov	lr, r9
    3e10:	4647      	mov	r7, r8
    3e12:	0415      	lsls	r5, r2, #16
    3e14:	0c2d      	lsrs	r5, r5, #16
    3e16:	002e      	movs	r6, r5
    3e18:	b580      	push	{r7, lr}
    3e1a:	0407      	lsls	r7, r0, #16
    3e1c:	0c14      	lsrs	r4, r2, #16
    3e1e:	0c3f      	lsrs	r7, r7, #16
    3e20:	4699      	mov	r9, r3
    3e22:	0c03      	lsrs	r3, r0, #16
    3e24:	437e      	muls	r6, r7
    3e26:	435d      	muls	r5, r3
    3e28:	4367      	muls	r7, r4
    3e2a:	4363      	muls	r3, r4
    3e2c:	197f      	adds	r7, r7, r5
    3e2e:	0c34      	lsrs	r4, r6, #16
    3e30:	19e4      	adds	r4, r4, r7
    3e32:	469c      	mov	ip, r3
    3e34:	42a5      	cmp	r5, r4
    3e36:	d903      	bls.n	3e40 <__aeabi_lmul+0x34>
    3e38:	2380      	movs	r3, #128	; 0x80
    3e3a:	025b      	lsls	r3, r3, #9
    3e3c:	4698      	mov	r8, r3
    3e3e:	44c4      	add	ip, r8
    3e40:	464b      	mov	r3, r9
    3e42:	4351      	muls	r1, r2
    3e44:	4343      	muls	r3, r0
    3e46:	0436      	lsls	r6, r6, #16
    3e48:	0c36      	lsrs	r6, r6, #16
    3e4a:	0c25      	lsrs	r5, r4, #16
    3e4c:	0424      	lsls	r4, r4, #16
    3e4e:	4465      	add	r5, ip
    3e50:	19a4      	adds	r4, r4, r6
    3e52:	1859      	adds	r1, r3, r1
    3e54:	1949      	adds	r1, r1, r5
    3e56:	0020      	movs	r0, r4
    3e58:	bc0c      	pop	{r2, r3}
    3e5a:	4690      	mov	r8, r2
    3e5c:	4699      	mov	r9, r3
    3e5e:	bdf0      	pop	{r4, r5, r6, r7, pc}

00003e60 <__aeabi_dadd>:
    3e60:	b5f8      	push	{r3, r4, r5, r6, r7, lr}
    3e62:	4645      	mov	r5, r8
    3e64:	46de      	mov	lr, fp
    3e66:	4657      	mov	r7, sl
    3e68:	464e      	mov	r6, r9
    3e6a:	030c      	lsls	r4, r1, #12
    3e6c:	b5e0      	push	{r5, r6, r7, lr}
    3e6e:	004e      	lsls	r6, r1, #1
    3e70:	0fc9      	lsrs	r1, r1, #31
    3e72:	4688      	mov	r8, r1
    3e74:	000d      	movs	r5, r1
    3e76:	0a61      	lsrs	r1, r4, #9
    3e78:	0f44      	lsrs	r4, r0, #29
    3e7a:	430c      	orrs	r4, r1
    3e7c:	00c7      	lsls	r7, r0, #3
    3e7e:	0319      	lsls	r1, r3, #12
    3e80:	0058      	lsls	r0, r3, #1
    3e82:	0fdb      	lsrs	r3, r3, #31
    3e84:	469b      	mov	fp, r3
    3e86:	0a4b      	lsrs	r3, r1, #9
    3e88:	0f51      	lsrs	r1, r2, #29
    3e8a:	430b      	orrs	r3, r1
    3e8c:	0d76      	lsrs	r6, r6, #21
    3e8e:	0d40      	lsrs	r0, r0, #21
    3e90:	0019      	movs	r1, r3
    3e92:	00d2      	lsls	r2, r2, #3
    3e94:	45d8      	cmp	r8, fp
    3e96:	d100      	bne.n	3e9a <__aeabi_dadd+0x3a>
    3e98:	e0ae      	b.n	3ff8 <__aeabi_dadd+0x198>
    3e9a:	1a35      	subs	r5, r6, r0
    3e9c:	2d00      	cmp	r5, #0
    3e9e:	dc00      	bgt.n	3ea2 <__aeabi_dadd+0x42>
    3ea0:	e0f6      	b.n	4090 <__aeabi_dadd+0x230>
    3ea2:	2800      	cmp	r0, #0
    3ea4:	d10f      	bne.n	3ec6 <__aeabi_dadd+0x66>
    3ea6:	4313      	orrs	r3, r2
    3ea8:	d100      	bne.n	3eac <__aeabi_dadd+0x4c>
    3eaa:	e0db      	b.n	4064 <__aeabi_dadd+0x204>
    3eac:	1e6b      	subs	r3, r5, #1
    3eae:	2b00      	cmp	r3, #0
    3eb0:	d000      	beq.n	3eb4 <__aeabi_dadd+0x54>
    3eb2:	e137      	b.n	4124 <__aeabi_dadd+0x2c4>
    3eb4:	1aba      	subs	r2, r7, r2
    3eb6:	4297      	cmp	r7, r2
    3eb8:	41bf      	sbcs	r7, r7
    3eba:	1a64      	subs	r4, r4, r1
    3ebc:	427f      	negs	r7, r7
    3ebe:	1be4      	subs	r4, r4, r7
    3ec0:	2601      	movs	r6, #1
    3ec2:	0017      	movs	r7, r2
    3ec4:	e024      	b.n	3f10 <__aeabi_dadd+0xb0>
    3ec6:	4bc6      	ldr	r3, [pc, #792]	; (41e0 <__aeabi_dadd+0x380>)
    3ec8:	429e      	cmp	r6, r3
    3eca:	d04d      	beq.n	3f68 <__aeabi_dadd+0x108>
    3ecc:	2380      	movs	r3, #128	; 0x80
    3ece:	041b      	lsls	r3, r3, #16
    3ed0:	4319      	orrs	r1, r3
    3ed2:	2d38      	cmp	r5, #56	; 0x38
    3ed4:	dd00      	ble.n	3ed8 <__aeabi_dadd+0x78>
    3ed6:	e107      	b.n	40e8 <__aeabi_dadd+0x288>
    3ed8:	2d1f      	cmp	r5, #31
    3eda:	dd00      	ble.n	3ede <__aeabi_dadd+0x7e>
    3edc:	e138      	b.n	4150 <__aeabi_dadd+0x2f0>
    3ede:	2020      	movs	r0, #32
    3ee0:	1b43      	subs	r3, r0, r5
    3ee2:	469a      	mov	sl, r3
    3ee4:	000b      	movs	r3, r1
    3ee6:	4650      	mov	r0, sl
    3ee8:	4083      	lsls	r3, r0
    3eea:	4699      	mov	r9, r3
    3eec:	0013      	movs	r3, r2
    3eee:	4648      	mov	r0, r9
    3ef0:	40eb      	lsrs	r3, r5
    3ef2:	4318      	orrs	r0, r3
    3ef4:	0003      	movs	r3, r0
    3ef6:	4650      	mov	r0, sl
    3ef8:	4082      	lsls	r2, r0
    3efa:	1e50      	subs	r0, r2, #1
    3efc:	4182      	sbcs	r2, r0
    3efe:	40e9      	lsrs	r1, r5
    3f00:	431a      	orrs	r2, r3
    3f02:	1aba      	subs	r2, r7, r2
    3f04:	1a61      	subs	r1, r4, r1
    3f06:	4297      	cmp	r7, r2
    3f08:	41a4      	sbcs	r4, r4
    3f0a:	0017      	movs	r7, r2
    3f0c:	4264      	negs	r4, r4
    3f0e:	1b0c      	subs	r4, r1, r4
    3f10:	0223      	lsls	r3, r4, #8
    3f12:	d562      	bpl.n	3fda <__aeabi_dadd+0x17a>
    3f14:	0264      	lsls	r4, r4, #9
    3f16:	0a65      	lsrs	r5, r4, #9
    3f18:	2d00      	cmp	r5, #0
    3f1a:	d100      	bne.n	3f1e <__aeabi_dadd+0xbe>
    3f1c:	e0df      	b.n	40de <__aeabi_dadd+0x27e>
    3f1e:	0028      	movs	r0, r5
    3f20:	f001 fbe4 	bl	56ec <__clzsi2>
    3f24:	0003      	movs	r3, r0
    3f26:	3b08      	subs	r3, #8
    3f28:	2b1f      	cmp	r3, #31
    3f2a:	dd00      	ble.n	3f2e <__aeabi_dadd+0xce>
    3f2c:	e0d2      	b.n	40d4 <__aeabi_dadd+0x274>
    3f2e:	2220      	movs	r2, #32
    3f30:	003c      	movs	r4, r7
    3f32:	1ad2      	subs	r2, r2, r3
    3f34:	409d      	lsls	r5, r3
    3f36:	40d4      	lsrs	r4, r2
    3f38:	409f      	lsls	r7, r3
    3f3a:	4325      	orrs	r5, r4
    3f3c:	429e      	cmp	r6, r3
    3f3e:	dd00      	ble.n	3f42 <__aeabi_dadd+0xe2>
    3f40:	e0c4      	b.n	40cc <__aeabi_dadd+0x26c>
    3f42:	1b9e      	subs	r6, r3, r6
    3f44:	1c73      	adds	r3, r6, #1
    3f46:	2b1f      	cmp	r3, #31
    3f48:	dd00      	ble.n	3f4c <__aeabi_dadd+0xec>
    3f4a:	e0f1      	b.n	4130 <__aeabi_dadd+0x2d0>
    3f4c:	2220      	movs	r2, #32
    3f4e:	0038      	movs	r0, r7
    3f50:	0029      	movs	r1, r5
    3f52:	1ad2      	subs	r2, r2, r3
    3f54:	40d8      	lsrs	r0, r3
    3f56:	4091      	lsls	r1, r2
    3f58:	4097      	lsls	r7, r2
    3f5a:	002c      	movs	r4, r5
    3f5c:	4301      	orrs	r1, r0
    3f5e:	1e78      	subs	r0, r7, #1
    3f60:	4187      	sbcs	r7, r0
    3f62:	40dc      	lsrs	r4, r3
    3f64:	2600      	movs	r6, #0
    3f66:	430f      	orrs	r7, r1
    3f68:	077b      	lsls	r3, r7, #29
    3f6a:	d009      	beq.n	3f80 <__aeabi_dadd+0x120>
    3f6c:	230f      	movs	r3, #15
    3f6e:	403b      	ands	r3, r7
    3f70:	2b04      	cmp	r3, #4
    3f72:	d005      	beq.n	3f80 <__aeabi_dadd+0x120>
    3f74:	1d3b      	adds	r3, r7, #4
    3f76:	42bb      	cmp	r3, r7
    3f78:	41bf      	sbcs	r7, r7
    3f7a:	427f      	negs	r7, r7
    3f7c:	19e4      	adds	r4, r4, r7
    3f7e:	001f      	movs	r7, r3
    3f80:	0223      	lsls	r3, r4, #8
    3f82:	d52c      	bpl.n	3fde <__aeabi_dadd+0x17e>
    3f84:	4b96      	ldr	r3, [pc, #600]	; (41e0 <__aeabi_dadd+0x380>)
    3f86:	3601      	adds	r6, #1
    3f88:	429e      	cmp	r6, r3
    3f8a:	d100      	bne.n	3f8e <__aeabi_dadd+0x12e>
    3f8c:	e09a      	b.n	40c4 <__aeabi_dadd+0x264>
    3f8e:	4645      	mov	r5, r8
    3f90:	4b94      	ldr	r3, [pc, #592]	; (41e4 <__aeabi_dadd+0x384>)
    3f92:	08ff      	lsrs	r7, r7, #3
    3f94:	401c      	ands	r4, r3
    3f96:	0760      	lsls	r0, r4, #29
    3f98:	0576      	lsls	r6, r6, #21
    3f9a:	0264      	lsls	r4, r4, #9
    3f9c:	4307      	orrs	r7, r0
    3f9e:	0b24      	lsrs	r4, r4, #12
    3fa0:	0d76      	lsrs	r6, r6, #21
    3fa2:	2100      	movs	r1, #0
    3fa4:	0324      	lsls	r4, r4, #12
    3fa6:	0b23      	lsrs	r3, r4, #12
    3fa8:	0d0c      	lsrs	r4, r1, #20
    3faa:	4a8f      	ldr	r2, [pc, #572]	; (41e8 <__aeabi_dadd+0x388>)
    3fac:	0524      	lsls	r4, r4, #20
    3fae:	431c      	orrs	r4, r3
    3fb0:	4014      	ands	r4, r2
    3fb2:	0533      	lsls	r3, r6, #20
    3fb4:	4323      	orrs	r3, r4
    3fb6:	005b      	lsls	r3, r3, #1
    3fb8:	07ed      	lsls	r5, r5, #31
    3fba:	085b      	lsrs	r3, r3, #1
    3fbc:	432b      	orrs	r3, r5
    3fbe:	0038      	movs	r0, r7
    3fc0:	0019      	movs	r1, r3
    3fc2:	bc3c      	pop	{r2, r3, r4, r5}
    3fc4:	4690      	mov	r8, r2
    3fc6:	4699      	mov	r9, r3
    3fc8:	46a2      	mov	sl, r4
    3fca:	46ab      	mov	fp, r5
    3fcc:	bdf8      	pop	{r3, r4, r5, r6, r7, pc}
    3fce:	4664      	mov	r4, ip
    3fd0:	4304      	orrs	r4, r0
    3fd2:	d100      	bne.n	3fd6 <__aeabi_dadd+0x176>
    3fd4:	e211      	b.n	43fa <__aeabi_dadd+0x59a>
    3fd6:	0004      	movs	r4, r0
    3fd8:	4667      	mov	r7, ip
    3fda:	077b      	lsls	r3, r7, #29
    3fdc:	d1c6      	bne.n	3f6c <__aeabi_dadd+0x10c>
    3fde:	4645      	mov	r5, r8
    3fe0:	0760      	lsls	r0, r4, #29
    3fe2:	08ff      	lsrs	r7, r7, #3
    3fe4:	4307      	orrs	r7, r0
    3fe6:	08e4      	lsrs	r4, r4, #3
    3fe8:	4b7d      	ldr	r3, [pc, #500]	; (41e0 <__aeabi_dadd+0x380>)
    3fea:	429e      	cmp	r6, r3
    3fec:	d030      	beq.n	4050 <__aeabi_dadd+0x1f0>
    3fee:	0324      	lsls	r4, r4, #12
    3ff0:	0576      	lsls	r6, r6, #21
    3ff2:	0b24      	lsrs	r4, r4, #12
    3ff4:	0d76      	lsrs	r6, r6, #21
    3ff6:	e7d4      	b.n	3fa2 <__aeabi_dadd+0x142>
    3ff8:	1a33      	subs	r3, r6, r0
    3ffa:	469a      	mov	sl, r3
    3ffc:	2b00      	cmp	r3, #0
    3ffe:	dd78      	ble.n	40f2 <__aeabi_dadd+0x292>
    4000:	2800      	cmp	r0, #0
    4002:	d031      	beq.n	4068 <__aeabi_dadd+0x208>
    4004:	4876      	ldr	r0, [pc, #472]	; (41e0 <__aeabi_dadd+0x380>)
    4006:	4286      	cmp	r6, r0
    4008:	d0ae      	beq.n	3f68 <__aeabi_dadd+0x108>
    400a:	2080      	movs	r0, #128	; 0x80
    400c:	0400      	lsls	r0, r0, #16
    400e:	4301      	orrs	r1, r0
    4010:	4653      	mov	r3, sl
    4012:	2b38      	cmp	r3, #56	; 0x38
    4014:	dc00      	bgt.n	4018 <__aeabi_dadd+0x1b8>
    4016:	e0e9      	b.n	41ec <__aeabi_dadd+0x38c>
    4018:	430a      	orrs	r2, r1
    401a:	1e51      	subs	r1, r2, #1
    401c:	418a      	sbcs	r2, r1
    401e:	2100      	movs	r1, #0
    4020:	19d2      	adds	r2, r2, r7
    4022:	42ba      	cmp	r2, r7
    4024:	41bf      	sbcs	r7, r7
    4026:	1909      	adds	r1, r1, r4
    4028:	427c      	negs	r4, r7
    402a:	0017      	movs	r7, r2
    402c:	190c      	adds	r4, r1, r4
    402e:	0223      	lsls	r3, r4, #8
    4030:	d5d3      	bpl.n	3fda <__aeabi_dadd+0x17a>
    4032:	4b6b      	ldr	r3, [pc, #428]	; (41e0 <__aeabi_dadd+0x380>)
    4034:	3601      	adds	r6, #1
    4036:	429e      	cmp	r6, r3
    4038:	d100      	bne.n	403c <__aeabi_dadd+0x1dc>
    403a:	e13a      	b.n	42b2 <__aeabi_dadd+0x452>
    403c:	2001      	movs	r0, #1
    403e:	4b69      	ldr	r3, [pc, #420]	; (41e4 <__aeabi_dadd+0x384>)
    4040:	401c      	ands	r4, r3
    4042:	087b      	lsrs	r3, r7, #1
    4044:	4007      	ands	r7, r0
    4046:	431f      	orrs	r7, r3
    4048:	07e0      	lsls	r0, r4, #31
    404a:	4307      	orrs	r7, r0
    404c:	0864      	lsrs	r4, r4, #1
    404e:	e78b      	b.n	3f68 <__aeabi_dadd+0x108>
    4050:	0023      	movs	r3, r4
    4052:	433b      	orrs	r3, r7
    4054:	d100      	bne.n	4058 <__aeabi_dadd+0x1f8>
    4056:	e1cb      	b.n	43f0 <__aeabi_dadd+0x590>
    4058:	2280      	movs	r2, #128	; 0x80
    405a:	0312      	lsls	r2, r2, #12
    405c:	4314      	orrs	r4, r2
    405e:	0324      	lsls	r4, r4, #12
    4060:	0b24      	lsrs	r4, r4, #12
    4062:	e79e      	b.n	3fa2 <__aeabi_dadd+0x142>
    4064:	002e      	movs	r6, r5
    4066:	e77f      	b.n	3f68 <__aeabi_dadd+0x108>
    4068:	0008      	movs	r0, r1
    406a:	4310      	orrs	r0, r2
    406c:	d100      	bne.n	4070 <__aeabi_dadd+0x210>
    406e:	e0b4      	b.n	41da <__aeabi_dadd+0x37a>
    4070:	1e58      	subs	r0, r3, #1
    4072:	2800      	cmp	r0, #0
    4074:	d000      	beq.n	4078 <__aeabi_dadd+0x218>
    4076:	e0de      	b.n	4236 <__aeabi_dadd+0x3d6>
    4078:	18ba      	adds	r2, r7, r2
    407a:	42ba      	cmp	r2, r7
    407c:	419b      	sbcs	r3, r3
    407e:	1864      	adds	r4, r4, r1
    4080:	425b      	negs	r3, r3
    4082:	18e4      	adds	r4, r4, r3
    4084:	0017      	movs	r7, r2
    4086:	2601      	movs	r6, #1
    4088:	0223      	lsls	r3, r4, #8
    408a:	d5a6      	bpl.n	3fda <__aeabi_dadd+0x17a>
    408c:	2602      	movs	r6, #2
    408e:	e7d5      	b.n	403c <__aeabi_dadd+0x1dc>
    4090:	2d00      	cmp	r5, #0
    4092:	d16e      	bne.n	4172 <__aeabi_dadd+0x312>
    4094:	1c70      	adds	r0, r6, #1
    4096:	0540      	lsls	r0, r0, #21
    4098:	0d40      	lsrs	r0, r0, #21
    409a:	2801      	cmp	r0, #1
    409c:	dc00      	bgt.n	40a0 <__aeabi_dadd+0x240>
    409e:	e0f9      	b.n	4294 <__aeabi_dadd+0x434>
    40a0:	1ab8      	subs	r0, r7, r2
    40a2:	4684      	mov	ip, r0
    40a4:	4287      	cmp	r7, r0
    40a6:	4180      	sbcs	r0, r0
    40a8:	1ae5      	subs	r5, r4, r3
    40aa:	4240      	negs	r0, r0
    40ac:	1a2d      	subs	r5, r5, r0
    40ae:	0228      	lsls	r0, r5, #8
    40b0:	d400      	bmi.n	40b4 <__aeabi_dadd+0x254>
    40b2:	e089      	b.n	41c8 <__aeabi_dadd+0x368>
    40b4:	1bd7      	subs	r7, r2, r7
    40b6:	42ba      	cmp	r2, r7
    40b8:	4192      	sbcs	r2, r2
    40ba:	1b1c      	subs	r4, r3, r4
    40bc:	4252      	negs	r2, r2
    40be:	1aa5      	subs	r5, r4, r2
    40c0:	46d8      	mov	r8, fp
    40c2:	e729      	b.n	3f18 <__aeabi_dadd+0xb8>
    40c4:	4645      	mov	r5, r8
    40c6:	2400      	movs	r4, #0
    40c8:	2700      	movs	r7, #0
    40ca:	e76a      	b.n	3fa2 <__aeabi_dadd+0x142>
    40cc:	4c45      	ldr	r4, [pc, #276]	; (41e4 <__aeabi_dadd+0x384>)
    40ce:	1af6      	subs	r6, r6, r3
    40d0:	402c      	ands	r4, r5
    40d2:	e749      	b.n	3f68 <__aeabi_dadd+0x108>
    40d4:	003d      	movs	r5, r7
    40d6:	3828      	subs	r0, #40	; 0x28
    40d8:	4085      	lsls	r5, r0
    40da:	2700      	movs	r7, #0
    40dc:	e72e      	b.n	3f3c <__aeabi_dadd+0xdc>
    40de:	0038      	movs	r0, r7
    40e0:	f001 fb04 	bl	56ec <__clzsi2>
    40e4:	3020      	adds	r0, #32
    40e6:	e71d      	b.n	3f24 <__aeabi_dadd+0xc4>
    40e8:	430a      	orrs	r2, r1
    40ea:	1e51      	subs	r1, r2, #1
    40ec:	418a      	sbcs	r2, r1
    40ee:	2100      	movs	r1, #0
    40f0:	e707      	b.n	3f02 <__aeabi_dadd+0xa2>
    40f2:	2b00      	cmp	r3, #0
    40f4:	d000      	beq.n	40f8 <__aeabi_dadd+0x298>
    40f6:	e0f3      	b.n	42e0 <__aeabi_dadd+0x480>
    40f8:	1c70      	adds	r0, r6, #1
    40fa:	0543      	lsls	r3, r0, #21
    40fc:	0d5b      	lsrs	r3, r3, #21
    40fe:	2b01      	cmp	r3, #1
    4100:	dc00      	bgt.n	4104 <__aeabi_dadd+0x2a4>
    4102:	e0ad      	b.n	4260 <__aeabi_dadd+0x400>
    4104:	4b36      	ldr	r3, [pc, #216]	; (41e0 <__aeabi_dadd+0x380>)
    4106:	4298      	cmp	r0, r3
    4108:	d100      	bne.n	410c <__aeabi_dadd+0x2ac>
    410a:	e0d1      	b.n	42b0 <__aeabi_dadd+0x450>
    410c:	18ba      	adds	r2, r7, r2
    410e:	42ba      	cmp	r2, r7
    4110:	41bf      	sbcs	r7, r7
    4112:	1864      	adds	r4, r4, r1
    4114:	427f      	negs	r7, r7
    4116:	19e4      	adds	r4, r4, r7
    4118:	07e7      	lsls	r7, r4, #31
    411a:	0852      	lsrs	r2, r2, #1
    411c:	4317      	orrs	r7, r2
    411e:	0864      	lsrs	r4, r4, #1
    4120:	0006      	movs	r6, r0
    4122:	e721      	b.n	3f68 <__aeabi_dadd+0x108>
    4124:	482e      	ldr	r0, [pc, #184]	; (41e0 <__aeabi_dadd+0x380>)
    4126:	4285      	cmp	r5, r0
    4128:	d100      	bne.n	412c <__aeabi_dadd+0x2cc>
    412a:	e093      	b.n	4254 <__aeabi_dadd+0x3f4>
    412c:	001d      	movs	r5, r3
    412e:	e6d0      	b.n	3ed2 <__aeabi_dadd+0x72>
    4130:	0029      	movs	r1, r5
    4132:	3e1f      	subs	r6, #31
    4134:	40f1      	lsrs	r1, r6
    4136:	2b20      	cmp	r3, #32
    4138:	d100      	bne.n	413c <__aeabi_dadd+0x2dc>
    413a:	e08d      	b.n	4258 <__aeabi_dadd+0x3f8>
    413c:	2240      	movs	r2, #64	; 0x40
    413e:	1ad3      	subs	r3, r2, r3
    4140:	409d      	lsls	r5, r3
    4142:	432f      	orrs	r7, r5
    4144:	1e7d      	subs	r5, r7, #1
    4146:	41af      	sbcs	r7, r5
    4148:	2400      	movs	r4, #0
    414a:	430f      	orrs	r7, r1
    414c:	2600      	movs	r6, #0
    414e:	e744      	b.n	3fda <__aeabi_dadd+0x17a>
    4150:	002b      	movs	r3, r5
    4152:	0008      	movs	r0, r1
    4154:	3b20      	subs	r3, #32
    4156:	40d8      	lsrs	r0, r3
    4158:	0003      	movs	r3, r0
    415a:	2d20      	cmp	r5, #32
    415c:	d100      	bne.n	4160 <__aeabi_dadd+0x300>
    415e:	e07d      	b.n	425c <__aeabi_dadd+0x3fc>
    4160:	2040      	movs	r0, #64	; 0x40
    4162:	1b45      	subs	r5, r0, r5
    4164:	40a9      	lsls	r1, r5
    4166:	430a      	orrs	r2, r1
    4168:	1e51      	subs	r1, r2, #1
    416a:	418a      	sbcs	r2, r1
    416c:	2100      	movs	r1, #0
    416e:	431a      	orrs	r2, r3
    4170:	e6c7      	b.n	3f02 <__aeabi_dadd+0xa2>
    4172:	2e00      	cmp	r6, #0
    4174:	d050      	beq.n	4218 <__aeabi_dadd+0x3b8>
    4176:	4e1a      	ldr	r6, [pc, #104]	; (41e0 <__aeabi_dadd+0x380>)
    4178:	42b0      	cmp	r0, r6
    417a:	d057      	beq.n	422c <__aeabi_dadd+0x3cc>
    417c:	2680      	movs	r6, #128	; 0x80
    417e:	426b      	negs	r3, r5
    4180:	4699      	mov	r9, r3
    4182:	0436      	lsls	r6, r6, #16
    4184:	4334      	orrs	r4, r6
    4186:	464b      	mov	r3, r9
    4188:	2b38      	cmp	r3, #56	; 0x38
    418a:	dd00      	ble.n	418e <__aeabi_dadd+0x32e>
    418c:	e0d6      	b.n	433c <__aeabi_dadd+0x4dc>
    418e:	2b1f      	cmp	r3, #31
    4190:	dd00      	ble.n	4194 <__aeabi_dadd+0x334>
    4192:	e135      	b.n	4400 <__aeabi_dadd+0x5a0>
    4194:	2620      	movs	r6, #32
    4196:	1af5      	subs	r5, r6, r3
    4198:	0026      	movs	r6, r4
    419a:	40ae      	lsls	r6, r5
    419c:	46b2      	mov	sl, r6
    419e:	003e      	movs	r6, r7
    41a0:	40de      	lsrs	r6, r3
    41a2:	46ac      	mov	ip, r5
    41a4:	0035      	movs	r5, r6
    41a6:	4656      	mov	r6, sl
    41a8:	432e      	orrs	r6, r5
    41aa:	4665      	mov	r5, ip
    41ac:	40af      	lsls	r7, r5
    41ae:	1e7d      	subs	r5, r7, #1
    41b0:	41af      	sbcs	r7, r5
    41b2:	40dc      	lsrs	r4, r3
    41b4:	4337      	orrs	r7, r6
    41b6:	1bd7      	subs	r7, r2, r7
    41b8:	42ba      	cmp	r2, r7
    41ba:	4192      	sbcs	r2, r2
    41bc:	1b0c      	subs	r4, r1, r4
    41be:	4252      	negs	r2, r2
    41c0:	1aa4      	subs	r4, r4, r2
    41c2:	0006      	movs	r6, r0
    41c4:	46d8      	mov	r8, fp
    41c6:	e6a3      	b.n	3f10 <__aeabi_dadd+0xb0>
    41c8:	4664      	mov	r4, ip
    41ca:	4667      	mov	r7, ip
    41cc:	432c      	orrs	r4, r5
    41ce:	d000      	beq.n	41d2 <__aeabi_dadd+0x372>
    41d0:	e6a2      	b.n	3f18 <__aeabi_dadd+0xb8>
    41d2:	2500      	movs	r5, #0
    41d4:	2600      	movs	r6, #0
    41d6:	2700      	movs	r7, #0
    41d8:	e706      	b.n	3fe8 <__aeabi_dadd+0x188>
    41da:	001e      	movs	r6, r3
    41dc:	e6c4      	b.n	3f68 <__aeabi_dadd+0x108>
    41de:	46c0      	nop			; (mov r8, r8)
    41e0:	000007ff 	.word	0x000007ff
    41e4:	ff7fffff 	.word	0xff7fffff
    41e8:	800fffff 	.word	0x800fffff
    41ec:	2b1f      	cmp	r3, #31
    41ee:	dc63      	bgt.n	42b8 <__aeabi_dadd+0x458>
    41f0:	2020      	movs	r0, #32
    41f2:	1ac3      	subs	r3, r0, r3
    41f4:	0008      	movs	r0, r1
    41f6:	4098      	lsls	r0, r3
    41f8:	469c      	mov	ip, r3
    41fa:	4683      	mov	fp, r0
    41fc:	4653      	mov	r3, sl
    41fe:	0010      	movs	r0, r2
    4200:	40d8      	lsrs	r0, r3
    4202:	0003      	movs	r3, r0
    4204:	4658      	mov	r0, fp
    4206:	4318      	orrs	r0, r3
    4208:	4663      	mov	r3, ip
    420a:	409a      	lsls	r2, r3
    420c:	1e53      	subs	r3, r2, #1
    420e:	419a      	sbcs	r2, r3
    4210:	4653      	mov	r3, sl
    4212:	4302      	orrs	r2, r0
    4214:	40d9      	lsrs	r1, r3
    4216:	e703      	b.n	4020 <__aeabi_dadd+0x1c0>
    4218:	0026      	movs	r6, r4
    421a:	433e      	orrs	r6, r7
    421c:	d006      	beq.n	422c <__aeabi_dadd+0x3cc>
    421e:	43eb      	mvns	r3, r5
    4220:	4699      	mov	r9, r3
    4222:	2b00      	cmp	r3, #0
    4224:	d0c7      	beq.n	41b6 <__aeabi_dadd+0x356>
    4226:	4e94      	ldr	r6, [pc, #592]	; (4478 <__aeabi_dadd+0x618>)
    4228:	42b0      	cmp	r0, r6
    422a:	d1ac      	bne.n	4186 <__aeabi_dadd+0x326>
    422c:	000c      	movs	r4, r1
    422e:	0017      	movs	r7, r2
    4230:	0006      	movs	r6, r0
    4232:	46d8      	mov	r8, fp
    4234:	e698      	b.n	3f68 <__aeabi_dadd+0x108>
    4236:	4b90      	ldr	r3, [pc, #576]	; (4478 <__aeabi_dadd+0x618>)
    4238:	459a      	cmp	sl, r3
    423a:	d00b      	beq.n	4254 <__aeabi_dadd+0x3f4>
    423c:	4682      	mov	sl, r0
    423e:	e6e7      	b.n	4010 <__aeabi_dadd+0x1b0>
    4240:	2800      	cmp	r0, #0
    4242:	d000      	beq.n	4246 <__aeabi_dadd+0x3e6>
    4244:	e09e      	b.n	4384 <__aeabi_dadd+0x524>
    4246:	0018      	movs	r0, r3
    4248:	4310      	orrs	r0, r2
    424a:	d100      	bne.n	424e <__aeabi_dadd+0x3ee>
    424c:	e0e9      	b.n	4422 <__aeabi_dadd+0x5c2>
    424e:	001c      	movs	r4, r3
    4250:	0017      	movs	r7, r2
    4252:	46d8      	mov	r8, fp
    4254:	4e88      	ldr	r6, [pc, #544]	; (4478 <__aeabi_dadd+0x618>)
    4256:	e687      	b.n	3f68 <__aeabi_dadd+0x108>
    4258:	2500      	movs	r5, #0
    425a:	e772      	b.n	4142 <__aeabi_dadd+0x2e2>
    425c:	2100      	movs	r1, #0
    425e:	e782      	b.n	4166 <__aeabi_dadd+0x306>
    4260:	0023      	movs	r3, r4
    4262:	433b      	orrs	r3, r7
    4264:	2e00      	cmp	r6, #0
    4266:	d000      	beq.n	426a <__aeabi_dadd+0x40a>
    4268:	e0ab      	b.n	43c2 <__aeabi_dadd+0x562>
    426a:	2b00      	cmp	r3, #0
    426c:	d100      	bne.n	4270 <__aeabi_dadd+0x410>
    426e:	e0e7      	b.n	4440 <__aeabi_dadd+0x5e0>
    4270:	000b      	movs	r3, r1
    4272:	4313      	orrs	r3, r2
    4274:	d100      	bne.n	4278 <__aeabi_dadd+0x418>
    4276:	e677      	b.n	3f68 <__aeabi_dadd+0x108>
    4278:	18ba      	adds	r2, r7, r2
    427a:	42ba      	cmp	r2, r7
    427c:	41bf      	sbcs	r7, r7
    427e:	1864      	adds	r4, r4, r1
    4280:	427f      	negs	r7, r7
    4282:	19e4      	adds	r4, r4, r7
    4284:	0223      	lsls	r3, r4, #8
    4286:	d400      	bmi.n	428a <__aeabi_dadd+0x42a>
    4288:	e0f2      	b.n	4470 <__aeabi_dadd+0x610>
    428a:	4b7c      	ldr	r3, [pc, #496]	; (447c <__aeabi_dadd+0x61c>)
    428c:	0017      	movs	r7, r2
    428e:	401c      	ands	r4, r3
    4290:	0006      	movs	r6, r0
    4292:	e669      	b.n	3f68 <__aeabi_dadd+0x108>
    4294:	0020      	movs	r0, r4
    4296:	4338      	orrs	r0, r7
    4298:	2e00      	cmp	r6, #0
    429a:	d1d1      	bne.n	4240 <__aeabi_dadd+0x3e0>
    429c:	2800      	cmp	r0, #0
    429e:	d15b      	bne.n	4358 <__aeabi_dadd+0x4f8>
    42a0:	001c      	movs	r4, r3
    42a2:	4314      	orrs	r4, r2
    42a4:	d100      	bne.n	42a8 <__aeabi_dadd+0x448>
    42a6:	e0a8      	b.n	43fa <__aeabi_dadd+0x59a>
    42a8:	001c      	movs	r4, r3
    42aa:	0017      	movs	r7, r2
    42ac:	46d8      	mov	r8, fp
    42ae:	e65b      	b.n	3f68 <__aeabi_dadd+0x108>
    42b0:	0006      	movs	r6, r0
    42b2:	2400      	movs	r4, #0
    42b4:	2700      	movs	r7, #0
    42b6:	e697      	b.n	3fe8 <__aeabi_dadd+0x188>
    42b8:	4650      	mov	r0, sl
    42ba:	000b      	movs	r3, r1
    42bc:	3820      	subs	r0, #32
    42be:	40c3      	lsrs	r3, r0
    42c0:	4699      	mov	r9, r3
    42c2:	4653      	mov	r3, sl
    42c4:	2b20      	cmp	r3, #32
    42c6:	d100      	bne.n	42ca <__aeabi_dadd+0x46a>
    42c8:	e095      	b.n	43f6 <__aeabi_dadd+0x596>
    42ca:	2340      	movs	r3, #64	; 0x40
    42cc:	4650      	mov	r0, sl
    42ce:	1a1b      	subs	r3, r3, r0
    42d0:	4099      	lsls	r1, r3
    42d2:	430a      	orrs	r2, r1
    42d4:	1e51      	subs	r1, r2, #1
    42d6:	418a      	sbcs	r2, r1
    42d8:	464b      	mov	r3, r9
    42da:	2100      	movs	r1, #0
    42dc:	431a      	orrs	r2, r3
    42de:	e69f      	b.n	4020 <__aeabi_dadd+0x1c0>
    42e0:	2e00      	cmp	r6, #0
    42e2:	d130      	bne.n	4346 <__aeabi_dadd+0x4e6>
    42e4:	0026      	movs	r6, r4
    42e6:	433e      	orrs	r6, r7
    42e8:	d067      	beq.n	43ba <__aeabi_dadd+0x55a>
    42ea:	43db      	mvns	r3, r3
    42ec:	469a      	mov	sl, r3
    42ee:	2b00      	cmp	r3, #0
    42f0:	d01c      	beq.n	432c <__aeabi_dadd+0x4cc>
    42f2:	4e61      	ldr	r6, [pc, #388]	; (4478 <__aeabi_dadd+0x618>)
    42f4:	42b0      	cmp	r0, r6
    42f6:	d060      	beq.n	43ba <__aeabi_dadd+0x55a>
    42f8:	4653      	mov	r3, sl
    42fa:	2b38      	cmp	r3, #56	; 0x38
    42fc:	dd00      	ble.n	4300 <__aeabi_dadd+0x4a0>
    42fe:	e096      	b.n	442e <__aeabi_dadd+0x5ce>
    4300:	2b1f      	cmp	r3, #31
    4302:	dd00      	ble.n	4306 <__aeabi_dadd+0x4a6>
    4304:	e09f      	b.n	4446 <__aeabi_dadd+0x5e6>
    4306:	2620      	movs	r6, #32
    4308:	1af3      	subs	r3, r6, r3
    430a:	0026      	movs	r6, r4
    430c:	409e      	lsls	r6, r3
    430e:	469c      	mov	ip, r3
    4310:	46b3      	mov	fp, r6
    4312:	4653      	mov	r3, sl
    4314:	003e      	movs	r6, r7
    4316:	40de      	lsrs	r6, r3
    4318:	0033      	movs	r3, r6
    431a:	465e      	mov	r6, fp
    431c:	431e      	orrs	r6, r3
    431e:	4663      	mov	r3, ip
    4320:	409f      	lsls	r7, r3
    4322:	1e7b      	subs	r3, r7, #1
    4324:	419f      	sbcs	r7, r3
    4326:	4653      	mov	r3, sl
    4328:	40dc      	lsrs	r4, r3
    432a:	4337      	orrs	r7, r6
    432c:	18bf      	adds	r7, r7, r2
    432e:	4297      	cmp	r7, r2
    4330:	4192      	sbcs	r2, r2
    4332:	1864      	adds	r4, r4, r1
    4334:	4252      	negs	r2, r2
    4336:	18a4      	adds	r4, r4, r2
    4338:	0006      	movs	r6, r0
    433a:	e678      	b.n	402e <__aeabi_dadd+0x1ce>
    433c:	4327      	orrs	r7, r4
    433e:	1e7c      	subs	r4, r7, #1
    4340:	41a7      	sbcs	r7, r4
    4342:	2400      	movs	r4, #0
    4344:	e737      	b.n	41b6 <__aeabi_dadd+0x356>
    4346:	4e4c      	ldr	r6, [pc, #304]	; (4478 <__aeabi_dadd+0x618>)
    4348:	42b0      	cmp	r0, r6
    434a:	d036      	beq.n	43ba <__aeabi_dadd+0x55a>
    434c:	2680      	movs	r6, #128	; 0x80
    434e:	425b      	negs	r3, r3
    4350:	0436      	lsls	r6, r6, #16
    4352:	469a      	mov	sl, r3
    4354:	4334      	orrs	r4, r6
    4356:	e7cf      	b.n	42f8 <__aeabi_dadd+0x498>
    4358:	0018      	movs	r0, r3
    435a:	4310      	orrs	r0, r2
    435c:	d100      	bne.n	4360 <__aeabi_dadd+0x500>
    435e:	e603      	b.n	3f68 <__aeabi_dadd+0x108>
    4360:	1ab8      	subs	r0, r7, r2
    4362:	4684      	mov	ip, r0
    4364:	4567      	cmp	r7, ip
    4366:	41ad      	sbcs	r5, r5
    4368:	1ae0      	subs	r0, r4, r3
    436a:	426d      	negs	r5, r5
    436c:	1b40      	subs	r0, r0, r5
    436e:	0205      	lsls	r5, r0, #8
    4370:	d400      	bmi.n	4374 <__aeabi_dadd+0x514>
    4372:	e62c      	b.n	3fce <__aeabi_dadd+0x16e>
    4374:	1bd7      	subs	r7, r2, r7
    4376:	42ba      	cmp	r2, r7
    4378:	4192      	sbcs	r2, r2
    437a:	1b1c      	subs	r4, r3, r4
    437c:	4252      	negs	r2, r2
    437e:	1aa4      	subs	r4, r4, r2
    4380:	46d8      	mov	r8, fp
    4382:	e5f1      	b.n	3f68 <__aeabi_dadd+0x108>
    4384:	0018      	movs	r0, r3
    4386:	4310      	orrs	r0, r2
    4388:	d100      	bne.n	438c <__aeabi_dadd+0x52c>
    438a:	e763      	b.n	4254 <__aeabi_dadd+0x3f4>
    438c:	08f8      	lsrs	r0, r7, #3
    438e:	0767      	lsls	r7, r4, #29
    4390:	4307      	orrs	r7, r0
    4392:	2080      	movs	r0, #128	; 0x80
    4394:	08e4      	lsrs	r4, r4, #3
    4396:	0300      	lsls	r0, r0, #12
    4398:	4204      	tst	r4, r0
    439a:	d008      	beq.n	43ae <__aeabi_dadd+0x54e>
    439c:	08dd      	lsrs	r5, r3, #3
    439e:	4205      	tst	r5, r0
    43a0:	d105      	bne.n	43ae <__aeabi_dadd+0x54e>
    43a2:	08d2      	lsrs	r2, r2, #3
    43a4:	0759      	lsls	r1, r3, #29
    43a6:	4311      	orrs	r1, r2
    43a8:	000f      	movs	r7, r1
    43aa:	002c      	movs	r4, r5
    43ac:	46d8      	mov	r8, fp
    43ae:	0f7b      	lsrs	r3, r7, #29
    43b0:	00e4      	lsls	r4, r4, #3
    43b2:	431c      	orrs	r4, r3
    43b4:	00ff      	lsls	r7, r7, #3
    43b6:	4e30      	ldr	r6, [pc, #192]	; (4478 <__aeabi_dadd+0x618>)
    43b8:	e5d6      	b.n	3f68 <__aeabi_dadd+0x108>
    43ba:	000c      	movs	r4, r1
    43bc:	0017      	movs	r7, r2
    43be:	0006      	movs	r6, r0
    43c0:	e5d2      	b.n	3f68 <__aeabi_dadd+0x108>
    43c2:	2b00      	cmp	r3, #0
    43c4:	d038      	beq.n	4438 <__aeabi_dadd+0x5d8>
    43c6:	000b      	movs	r3, r1
    43c8:	4313      	orrs	r3, r2
    43ca:	d100      	bne.n	43ce <__aeabi_dadd+0x56e>
    43cc:	e742      	b.n	4254 <__aeabi_dadd+0x3f4>
    43ce:	08f8      	lsrs	r0, r7, #3
    43d0:	0767      	lsls	r7, r4, #29
    43d2:	4307      	orrs	r7, r0
    43d4:	2080      	movs	r0, #128	; 0x80
    43d6:	08e4      	lsrs	r4, r4, #3
    43d8:	0300      	lsls	r0, r0, #12
    43da:	4204      	tst	r4, r0
    43dc:	d0e7      	beq.n	43ae <__aeabi_dadd+0x54e>
    43de:	08cb      	lsrs	r3, r1, #3
    43e0:	4203      	tst	r3, r0
    43e2:	d1e4      	bne.n	43ae <__aeabi_dadd+0x54e>
    43e4:	08d2      	lsrs	r2, r2, #3
    43e6:	0749      	lsls	r1, r1, #29
    43e8:	4311      	orrs	r1, r2
    43ea:	000f      	movs	r7, r1
    43ec:	001c      	movs	r4, r3
    43ee:	e7de      	b.n	43ae <__aeabi_dadd+0x54e>
    43f0:	2700      	movs	r7, #0
    43f2:	2400      	movs	r4, #0
    43f4:	e5d5      	b.n	3fa2 <__aeabi_dadd+0x142>
    43f6:	2100      	movs	r1, #0
    43f8:	e76b      	b.n	42d2 <__aeabi_dadd+0x472>
    43fa:	2500      	movs	r5, #0
    43fc:	2700      	movs	r7, #0
    43fe:	e5f3      	b.n	3fe8 <__aeabi_dadd+0x188>
    4400:	464e      	mov	r6, r9
    4402:	0025      	movs	r5, r4
    4404:	3e20      	subs	r6, #32
    4406:	40f5      	lsrs	r5, r6
    4408:	464b      	mov	r3, r9
    440a:	002e      	movs	r6, r5
    440c:	2b20      	cmp	r3, #32
    440e:	d02d      	beq.n	446c <__aeabi_dadd+0x60c>
    4410:	2540      	movs	r5, #64	; 0x40
    4412:	1aed      	subs	r5, r5, r3
    4414:	40ac      	lsls	r4, r5
    4416:	4327      	orrs	r7, r4
    4418:	1e7c      	subs	r4, r7, #1
    441a:	41a7      	sbcs	r7, r4
    441c:	2400      	movs	r4, #0
    441e:	4337      	orrs	r7, r6
    4420:	e6c9      	b.n	41b6 <__aeabi_dadd+0x356>
    4422:	2480      	movs	r4, #128	; 0x80
    4424:	2500      	movs	r5, #0
    4426:	0324      	lsls	r4, r4, #12
    4428:	4e13      	ldr	r6, [pc, #76]	; (4478 <__aeabi_dadd+0x618>)
    442a:	2700      	movs	r7, #0
    442c:	e5dc      	b.n	3fe8 <__aeabi_dadd+0x188>
    442e:	4327      	orrs	r7, r4
    4430:	1e7c      	subs	r4, r7, #1
    4432:	41a7      	sbcs	r7, r4
    4434:	2400      	movs	r4, #0
    4436:	e779      	b.n	432c <__aeabi_dadd+0x4cc>
    4438:	000c      	movs	r4, r1
    443a:	0017      	movs	r7, r2
    443c:	4e0e      	ldr	r6, [pc, #56]	; (4478 <__aeabi_dadd+0x618>)
    443e:	e593      	b.n	3f68 <__aeabi_dadd+0x108>
    4440:	000c      	movs	r4, r1
    4442:	0017      	movs	r7, r2
    4444:	e590      	b.n	3f68 <__aeabi_dadd+0x108>
    4446:	4656      	mov	r6, sl
    4448:	0023      	movs	r3, r4
    444a:	3e20      	subs	r6, #32
    444c:	40f3      	lsrs	r3, r6
    444e:	4699      	mov	r9, r3
    4450:	4653      	mov	r3, sl
    4452:	2b20      	cmp	r3, #32
    4454:	d00e      	beq.n	4474 <__aeabi_dadd+0x614>
    4456:	2340      	movs	r3, #64	; 0x40
    4458:	4656      	mov	r6, sl
    445a:	1b9b      	subs	r3, r3, r6
    445c:	409c      	lsls	r4, r3
    445e:	4327      	orrs	r7, r4
    4460:	1e7c      	subs	r4, r7, #1
    4462:	41a7      	sbcs	r7, r4
    4464:	464b      	mov	r3, r9
    4466:	2400      	movs	r4, #0
    4468:	431f      	orrs	r7, r3
    446a:	e75f      	b.n	432c <__aeabi_dadd+0x4cc>
    446c:	2400      	movs	r4, #0
    446e:	e7d2      	b.n	4416 <__aeabi_dadd+0x5b6>
    4470:	0017      	movs	r7, r2
    4472:	e5b2      	b.n	3fda <__aeabi_dadd+0x17a>
    4474:	2400      	movs	r4, #0
    4476:	e7f2      	b.n	445e <__aeabi_dadd+0x5fe>
    4478:	000007ff 	.word	0x000007ff
    447c:	ff7fffff 	.word	0xff7fffff

00004480 <__aeabi_ddiv>:
    4480:	b5f0      	push	{r4, r5, r6, r7, lr}
    4482:	4657      	mov	r7, sl
    4484:	4645      	mov	r5, r8
    4486:	46de      	mov	lr, fp
    4488:	464e      	mov	r6, r9
    448a:	b5e0      	push	{r5, r6, r7, lr}
    448c:	004c      	lsls	r4, r1, #1
    448e:	030e      	lsls	r6, r1, #12
    4490:	b087      	sub	sp, #28
    4492:	4683      	mov	fp, r0
    4494:	4692      	mov	sl, r2
    4496:	001d      	movs	r5, r3
    4498:	4680      	mov	r8, r0
    449a:	0b36      	lsrs	r6, r6, #12
    449c:	0d64      	lsrs	r4, r4, #21
    449e:	0fcf      	lsrs	r7, r1, #31
    44a0:	2c00      	cmp	r4, #0
    44a2:	d04f      	beq.n	4544 <__aeabi_ddiv+0xc4>
    44a4:	4b6f      	ldr	r3, [pc, #444]	; (4664 <__aeabi_ddiv+0x1e4>)
    44a6:	429c      	cmp	r4, r3
    44a8:	d035      	beq.n	4516 <__aeabi_ddiv+0x96>
    44aa:	2380      	movs	r3, #128	; 0x80
    44ac:	0f42      	lsrs	r2, r0, #29
    44ae:	041b      	lsls	r3, r3, #16
    44b0:	00f6      	lsls	r6, r6, #3
    44b2:	4313      	orrs	r3, r2
    44b4:	4333      	orrs	r3, r6
    44b6:	4699      	mov	r9, r3
    44b8:	00c3      	lsls	r3, r0, #3
    44ba:	4698      	mov	r8, r3
    44bc:	4b6a      	ldr	r3, [pc, #424]	; (4668 <__aeabi_ddiv+0x1e8>)
    44be:	2600      	movs	r6, #0
    44c0:	469c      	mov	ip, r3
    44c2:	2300      	movs	r3, #0
    44c4:	4464      	add	r4, ip
    44c6:	9303      	str	r3, [sp, #12]
    44c8:	032b      	lsls	r3, r5, #12
    44ca:	0b1b      	lsrs	r3, r3, #12
    44cc:	469b      	mov	fp, r3
    44ce:	006b      	lsls	r3, r5, #1
    44d0:	0fed      	lsrs	r5, r5, #31
    44d2:	4650      	mov	r0, sl
    44d4:	0d5b      	lsrs	r3, r3, #21
    44d6:	9501      	str	r5, [sp, #4]
    44d8:	d05e      	beq.n	4598 <__aeabi_ddiv+0x118>
    44da:	4a62      	ldr	r2, [pc, #392]	; (4664 <__aeabi_ddiv+0x1e4>)
    44dc:	4293      	cmp	r3, r2
    44de:	d053      	beq.n	4588 <__aeabi_ddiv+0x108>
    44e0:	465a      	mov	r2, fp
    44e2:	00d1      	lsls	r1, r2, #3
    44e4:	2280      	movs	r2, #128	; 0x80
    44e6:	0f40      	lsrs	r0, r0, #29
    44e8:	0412      	lsls	r2, r2, #16
    44ea:	4302      	orrs	r2, r0
    44ec:	430a      	orrs	r2, r1
    44ee:	4693      	mov	fp, r2
    44f0:	4652      	mov	r2, sl
    44f2:	00d1      	lsls	r1, r2, #3
    44f4:	4a5c      	ldr	r2, [pc, #368]	; (4668 <__aeabi_ddiv+0x1e8>)
    44f6:	4694      	mov	ip, r2
    44f8:	2200      	movs	r2, #0
    44fa:	4463      	add	r3, ip
    44fc:	0038      	movs	r0, r7
    44fe:	4068      	eors	r0, r5
    4500:	4684      	mov	ip, r0
    4502:	9002      	str	r0, [sp, #8]
    4504:	1ae4      	subs	r4, r4, r3
    4506:	4316      	orrs	r6, r2
    4508:	2e0f      	cmp	r6, #15
    450a:	d900      	bls.n	450e <__aeabi_ddiv+0x8e>
    450c:	e0b4      	b.n	4678 <__aeabi_ddiv+0x1f8>
    450e:	4b57      	ldr	r3, [pc, #348]	; (466c <__aeabi_ddiv+0x1ec>)
    4510:	00b6      	lsls	r6, r6, #2
    4512:	599b      	ldr	r3, [r3, r6]
    4514:	469f      	mov	pc, r3
    4516:	0003      	movs	r3, r0
    4518:	4333      	orrs	r3, r6
    451a:	4699      	mov	r9, r3
    451c:	d16c      	bne.n	45f8 <__aeabi_ddiv+0x178>
    451e:	2300      	movs	r3, #0
    4520:	4698      	mov	r8, r3
    4522:	3302      	adds	r3, #2
    4524:	2608      	movs	r6, #8
    4526:	9303      	str	r3, [sp, #12]
    4528:	e7ce      	b.n	44c8 <__aeabi_ddiv+0x48>
    452a:	46cb      	mov	fp, r9
    452c:	4641      	mov	r1, r8
    452e:	9a03      	ldr	r2, [sp, #12]
    4530:	9701      	str	r7, [sp, #4]
    4532:	2a02      	cmp	r2, #2
    4534:	d165      	bne.n	4602 <__aeabi_ddiv+0x182>
    4536:	9b01      	ldr	r3, [sp, #4]
    4538:	4c4a      	ldr	r4, [pc, #296]	; (4664 <__aeabi_ddiv+0x1e4>)
    453a:	469c      	mov	ip, r3
    453c:	2300      	movs	r3, #0
    453e:	2200      	movs	r2, #0
    4540:	4698      	mov	r8, r3
    4542:	e06b      	b.n	461c <__aeabi_ddiv+0x19c>
    4544:	0003      	movs	r3, r0
    4546:	4333      	orrs	r3, r6
    4548:	4699      	mov	r9, r3
    454a:	d04e      	beq.n	45ea <__aeabi_ddiv+0x16a>
    454c:	2e00      	cmp	r6, #0
    454e:	d100      	bne.n	4552 <__aeabi_ddiv+0xd2>
    4550:	e1bc      	b.n	48cc <__aeabi_ddiv+0x44c>
    4552:	0030      	movs	r0, r6
    4554:	f001 f8ca 	bl	56ec <__clzsi2>
    4558:	0003      	movs	r3, r0
    455a:	3b0b      	subs	r3, #11
    455c:	2b1c      	cmp	r3, #28
    455e:	dd00      	ble.n	4562 <__aeabi_ddiv+0xe2>
    4560:	e1ac      	b.n	48bc <__aeabi_ddiv+0x43c>
    4562:	221d      	movs	r2, #29
    4564:	1ad3      	subs	r3, r2, r3
    4566:	465a      	mov	r2, fp
    4568:	0001      	movs	r1, r0
    456a:	40da      	lsrs	r2, r3
    456c:	3908      	subs	r1, #8
    456e:	408e      	lsls	r6, r1
    4570:	0013      	movs	r3, r2
    4572:	4333      	orrs	r3, r6
    4574:	4699      	mov	r9, r3
    4576:	465b      	mov	r3, fp
    4578:	408b      	lsls	r3, r1
    457a:	4698      	mov	r8, r3
    457c:	2300      	movs	r3, #0
    457e:	4c3c      	ldr	r4, [pc, #240]	; (4670 <__aeabi_ddiv+0x1f0>)
    4580:	2600      	movs	r6, #0
    4582:	1a24      	subs	r4, r4, r0
    4584:	9303      	str	r3, [sp, #12]
    4586:	e79f      	b.n	44c8 <__aeabi_ddiv+0x48>
    4588:	4651      	mov	r1, sl
    458a:	465a      	mov	r2, fp
    458c:	4311      	orrs	r1, r2
    458e:	d129      	bne.n	45e4 <__aeabi_ddiv+0x164>
    4590:	2200      	movs	r2, #0
    4592:	4693      	mov	fp, r2
    4594:	3202      	adds	r2, #2
    4596:	e7b1      	b.n	44fc <__aeabi_ddiv+0x7c>
    4598:	4659      	mov	r1, fp
    459a:	4301      	orrs	r1, r0
    459c:	d01e      	beq.n	45dc <__aeabi_ddiv+0x15c>
    459e:	465b      	mov	r3, fp
    45a0:	2b00      	cmp	r3, #0
    45a2:	d100      	bne.n	45a6 <__aeabi_ddiv+0x126>
    45a4:	e19e      	b.n	48e4 <__aeabi_ddiv+0x464>
    45a6:	4658      	mov	r0, fp
    45a8:	f001 f8a0 	bl	56ec <__clzsi2>
    45ac:	0003      	movs	r3, r0
    45ae:	3b0b      	subs	r3, #11
    45b0:	2b1c      	cmp	r3, #28
    45b2:	dd00      	ble.n	45b6 <__aeabi_ddiv+0x136>
    45b4:	e18f      	b.n	48d6 <__aeabi_ddiv+0x456>
    45b6:	0002      	movs	r2, r0
    45b8:	4659      	mov	r1, fp
    45ba:	3a08      	subs	r2, #8
    45bc:	4091      	lsls	r1, r2
    45be:	468b      	mov	fp, r1
    45c0:	211d      	movs	r1, #29
    45c2:	1acb      	subs	r3, r1, r3
    45c4:	4651      	mov	r1, sl
    45c6:	40d9      	lsrs	r1, r3
    45c8:	000b      	movs	r3, r1
    45ca:	4659      	mov	r1, fp
    45cc:	430b      	orrs	r3, r1
    45ce:	4651      	mov	r1, sl
    45d0:	469b      	mov	fp, r3
    45d2:	4091      	lsls	r1, r2
    45d4:	4b26      	ldr	r3, [pc, #152]	; (4670 <__aeabi_ddiv+0x1f0>)
    45d6:	2200      	movs	r2, #0
    45d8:	1a1b      	subs	r3, r3, r0
    45da:	e78f      	b.n	44fc <__aeabi_ddiv+0x7c>
    45dc:	2300      	movs	r3, #0
    45de:	2201      	movs	r2, #1
    45e0:	469b      	mov	fp, r3
    45e2:	e78b      	b.n	44fc <__aeabi_ddiv+0x7c>
    45e4:	4651      	mov	r1, sl
    45e6:	2203      	movs	r2, #3
    45e8:	e788      	b.n	44fc <__aeabi_ddiv+0x7c>
    45ea:	2300      	movs	r3, #0
    45ec:	4698      	mov	r8, r3
    45ee:	3301      	adds	r3, #1
    45f0:	2604      	movs	r6, #4
    45f2:	2400      	movs	r4, #0
    45f4:	9303      	str	r3, [sp, #12]
    45f6:	e767      	b.n	44c8 <__aeabi_ddiv+0x48>
    45f8:	2303      	movs	r3, #3
    45fa:	46b1      	mov	r9, r6
    45fc:	9303      	str	r3, [sp, #12]
    45fe:	260c      	movs	r6, #12
    4600:	e762      	b.n	44c8 <__aeabi_ddiv+0x48>
    4602:	2a03      	cmp	r2, #3
    4604:	d100      	bne.n	4608 <__aeabi_ddiv+0x188>
    4606:	e25c      	b.n	4ac2 <__aeabi_ddiv+0x642>
    4608:	9b01      	ldr	r3, [sp, #4]
    460a:	2a01      	cmp	r2, #1
    460c:	d000      	beq.n	4610 <__aeabi_ddiv+0x190>
    460e:	e1e4      	b.n	49da <__aeabi_ddiv+0x55a>
    4610:	4013      	ands	r3, r2
    4612:	469c      	mov	ip, r3
    4614:	2300      	movs	r3, #0
    4616:	2400      	movs	r4, #0
    4618:	2200      	movs	r2, #0
    461a:	4698      	mov	r8, r3
    461c:	2100      	movs	r1, #0
    461e:	0312      	lsls	r2, r2, #12
    4620:	0b13      	lsrs	r3, r2, #12
    4622:	0d0a      	lsrs	r2, r1, #20
    4624:	0512      	lsls	r2, r2, #20
    4626:	431a      	orrs	r2, r3
    4628:	0523      	lsls	r3, r4, #20
    462a:	4c12      	ldr	r4, [pc, #72]	; (4674 <__aeabi_ddiv+0x1f4>)
    462c:	4640      	mov	r0, r8
    462e:	4022      	ands	r2, r4
    4630:	4313      	orrs	r3, r2
    4632:	4662      	mov	r2, ip
    4634:	005b      	lsls	r3, r3, #1
    4636:	07d2      	lsls	r2, r2, #31
    4638:	085b      	lsrs	r3, r3, #1
    463a:	4313      	orrs	r3, r2
    463c:	0019      	movs	r1, r3
    463e:	b007      	add	sp, #28
    4640:	bc3c      	pop	{r2, r3, r4, r5}
    4642:	4690      	mov	r8, r2
    4644:	4699      	mov	r9, r3
    4646:	46a2      	mov	sl, r4
    4648:	46ab      	mov	fp, r5
    464a:	bdf0      	pop	{r4, r5, r6, r7, pc}
    464c:	2300      	movs	r3, #0
    464e:	2280      	movs	r2, #128	; 0x80
    4650:	469c      	mov	ip, r3
    4652:	0312      	lsls	r2, r2, #12
    4654:	4698      	mov	r8, r3
    4656:	4c03      	ldr	r4, [pc, #12]	; (4664 <__aeabi_ddiv+0x1e4>)
    4658:	e7e0      	b.n	461c <__aeabi_ddiv+0x19c>
    465a:	2300      	movs	r3, #0
    465c:	4c01      	ldr	r4, [pc, #4]	; (4664 <__aeabi_ddiv+0x1e4>)
    465e:	2200      	movs	r2, #0
    4660:	4698      	mov	r8, r3
    4662:	e7db      	b.n	461c <__aeabi_ddiv+0x19c>
    4664:	000007ff 	.word	0x000007ff
    4668:	fffffc01 	.word	0xfffffc01
    466c:	00005ac0 	.word	0x00005ac0
    4670:	fffffc0d 	.word	0xfffffc0d
    4674:	800fffff 	.word	0x800fffff
    4678:	45d9      	cmp	r9, fp
    467a:	d900      	bls.n	467e <__aeabi_ddiv+0x1fe>
    467c:	e139      	b.n	48f2 <__aeabi_ddiv+0x472>
    467e:	d100      	bne.n	4682 <__aeabi_ddiv+0x202>
    4680:	e134      	b.n	48ec <__aeabi_ddiv+0x46c>
    4682:	2300      	movs	r3, #0
    4684:	4646      	mov	r6, r8
    4686:	464d      	mov	r5, r9
    4688:	469a      	mov	sl, r3
    468a:	3c01      	subs	r4, #1
    468c:	465b      	mov	r3, fp
    468e:	0e0a      	lsrs	r2, r1, #24
    4690:	021b      	lsls	r3, r3, #8
    4692:	431a      	orrs	r2, r3
    4694:	020b      	lsls	r3, r1, #8
    4696:	0c17      	lsrs	r7, r2, #16
    4698:	9303      	str	r3, [sp, #12]
    469a:	0413      	lsls	r3, r2, #16
    469c:	0c1b      	lsrs	r3, r3, #16
    469e:	0039      	movs	r1, r7
    46a0:	0028      	movs	r0, r5
    46a2:	4690      	mov	r8, r2
    46a4:	9301      	str	r3, [sp, #4]
    46a6:	f7ff fb25 	bl	3cf4 <__udivsi3>
    46aa:	0002      	movs	r2, r0
    46ac:	9b01      	ldr	r3, [sp, #4]
    46ae:	4683      	mov	fp, r0
    46b0:	435a      	muls	r2, r3
    46b2:	0028      	movs	r0, r5
    46b4:	0039      	movs	r1, r7
    46b6:	4691      	mov	r9, r2
    46b8:	f7ff fba2 	bl	3e00 <__aeabi_uidivmod>
    46bc:	0c35      	lsrs	r5, r6, #16
    46be:	0409      	lsls	r1, r1, #16
    46c0:	430d      	orrs	r5, r1
    46c2:	45a9      	cmp	r9, r5
    46c4:	d90d      	bls.n	46e2 <__aeabi_ddiv+0x262>
    46c6:	465b      	mov	r3, fp
    46c8:	4445      	add	r5, r8
    46ca:	3b01      	subs	r3, #1
    46cc:	45a8      	cmp	r8, r5
    46ce:	d900      	bls.n	46d2 <__aeabi_ddiv+0x252>
    46d0:	e13a      	b.n	4948 <__aeabi_ddiv+0x4c8>
    46d2:	45a9      	cmp	r9, r5
    46d4:	d800      	bhi.n	46d8 <__aeabi_ddiv+0x258>
    46d6:	e137      	b.n	4948 <__aeabi_ddiv+0x4c8>
    46d8:	2302      	movs	r3, #2
    46da:	425b      	negs	r3, r3
    46dc:	469c      	mov	ip, r3
    46de:	4445      	add	r5, r8
    46e0:	44e3      	add	fp, ip
    46e2:	464b      	mov	r3, r9
    46e4:	1aeb      	subs	r3, r5, r3
    46e6:	0039      	movs	r1, r7
    46e8:	0018      	movs	r0, r3
    46ea:	9304      	str	r3, [sp, #16]
    46ec:	f7ff fb02 	bl	3cf4 <__udivsi3>
    46f0:	9b01      	ldr	r3, [sp, #4]
    46f2:	0005      	movs	r5, r0
    46f4:	4343      	muls	r3, r0
    46f6:	0039      	movs	r1, r7
    46f8:	9804      	ldr	r0, [sp, #16]
    46fa:	4699      	mov	r9, r3
    46fc:	f7ff fb80 	bl	3e00 <__aeabi_uidivmod>
    4700:	0433      	lsls	r3, r6, #16
    4702:	0409      	lsls	r1, r1, #16
    4704:	0c1b      	lsrs	r3, r3, #16
    4706:	430b      	orrs	r3, r1
    4708:	4599      	cmp	r9, r3
    470a:	d909      	bls.n	4720 <__aeabi_ddiv+0x2a0>
    470c:	4443      	add	r3, r8
    470e:	1e6a      	subs	r2, r5, #1
    4710:	4598      	cmp	r8, r3
    4712:	d900      	bls.n	4716 <__aeabi_ddiv+0x296>
    4714:	e11a      	b.n	494c <__aeabi_ddiv+0x4cc>
    4716:	4599      	cmp	r9, r3
    4718:	d800      	bhi.n	471c <__aeabi_ddiv+0x29c>
    471a:	e117      	b.n	494c <__aeabi_ddiv+0x4cc>
    471c:	3d02      	subs	r5, #2
    471e:	4443      	add	r3, r8
    4720:	464a      	mov	r2, r9
    4722:	1a9b      	subs	r3, r3, r2
    4724:	465a      	mov	r2, fp
    4726:	0412      	lsls	r2, r2, #16
    4728:	432a      	orrs	r2, r5
    472a:	9903      	ldr	r1, [sp, #12]
    472c:	4693      	mov	fp, r2
    472e:	0c10      	lsrs	r0, r2, #16
    4730:	0c0a      	lsrs	r2, r1, #16
    4732:	4691      	mov	r9, r2
    4734:	0409      	lsls	r1, r1, #16
    4736:	465a      	mov	r2, fp
    4738:	0c09      	lsrs	r1, r1, #16
    473a:	464e      	mov	r6, r9
    473c:	000d      	movs	r5, r1
    473e:	0412      	lsls	r2, r2, #16
    4740:	0c12      	lsrs	r2, r2, #16
    4742:	4345      	muls	r5, r0
    4744:	9105      	str	r1, [sp, #20]
    4746:	4351      	muls	r1, r2
    4748:	4372      	muls	r2, r6
    474a:	4370      	muls	r0, r6
    474c:	1952      	adds	r2, r2, r5
    474e:	0c0e      	lsrs	r6, r1, #16
    4750:	18b2      	adds	r2, r6, r2
    4752:	4295      	cmp	r5, r2
    4754:	d903      	bls.n	475e <__aeabi_ddiv+0x2de>
    4756:	2580      	movs	r5, #128	; 0x80
    4758:	026d      	lsls	r5, r5, #9
    475a:	46ac      	mov	ip, r5
    475c:	4460      	add	r0, ip
    475e:	0c15      	lsrs	r5, r2, #16
    4760:	0409      	lsls	r1, r1, #16
    4762:	0412      	lsls	r2, r2, #16
    4764:	0c09      	lsrs	r1, r1, #16
    4766:	1828      	adds	r0, r5, r0
    4768:	1852      	adds	r2, r2, r1
    476a:	4283      	cmp	r3, r0
    476c:	d200      	bcs.n	4770 <__aeabi_ddiv+0x2f0>
    476e:	e0ce      	b.n	490e <__aeabi_ddiv+0x48e>
    4770:	d100      	bne.n	4774 <__aeabi_ddiv+0x2f4>
    4772:	e0c8      	b.n	4906 <__aeabi_ddiv+0x486>
    4774:	1a1d      	subs	r5, r3, r0
    4776:	4653      	mov	r3, sl
    4778:	1a9e      	subs	r6, r3, r2
    477a:	45b2      	cmp	sl, r6
    477c:	4192      	sbcs	r2, r2
    477e:	4252      	negs	r2, r2
    4780:	1aab      	subs	r3, r5, r2
    4782:	469a      	mov	sl, r3
    4784:	4598      	cmp	r8, r3
    4786:	d100      	bne.n	478a <__aeabi_ddiv+0x30a>
    4788:	e117      	b.n	49ba <__aeabi_ddiv+0x53a>
    478a:	0039      	movs	r1, r7
    478c:	0018      	movs	r0, r3
    478e:	f7ff fab1 	bl	3cf4 <__udivsi3>
    4792:	9b01      	ldr	r3, [sp, #4]
    4794:	0005      	movs	r5, r0
    4796:	4343      	muls	r3, r0
    4798:	0039      	movs	r1, r7
    479a:	4650      	mov	r0, sl
    479c:	9304      	str	r3, [sp, #16]
    479e:	f7ff fb2f 	bl	3e00 <__aeabi_uidivmod>
    47a2:	9804      	ldr	r0, [sp, #16]
    47a4:	040b      	lsls	r3, r1, #16
    47a6:	0c31      	lsrs	r1, r6, #16
    47a8:	4319      	orrs	r1, r3
    47aa:	4288      	cmp	r0, r1
    47ac:	d909      	bls.n	47c2 <__aeabi_ddiv+0x342>
    47ae:	4441      	add	r1, r8
    47b0:	1e6b      	subs	r3, r5, #1
    47b2:	4588      	cmp	r8, r1
    47b4:	d900      	bls.n	47b8 <__aeabi_ddiv+0x338>
    47b6:	e107      	b.n	49c8 <__aeabi_ddiv+0x548>
    47b8:	4288      	cmp	r0, r1
    47ba:	d800      	bhi.n	47be <__aeabi_ddiv+0x33e>
    47bc:	e104      	b.n	49c8 <__aeabi_ddiv+0x548>
    47be:	3d02      	subs	r5, #2
    47c0:	4441      	add	r1, r8
    47c2:	9b04      	ldr	r3, [sp, #16]
    47c4:	1acb      	subs	r3, r1, r3
    47c6:	0018      	movs	r0, r3
    47c8:	0039      	movs	r1, r7
    47ca:	9304      	str	r3, [sp, #16]
    47cc:	f7ff fa92 	bl	3cf4 <__udivsi3>
    47d0:	9b01      	ldr	r3, [sp, #4]
    47d2:	4682      	mov	sl, r0
    47d4:	4343      	muls	r3, r0
    47d6:	0039      	movs	r1, r7
    47d8:	9804      	ldr	r0, [sp, #16]
    47da:	9301      	str	r3, [sp, #4]
    47dc:	f7ff fb10 	bl	3e00 <__aeabi_uidivmod>
    47e0:	9801      	ldr	r0, [sp, #4]
    47e2:	040b      	lsls	r3, r1, #16
    47e4:	0431      	lsls	r1, r6, #16
    47e6:	0c09      	lsrs	r1, r1, #16
    47e8:	4319      	orrs	r1, r3
    47ea:	4288      	cmp	r0, r1
    47ec:	d90d      	bls.n	480a <__aeabi_ddiv+0x38a>
    47ee:	4653      	mov	r3, sl
    47f0:	4441      	add	r1, r8
    47f2:	3b01      	subs	r3, #1
    47f4:	4588      	cmp	r8, r1
    47f6:	d900      	bls.n	47fa <__aeabi_ddiv+0x37a>
    47f8:	e0e8      	b.n	49cc <__aeabi_ddiv+0x54c>
    47fa:	4288      	cmp	r0, r1
    47fc:	d800      	bhi.n	4800 <__aeabi_ddiv+0x380>
    47fe:	e0e5      	b.n	49cc <__aeabi_ddiv+0x54c>
    4800:	2302      	movs	r3, #2
    4802:	425b      	negs	r3, r3
    4804:	469c      	mov	ip, r3
    4806:	4441      	add	r1, r8
    4808:	44e2      	add	sl, ip
    480a:	9b01      	ldr	r3, [sp, #4]
    480c:	042d      	lsls	r5, r5, #16
    480e:	1ace      	subs	r6, r1, r3
    4810:	4651      	mov	r1, sl
    4812:	4329      	orrs	r1, r5
    4814:	9d05      	ldr	r5, [sp, #20]
    4816:	464f      	mov	r7, r9
    4818:	002a      	movs	r2, r5
    481a:	040b      	lsls	r3, r1, #16
    481c:	0c08      	lsrs	r0, r1, #16
    481e:	0c1b      	lsrs	r3, r3, #16
    4820:	435a      	muls	r2, r3
    4822:	4345      	muls	r5, r0
    4824:	437b      	muls	r3, r7
    4826:	4378      	muls	r0, r7
    4828:	195b      	adds	r3, r3, r5
    482a:	0c17      	lsrs	r7, r2, #16
    482c:	18fb      	adds	r3, r7, r3
    482e:	429d      	cmp	r5, r3
    4830:	d903      	bls.n	483a <__aeabi_ddiv+0x3ba>
    4832:	2580      	movs	r5, #128	; 0x80
    4834:	026d      	lsls	r5, r5, #9
    4836:	46ac      	mov	ip, r5
    4838:	4460      	add	r0, ip
    483a:	0c1d      	lsrs	r5, r3, #16
    483c:	0412      	lsls	r2, r2, #16
    483e:	041b      	lsls	r3, r3, #16
    4840:	0c12      	lsrs	r2, r2, #16
    4842:	1828      	adds	r0, r5, r0
    4844:	189b      	adds	r3, r3, r2
    4846:	4286      	cmp	r6, r0
    4848:	d200      	bcs.n	484c <__aeabi_ddiv+0x3cc>
    484a:	e093      	b.n	4974 <__aeabi_ddiv+0x4f4>
    484c:	d100      	bne.n	4850 <__aeabi_ddiv+0x3d0>
    484e:	e08e      	b.n	496e <__aeabi_ddiv+0x4ee>
    4850:	2301      	movs	r3, #1
    4852:	4319      	orrs	r1, r3
    4854:	4ba0      	ldr	r3, [pc, #640]	; (4ad8 <__aeabi_ddiv+0x658>)
    4856:	18e3      	adds	r3, r4, r3
    4858:	2b00      	cmp	r3, #0
    485a:	dc00      	bgt.n	485e <__aeabi_ddiv+0x3de>
    485c:	e099      	b.n	4992 <__aeabi_ddiv+0x512>
    485e:	074a      	lsls	r2, r1, #29
    4860:	d000      	beq.n	4864 <__aeabi_ddiv+0x3e4>
    4862:	e09e      	b.n	49a2 <__aeabi_ddiv+0x522>
    4864:	465a      	mov	r2, fp
    4866:	01d2      	lsls	r2, r2, #7
    4868:	d506      	bpl.n	4878 <__aeabi_ddiv+0x3f8>
    486a:	465a      	mov	r2, fp
    486c:	4b9b      	ldr	r3, [pc, #620]	; (4adc <__aeabi_ddiv+0x65c>)
    486e:	401a      	ands	r2, r3
    4870:	2380      	movs	r3, #128	; 0x80
    4872:	4693      	mov	fp, r2
    4874:	00db      	lsls	r3, r3, #3
    4876:	18e3      	adds	r3, r4, r3
    4878:	4a99      	ldr	r2, [pc, #612]	; (4ae0 <__aeabi_ddiv+0x660>)
    487a:	4293      	cmp	r3, r2
    487c:	dd68      	ble.n	4950 <__aeabi_ddiv+0x4d0>
    487e:	2301      	movs	r3, #1
    4880:	9a02      	ldr	r2, [sp, #8]
    4882:	4c98      	ldr	r4, [pc, #608]	; (4ae4 <__aeabi_ddiv+0x664>)
    4884:	401a      	ands	r2, r3
    4886:	2300      	movs	r3, #0
    4888:	4694      	mov	ip, r2
    488a:	4698      	mov	r8, r3
    488c:	2200      	movs	r2, #0
    488e:	e6c5      	b.n	461c <__aeabi_ddiv+0x19c>
    4890:	2280      	movs	r2, #128	; 0x80
    4892:	464b      	mov	r3, r9
    4894:	0312      	lsls	r2, r2, #12
    4896:	4213      	tst	r3, r2
    4898:	d00a      	beq.n	48b0 <__aeabi_ddiv+0x430>
    489a:	465b      	mov	r3, fp
    489c:	4213      	tst	r3, r2
    489e:	d106      	bne.n	48ae <__aeabi_ddiv+0x42e>
    48a0:	431a      	orrs	r2, r3
    48a2:	0312      	lsls	r2, r2, #12
    48a4:	0b12      	lsrs	r2, r2, #12
    48a6:	46ac      	mov	ip, r5
    48a8:	4688      	mov	r8, r1
    48aa:	4c8e      	ldr	r4, [pc, #568]	; (4ae4 <__aeabi_ddiv+0x664>)
    48ac:	e6b6      	b.n	461c <__aeabi_ddiv+0x19c>
    48ae:	464b      	mov	r3, r9
    48b0:	431a      	orrs	r2, r3
    48b2:	0312      	lsls	r2, r2, #12
    48b4:	0b12      	lsrs	r2, r2, #12
    48b6:	46bc      	mov	ip, r7
    48b8:	4c8a      	ldr	r4, [pc, #552]	; (4ae4 <__aeabi_ddiv+0x664>)
    48ba:	e6af      	b.n	461c <__aeabi_ddiv+0x19c>
    48bc:	0003      	movs	r3, r0
    48be:	465a      	mov	r2, fp
    48c0:	3b28      	subs	r3, #40	; 0x28
    48c2:	409a      	lsls	r2, r3
    48c4:	2300      	movs	r3, #0
    48c6:	4691      	mov	r9, r2
    48c8:	4698      	mov	r8, r3
    48ca:	e657      	b.n	457c <__aeabi_ddiv+0xfc>
    48cc:	4658      	mov	r0, fp
    48ce:	f000 ff0d 	bl	56ec <__clzsi2>
    48d2:	3020      	adds	r0, #32
    48d4:	e640      	b.n	4558 <__aeabi_ddiv+0xd8>
    48d6:	0003      	movs	r3, r0
    48d8:	4652      	mov	r2, sl
    48da:	3b28      	subs	r3, #40	; 0x28
    48dc:	409a      	lsls	r2, r3
    48de:	2100      	movs	r1, #0
    48e0:	4693      	mov	fp, r2
    48e2:	e677      	b.n	45d4 <__aeabi_ddiv+0x154>
    48e4:	f000 ff02 	bl	56ec <__clzsi2>
    48e8:	3020      	adds	r0, #32
    48ea:	e65f      	b.n	45ac <__aeabi_ddiv+0x12c>
    48ec:	4588      	cmp	r8, r1
    48ee:	d200      	bcs.n	48f2 <__aeabi_ddiv+0x472>
    48f0:	e6c7      	b.n	4682 <__aeabi_ddiv+0x202>
    48f2:	464b      	mov	r3, r9
    48f4:	07de      	lsls	r6, r3, #31
    48f6:	085d      	lsrs	r5, r3, #1
    48f8:	4643      	mov	r3, r8
    48fa:	085b      	lsrs	r3, r3, #1
    48fc:	431e      	orrs	r6, r3
    48fe:	4643      	mov	r3, r8
    4900:	07db      	lsls	r3, r3, #31
    4902:	469a      	mov	sl, r3
    4904:	e6c2      	b.n	468c <__aeabi_ddiv+0x20c>
    4906:	2500      	movs	r5, #0
    4908:	4592      	cmp	sl, r2
    490a:	d300      	bcc.n	490e <__aeabi_ddiv+0x48e>
    490c:	e733      	b.n	4776 <__aeabi_ddiv+0x2f6>
    490e:	9e03      	ldr	r6, [sp, #12]
    4910:	4659      	mov	r1, fp
    4912:	46b4      	mov	ip, r6
    4914:	44e2      	add	sl, ip
    4916:	45b2      	cmp	sl, r6
    4918:	41ad      	sbcs	r5, r5
    491a:	426d      	negs	r5, r5
    491c:	4445      	add	r5, r8
    491e:	18eb      	adds	r3, r5, r3
    4920:	3901      	subs	r1, #1
    4922:	4598      	cmp	r8, r3
    4924:	d207      	bcs.n	4936 <__aeabi_ddiv+0x4b6>
    4926:	4298      	cmp	r0, r3
    4928:	d900      	bls.n	492c <__aeabi_ddiv+0x4ac>
    492a:	e07f      	b.n	4a2c <__aeabi_ddiv+0x5ac>
    492c:	d100      	bne.n	4930 <__aeabi_ddiv+0x4b0>
    492e:	e0bc      	b.n	4aaa <__aeabi_ddiv+0x62a>
    4930:	1a1d      	subs	r5, r3, r0
    4932:	468b      	mov	fp, r1
    4934:	e71f      	b.n	4776 <__aeabi_ddiv+0x2f6>
    4936:	4598      	cmp	r8, r3
    4938:	d1fa      	bne.n	4930 <__aeabi_ddiv+0x4b0>
    493a:	9d03      	ldr	r5, [sp, #12]
    493c:	4555      	cmp	r5, sl
    493e:	d9f2      	bls.n	4926 <__aeabi_ddiv+0x4a6>
    4940:	4643      	mov	r3, r8
    4942:	468b      	mov	fp, r1
    4944:	1a1d      	subs	r5, r3, r0
    4946:	e716      	b.n	4776 <__aeabi_ddiv+0x2f6>
    4948:	469b      	mov	fp, r3
    494a:	e6ca      	b.n	46e2 <__aeabi_ddiv+0x262>
    494c:	0015      	movs	r5, r2
    494e:	e6e7      	b.n	4720 <__aeabi_ddiv+0x2a0>
    4950:	465a      	mov	r2, fp
    4952:	08c9      	lsrs	r1, r1, #3
    4954:	0752      	lsls	r2, r2, #29
    4956:	430a      	orrs	r2, r1
    4958:	055b      	lsls	r3, r3, #21
    495a:	4690      	mov	r8, r2
    495c:	0d5c      	lsrs	r4, r3, #21
    495e:	465a      	mov	r2, fp
    4960:	2301      	movs	r3, #1
    4962:	9902      	ldr	r1, [sp, #8]
    4964:	0252      	lsls	r2, r2, #9
    4966:	4019      	ands	r1, r3
    4968:	0b12      	lsrs	r2, r2, #12
    496a:	468c      	mov	ip, r1
    496c:	e656      	b.n	461c <__aeabi_ddiv+0x19c>
    496e:	2b00      	cmp	r3, #0
    4970:	d100      	bne.n	4974 <__aeabi_ddiv+0x4f4>
    4972:	e76f      	b.n	4854 <__aeabi_ddiv+0x3d4>
    4974:	4446      	add	r6, r8
    4976:	1e4a      	subs	r2, r1, #1
    4978:	45b0      	cmp	r8, r6
    497a:	d929      	bls.n	49d0 <__aeabi_ddiv+0x550>
    497c:	0011      	movs	r1, r2
    497e:	4286      	cmp	r6, r0
    4980:	d000      	beq.n	4984 <__aeabi_ddiv+0x504>
    4982:	e765      	b.n	4850 <__aeabi_ddiv+0x3d0>
    4984:	9a03      	ldr	r2, [sp, #12]
    4986:	4293      	cmp	r3, r2
    4988:	d000      	beq.n	498c <__aeabi_ddiv+0x50c>
    498a:	e761      	b.n	4850 <__aeabi_ddiv+0x3d0>
    498c:	e762      	b.n	4854 <__aeabi_ddiv+0x3d4>
    498e:	2101      	movs	r1, #1
    4990:	4249      	negs	r1, r1
    4992:	2001      	movs	r0, #1
    4994:	1ac2      	subs	r2, r0, r3
    4996:	2a38      	cmp	r2, #56	; 0x38
    4998:	dd21      	ble.n	49de <__aeabi_ddiv+0x55e>
    499a:	9b02      	ldr	r3, [sp, #8]
    499c:	4003      	ands	r3, r0
    499e:	469c      	mov	ip, r3
    49a0:	e638      	b.n	4614 <__aeabi_ddiv+0x194>
    49a2:	220f      	movs	r2, #15
    49a4:	400a      	ands	r2, r1
    49a6:	2a04      	cmp	r2, #4
    49a8:	d100      	bne.n	49ac <__aeabi_ddiv+0x52c>
    49aa:	e75b      	b.n	4864 <__aeabi_ddiv+0x3e4>
    49ac:	000a      	movs	r2, r1
    49ae:	1d11      	adds	r1, r2, #4
    49b0:	4291      	cmp	r1, r2
    49b2:	4192      	sbcs	r2, r2
    49b4:	4252      	negs	r2, r2
    49b6:	4493      	add	fp, r2
    49b8:	e754      	b.n	4864 <__aeabi_ddiv+0x3e4>
    49ba:	4b47      	ldr	r3, [pc, #284]	; (4ad8 <__aeabi_ddiv+0x658>)
    49bc:	18e3      	adds	r3, r4, r3
    49be:	2b00      	cmp	r3, #0
    49c0:	dde5      	ble.n	498e <__aeabi_ddiv+0x50e>
    49c2:	2201      	movs	r2, #1
    49c4:	4252      	negs	r2, r2
    49c6:	e7f2      	b.n	49ae <__aeabi_ddiv+0x52e>
    49c8:	001d      	movs	r5, r3
    49ca:	e6fa      	b.n	47c2 <__aeabi_ddiv+0x342>
    49cc:	469a      	mov	sl, r3
    49ce:	e71c      	b.n	480a <__aeabi_ddiv+0x38a>
    49d0:	42b0      	cmp	r0, r6
    49d2:	d839      	bhi.n	4a48 <__aeabi_ddiv+0x5c8>
    49d4:	d06e      	beq.n	4ab4 <__aeabi_ddiv+0x634>
    49d6:	0011      	movs	r1, r2
    49d8:	e73a      	b.n	4850 <__aeabi_ddiv+0x3d0>
    49da:	9302      	str	r3, [sp, #8]
    49dc:	e73a      	b.n	4854 <__aeabi_ddiv+0x3d4>
    49de:	2a1f      	cmp	r2, #31
    49e0:	dc3c      	bgt.n	4a5c <__aeabi_ddiv+0x5dc>
    49e2:	2320      	movs	r3, #32
    49e4:	1a9b      	subs	r3, r3, r2
    49e6:	000c      	movs	r4, r1
    49e8:	4658      	mov	r0, fp
    49ea:	4099      	lsls	r1, r3
    49ec:	4098      	lsls	r0, r3
    49ee:	1e4b      	subs	r3, r1, #1
    49f0:	4199      	sbcs	r1, r3
    49f2:	465b      	mov	r3, fp
    49f4:	40d4      	lsrs	r4, r2
    49f6:	40d3      	lsrs	r3, r2
    49f8:	4320      	orrs	r0, r4
    49fa:	4308      	orrs	r0, r1
    49fc:	001a      	movs	r2, r3
    49fe:	0743      	lsls	r3, r0, #29
    4a00:	d009      	beq.n	4a16 <__aeabi_ddiv+0x596>
    4a02:	230f      	movs	r3, #15
    4a04:	4003      	ands	r3, r0
    4a06:	2b04      	cmp	r3, #4
    4a08:	d005      	beq.n	4a16 <__aeabi_ddiv+0x596>
    4a0a:	0001      	movs	r1, r0
    4a0c:	1d08      	adds	r0, r1, #4
    4a0e:	4288      	cmp	r0, r1
    4a10:	419b      	sbcs	r3, r3
    4a12:	425b      	negs	r3, r3
    4a14:	18d2      	adds	r2, r2, r3
    4a16:	0213      	lsls	r3, r2, #8
    4a18:	d53a      	bpl.n	4a90 <__aeabi_ddiv+0x610>
    4a1a:	2301      	movs	r3, #1
    4a1c:	9a02      	ldr	r2, [sp, #8]
    4a1e:	2401      	movs	r4, #1
    4a20:	401a      	ands	r2, r3
    4a22:	2300      	movs	r3, #0
    4a24:	4694      	mov	ip, r2
    4a26:	4698      	mov	r8, r3
    4a28:	2200      	movs	r2, #0
    4a2a:	e5f7      	b.n	461c <__aeabi_ddiv+0x19c>
    4a2c:	2102      	movs	r1, #2
    4a2e:	4249      	negs	r1, r1
    4a30:	468c      	mov	ip, r1
    4a32:	9d03      	ldr	r5, [sp, #12]
    4a34:	44e3      	add	fp, ip
    4a36:	46ac      	mov	ip, r5
    4a38:	44e2      	add	sl, ip
    4a3a:	45aa      	cmp	sl, r5
    4a3c:	41ad      	sbcs	r5, r5
    4a3e:	426d      	negs	r5, r5
    4a40:	4445      	add	r5, r8
    4a42:	18ed      	adds	r5, r5, r3
    4a44:	1a2d      	subs	r5, r5, r0
    4a46:	e696      	b.n	4776 <__aeabi_ddiv+0x2f6>
    4a48:	1e8a      	subs	r2, r1, #2
    4a4a:	9903      	ldr	r1, [sp, #12]
    4a4c:	004d      	lsls	r5, r1, #1
    4a4e:	428d      	cmp	r5, r1
    4a50:	4189      	sbcs	r1, r1
    4a52:	4249      	negs	r1, r1
    4a54:	4441      	add	r1, r8
    4a56:	1876      	adds	r6, r6, r1
    4a58:	9503      	str	r5, [sp, #12]
    4a5a:	e78f      	b.n	497c <__aeabi_ddiv+0x4fc>
    4a5c:	201f      	movs	r0, #31
    4a5e:	4240      	negs	r0, r0
    4a60:	1ac3      	subs	r3, r0, r3
    4a62:	4658      	mov	r0, fp
    4a64:	40d8      	lsrs	r0, r3
    4a66:	0003      	movs	r3, r0
    4a68:	2a20      	cmp	r2, #32
    4a6a:	d028      	beq.n	4abe <__aeabi_ddiv+0x63e>
    4a6c:	2040      	movs	r0, #64	; 0x40
    4a6e:	465d      	mov	r5, fp
    4a70:	1a82      	subs	r2, r0, r2
    4a72:	4095      	lsls	r5, r2
    4a74:	4329      	orrs	r1, r5
    4a76:	1e4a      	subs	r2, r1, #1
    4a78:	4191      	sbcs	r1, r2
    4a7a:	4319      	orrs	r1, r3
    4a7c:	2307      	movs	r3, #7
    4a7e:	2200      	movs	r2, #0
    4a80:	400b      	ands	r3, r1
    4a82:	d009      	beq.n	4a98 <__aeabi_ddiv+0x618>
    4a84:	230f      	movs	r3, #15
    4a86:	2200      	movs	r2, #0
    4a88:	400b      	ands	r3, r1
    4a8a:	0008      	movs	r0, r1
    4a8c:	2b04      	cmp	r3, #4
    4a8e:	d1bd      	bne.n	4a0c <__aeabi_ddiv+0x58c>
    4a90:	0001      	movs	r1, r0
    4a92:	0753      	lsls	r3, r2, #29
    4a94:	0252      	lsls	r2, r2, #9
    4a96:	0b12      	lsrs	r2, r2, #12
    4a98:	08c9      	lsrs	r1, r1, #3
    4a9a:	4319      	orrs	r1, r3
    4a9c:	2301      	movs	r3, #1
    4a9e:	4688      	mov	r8, r1
    4aa0:	9902      	ldr	r1, [sp, #8]
    4aa2:	2400      	movs	r4, #0
    4aa4:	4019      	ands	r1, r3
    4aa6:	468c      	mov	ip, r1
    4aa8:	e5b8      	b.n	461c <__aeabi_ddiv+0x19c>
    4aaa:	4552      	cmp	r2, sl
    4aac:	d8be      	bhi.n	4a2c <__aeabi_ddiv+0x5ac>
    4aae:	468b      	mov	fp, r1
    4ab0:	2500      	movs	r5, #0
    4ab2:	e660      	b.n	4776 <__aeabi_ddiv+0x2f6>
    4ab4:	9d03      	ldr	r5, [sp, #12]
    4ab6:	429d      	cmp	r5, r3
    4ab8:	d3c6      	bcc.n	4a48 <__aeabi_ddiv+0x5c8>
    4aba:	0011      	movs	r1, r2
    4abc:	e762      	b.n	4984 <__aeabi_ddiv+0x504>
    4abe:	2500      	movs	r5, #0
    4ac0:	e7d8      	b.n	4a74 <__aeabi_ddiv+0x5f4>
    4ac2:	2280      	movs	r2, #128	; 0x80
    4ac4:	465b      	mov	r3, fp
    4ac6:	0312      	lsls	r2, r2, #12
    4ac8:	431a      	orrs	r2, r3
    4aca:	9b01      	ldr	r3, [sp, #4]
    4acc:	0312      	lsls	r2, r2, #12
    4ace:	0b12      	lsrs	r2, r2, #12
    4ad0:	469c      	mov	ip, r3
    4ad2:	4688      	mov	r8, r1
    4ad4:	4c03      	ldr	r4, [pc, #12]	; (4ae4 <__aeabi_ddiv+0x664>)
    4ad6:	e5a1      	b.n	461c <__aeabi_ddiv+0x19c>
    4ad8:	000003ff 	.word	0x000003ff
    4adc:	feffffff 	.word	0xfeffffff
    4ae0:	000007fe 	.word	0x000007fe
    4ae4:	000007ff 	.word	0x000007ff

00004ae8 <__aeabi_dmul>:
    4ae8:	b5f0      	push	{r4, r5, r6, r7, lr}
    4aea:	4657      	mov	r7, sl
    4aec:	4645      	mov	r5, r8
    4aee:	46de      	mov	lr, fp
    4af0:	464e      	mov	r6, r9
    4af2:	b5e0      	push	{r5, r6, r7, lr}
    4af4:	030c      	lsls	r4, r1, #12
    4af6:	4698      	mov	r8, r3
    4af8:	004e      	lsls	r6, r1, #1
    4afa:	0b23      	lsrs	r3, r4, #12
    4afc:	b087      	sub	sp, #28
    4afe:	0007      	movs	r7, r0
    4b00:	4692      	mov	sl, r2
    4b02:	469b      	mov	fp, r3
    4b04:	0d76      	lsrs	r6, r6, #21
    4b06:	0fcd      	lsrs	r5, r1, #31
    4b08:	2e00      	cmp	r6, #0
    4b0a:	d06b      	beq.n	4be4 <__aeabi_dmul+0xfc>
    4b0c:	4b6d      	ldr	r3, [pc, #436]	; (4cc4 <__aeabi_dmul+0x1dc>)
    4b0e:	429e      	cmp	r6, r3
    4b10:	d035      	beq.n	4b7e <__aeabi_dmul+0x96>
    4b12:	2480      	movs	r4, #128	; 0x80
    4b14:	465b      	mov	r3, fp
    4b16:	0f42      	lsrs	r2, r0, #29
    4b18:	0424      	lsls	r4, r4, #16
    4b1a:	00db      	lsls	r3, r3, #3
    4b1c:	4314      	orrs	r4, r2
    4b1e:	431c      	orrs	r4, r3
    4b20:	00c3      	lsls	r3, r0, #3
    4b22:	4699      	mov	r9, r3
    4b24:	4b68      	ldr	r3, [pc, #416]	; (4cc8 <__aeabi_dmul+0x1e0>)
    4b26:	46a3      	mov	fp, r4
    4b28:	469c      	mov	ip, r3
    4b2a:	2300      	movs	r3, #0
    4b2c:	2700      	movs	r7, #0
    4b2e:	4466      	add	r6, ip
    4b30:	9302      	str	r3, [sp, #8]
    4b32:	4643      	mov	r3, r8
    4b34:	031c      	lsls	r4, r3, #12
    4b36:	005a      	lsls	r2, r3, #1
    4b38:	0fdb      	lsrs	r3, r3, #31
    4b3a:	4650      	mov	r0, sl
    4b3c:	0b24      	lsrs	r4, r4, #12
    4b3e:	0d52      	lsrs	r2, r2, #21
    4b40:	4698      	mov	r8, r3
    4b42:	d100      	bne.n	4b46 <__aeabi_dmul+0x5e>
    4b44:	e076      	b.n	4c34 <__aeabi_dmul+0x14c>
    4b46:	4b5f      	ldr	r3, [pc, #380]	; (4cc4 <__aeabi_dmul+0x1dc>)
    4b48:	429a      	cmp	r2, r3
    4b4a:	d06d      	beq.n	4c28 <__aeabi_dmul+0x140>
    4b4c:	2380      	movs	r3, #128	; 0x80
    4b4e:	0f41      	lsrs	r1, r0, #29
    4b50:	041b      	lsls	r3, r3, #16
    4b52:	430b      	orrs	r3, r1
    4b54:	495c      	ldr	r1, [pc, #368]	; (4cc8 <__aeabi_dmul+0x1e0>)
    4b56:	00e4      	lsls	r4, r4, #3
    4b58:	468c      	mov	ip, r1
    4b5a:	431c      	orrs	r4, r3
    4b5c:	00c3      	lsls	r3, r0, #3
    4b5e:	2000      	movs	r0, #0
    4b60:	4462      	add	r2, ip
    4b62:	4641      	mov	r1, r8
    4b64:	18b6      	adds	r6, r6, r2
    4b66:	4069      	eors	r1, r5
    4b68:	1c72      	adds	r2, r6, #1
    4b6a:	9101      	str	r1, [sp, #4]
    4b6c:	4694      	mov	ip, r2
    4b6e:	4307      	orrs	r7, r0
    4b70:	2f0f      	cmp	r7, #15
    4b72:	d900      	bls.n	4b76 <__aeabi_dmul+0x8e>
    4b74:	e0b0      	b.n	4cd8 <__aeabi_dmul+0x1f0>
    4b76:	4a55      	ldr	r2, [pc, #340]	; (4ccc <__aeabi_dmul+0x1e4>)
    4b78:	00bf      	lsls	r7, r7, #2
    4b7a:	59d2      	ldr	r2, [r2, r7]
    4b7c:	4697      	mov	pc, r2
    4b7e:	465b      	mov	r3, fp
    4b80:	4303      	orrs	r3, r0
    4b82:	4699      	mov	r9, r3
    4b84:	d000      	beq.n	4b88 <__aeabi_dmul+0xa0>
    4b86:	e087      	b.n	4c98 <__aeabi_dmul+0x1b0>
    4b88:	2300      	movs	r3, #0
    4b8a:	469b      	mov	fp, r3
    4b8c:	3302      	adds	r3, #2
    4b8e:	2708      	movs	r7, #8
    4b90:	9302      	str	r3, [sp, #8]
    4b92:	e7ce      	b.n	4b32 <__aeabi_dmul+0x4a>
    4b94:	4642      	mov	r2, r8
    4b96:	9201      	str	r2, [sp, #4]
    4b98:	2802      	cmp	r0, #2
    4b9a:	d067      	beq.n	4c6c <__aeabi_dmul+0x184>
    4b9c:	2803      	cmp	r0, #3
    4b9e:	d100      	bne.n	4ba2 <__aeabi_dmul+0xba>
    4ba0:	e20e      	b.n	4fc0 <__aeabi_dmul+0x4d8>
    4ba2:	2801      	cmp	r0, #1
    4ba4:	d000      	beq.n	4ba8 <__aeabi_dmul+0xc0>
    4ba6:	e162      	b.n	4e6e <__aeabi_dmul+0x386>
    4ba8:	2300      	movs	r3, #0
    4baa:	2400      	movs	r4, #0
    4bac:	2200      	movs	r2, #0
    4bae:	4699      	mov	r9, r3
    4bb0:	9901      	ldr	r1, [sp, #4]
    4bb2:	4001      	ands	r1, r0
    4bb4:	b2cd      	uxtb	r5, r1
    4bb6:	2100      	movs	r1, #0
    4bb8:	0312      	lsls	r2, r2, #12
    4bba:	0d0b      	lsrs	r3, r1, #20
    4bbc:	0b12      	lsrs	r2, r2, #12
    4bbe:	051b      	lsls	r3, r3, #20
    4bc0:	4313      	orrs	r3, r2
    4bc2:	4a43      	ldr	r2, [pc, #268]	; (4cd0 <__aeabi_dmul+0x1e8>)
    4bc4:	0524      	lsls	r4, r4, #20
    4bc6:	4013      	ands	r3, r2
    4bc8:	431c      	orrs	r4, r3
    4bca:	0064      	lsls	r4, r4, #1
    4bcc:	07ed      	lsls	r5, r5, #31
    4bce:	0864      	lsrs	r4, r4, #1
    4bd0:	432c      	orrs	r4, r5
    4bd2:	4648      	mov	r0, r9
    4bd4:	0021      	movs	r1, r4
    4bd6:	b007      	add	sp, #28
    4bd8:	bc3c      	pop	{r2, r3, r4, r5}
    4bda:	4690      	mov	r8, r2
    4bdc:	4699      	mov	r9, r3
    4bde:	46a2      	mov	sl, r4
    4be0:	46ab      	mov	fp, r5
    4be2:	bdf0      	pop	{r4, r5, r6, r7, pc}
    4be4:	4303      	orrs	r3, r0
    4be6:	4699      	mov	r9, r3
    4be8:	d04f      	beq.n	4c8a <__aeabi_dmul+0x1a2>
    4bea:	465b      	mov	r3, fp
    4bec:	2b00      	cmp	r3, #0
    4bee:	d100      	bne.n	4bf2 <__aeabi_dmul+0x10a>
    4bf0:	e189      	b.n	4f06 <__aeabi_dmul+0x41e>
    4bf2:	4658      	mov	r0, fp
    4bf4:	f000 fd7a 	bl	56ec <__clzsi2>
    4bf8:	0003      	movs	r3, r0
    4bfa:	3b0b      	subs	r3, #11
    4bfc:	2b1c      	cmp	r3, #28
    4bfe:	dd00      	ble.n	4c02 <__aeabi_dmul+0x11a>
    4c00:	e17a      	b.n	4ef8 <__aeabi_dmul+0x410>
    4c02:	221d      	movs	r2, #29
    4c04:	1ad3      	subs	r3, r2, r3
    4c06:	003a      	movs	r2, r7
    4c08:	0001      	movs	r1, r0
    4c0a:	465c      	mov	r4, fp
    4c0c:	40da      	lsrs	r2, r3
    4c0e:	3908      	subs	r1, #8
    4c10:	408c      	lsls	r4, r1
    4c12:	0013      	movs	r3, r2
    4c14:	408f      	lsls	r7, r1
    4c16:	4323      	orrs	r3, r4
    4c18:	469b      	mov	fp, r3
    4c1a:	46b9      	mov	r9, r7
    4c1c:	2300      	movs	r3, #0
    4c1e:	4e2d      	ldr	r6, [pc, #180]	; (4cd4 <__aeabi_dmul+0x1ec>)
    4c20:	2700      	movs	r7, #0
    4c22:	1a36      	subs	r6, r6, r0
    4c24:	9302      	str	r3, [sp, #8]
    4c26:	e784      	b.n	4b32 <__aeabi_dmul+0x4a>
    4c28:	4653      	mov	r3, sl
    4c2a:	4323      	orrs	r3, r4
    4c2c:	d12a      	bne.n	4c84 <__aeabi_dmul+0x19c>
    4c2e:	2400      	movs	r4, #0
    4c30:	2002      	movs	r0, #2
    4c32:	e796      	b.n	4b62 <__aeabi_dmul+0x7a>
    4c34:	4653      	mov	r3, sl
    4c36:	4323      	orrs	r3, r4
    4c38:	d020      	beq.n	4c7c <__aeabi_dmul+0x194>
    4c3a:	2c00      	cmp	r4, #0
    4c3c:	d100      	bne.n	4c40 <__aeabi_dmul+0x158>
    4c3e:	e157      	b.n	4ef0 <__aeabi_dmul+0x408>
    4c40:	0020      	movs	r0, r4
    4c42:	f000 fd53 	bl	56ec <__clzsi2>
    4c46:	0003      	movs	r3, r0
    4c48:	3b0b      	subs	r3, #11
    4c4a:	2b1c      	cmp	r3, #28
    4c4c:	dd00      	ble.n	4c50 <__aeabi_dmul+0x168>
    4c4e:	e149      	b.n	4ee4 <__aeabi_dmul+0x3fc>
    4c50:	211d      	movs	r1, #29
    4c52:	1acb      	subs	r3, r1, r3
    4c54:	4651      	mov	r1, sl
    4c56:	0002      	movs	r2, r0
    4c58:	40d9      	lsrs	r1, r3
    4c5a:	4653      	mov	r3, sl
    4c5c:	3a08      	subs	r2, #8
    4c5e:	4094      	lsls	r4, r2
    4c60:	4093      	lsls	r3, r2
    4c62:	430c      	orrs	r4, r1
    4c64:	4a1b      	ldr	r2, [pc, #108]	; (4cd4 <__aeabi_dmul+0x1ec>)
    4c66:	1a12      	subs	r2, r2, r0
    4c68:	2000      	movs	r0, #0
    4c6a:	e77a      	b.n	4b62 <__aeabi_dmul+0x7a>
    4c6c:	2501      	movs	r5, #1
    4c6e:	9b01      	ldr	r3, [sp, #4]
    4c70:	4c14      	ldr	r4, [pc, #80]	; (4cc4 <__aeabi_dmul+0x1dc>)
    4c72:	401d      	ands	r5, r3
    4c74:	2300      	movs	r3, #0
    4c76:	2200      	movs	r2, #0
    4c78:	4699      	mov	r9, r3
    4c7a:	e79c      	b.n	4bb6 <__aeabi_dmul+0xce>
    4c7c:	2400      	movs	r4, #0
    4c7e:	2200      	movs	r2, #0
    4c80:	2001      	movs	r0, #1
    4c82:	e76e      	b.n	4b62 <__aeabi_dmul+0x7a>
    4c84:	4653      	mov	r3, sl
    4c86:	2003      	movs	r0, #3
    4c88:	e76b      	b.n	4b62 <__aeabi_dmul+0x7a>
    4c8a:	2300      	movs	r3, #0
    4c8c:	469b      	mov	fp, r3
    4c8e:	3301      	adds	r3, #1
    4c90:	2704      	movs	r7, #4
    4c92:	2600      	movs	r6, #0
    4c94:	9302      	str	r3, [sp, #8]
    4c96:	e74c      	b.n	4b32 <__aeabi_dmul+0x4a>
    4c98:	2303      	movs	r3, #3
    4c9a:	4681      	mov	r9, r0
    4c9c:	270c      	movs	r7, #12
    4c9e:	9302      	str	r3, [sp, #8]
    4ca0:	e747      	b.n	4b32 <__aeabi_dmul+0x4a>
    4ca2:	2280      	movs	r2, #128	; 0x80
    4ca4:	2300      	movs	r3, #0
    4ca6:	2500      	movs	r5, #0
    4ca8:	0312      	lsls	r2, r2, #12
    4caa:	4699      	mov	r9, r3
    4cac:	4c05      	ldr	r4, [pc, #20]	; (4cc4 <__aeabi_dmul+0x1dc>)
    4cae:	e782      	b.n	4bb6 <__aeabi_dmul+0xce>
    4cb0:	465c      	mov	r4, fp
    4cb2:	464b      	mov	r3, r9
    4cb4:	9802      	ldr	r0, [sp, #8]
    4cb6:	e76f      	b.n	4b98 <__aeabi_dmul+0xb0>
    4cb8:	465c      	mov	r4, fp
    4cba:	464b      	mov	r3, r9
    4cbc:	9501      	str	r5, [sp, #4]
    4cbe:	9802      	ldr	r0, [sp, #8]
    4cc0:	e76a      	b.n	4b98 <__aeabi_dmul+0xb0>
    4cc2:	46c0      	nop			; (mov r8, r8)
    4cc4:	000007ff 	.word	0x000007ff
    4cc8:	fffffc01 	.word	0xfffffc01
    4ccc:	00005b00 	.word	0x00005b00
    4cd0:	800fffff 	.word	0x800fffff
    4cd4:	fffffc0d 	.word	0xfffffc0d
    4cd8:	464a      	mov	r2, r9
    4cda:	4649      	mov	r1, r9
    4cdc:	0c17      	lsrs	r7, r2, #16
    4cde:	0c1a      	lsrs	r2, r3, #16
    4ce0:	041b      	lsls	r3, r3, #16
    4ce2:	0c1b      	lsrs	r3, r3, #16
    4ce4:	0408      	lsls	r0, r1, #16
    4ce6:	0019      	movs	r1, r3
    4ce8:	0c00      	lsrs	r0, r0, #16
    4cea:	4341      	muls	r1, r0
    4cec:	0015      	movs	r5, r2
    4cee:	4688      	mov	r8, r1
    4cf0:	0019      	movs	r1, r3
    4cf2:	437d      	muls	r5, r7
    4cf4:	4379      	muls	r1, r7
    4cf6:	9503      	str	r5, [sp, #12]
    4cf8:	4689      	mov	r9, r1
    4cfa:	0029      	movs	r1, r5
    4cfc:	0015      	movs	r5, r2
    4cfe:	4345      	muls	r5, r0
    4d00:	444d      	add	r5, r9
    4d02:	9502      	str	r5, [sp, #8]
    4d04:	4645      	mov	r5, r8
    4d06:	0c2d      	lsrs	r5, r5, #16
    4d08:	46aa      	mov	sl, r5
    4d0a:	9d02      	ldr	r5, [sp, #8]
    4d0c:	4455      	add	r5, sl
    4d0e:	45a9      	cmp	r9, r5
    4d10:	d906      	bls.n	4d20 <__aeabi_dmul+0x238>
    4d12:	468a      	mov	sl, r1
    4d14:	2180      	movs	r1, #128	; 0x80
    4d16:	0249      	lsls	r1, r1, #9
    4d18:	4689      	mov	r9, r1
    4d1a:	44ca      	add	sl, r9
    4d1c:	4651      	mov	r1, sl
    4d1e:	9103      	str	r1, [sp, #12]
    4d20:	0c29      	lsrs	r1, r5, #16
    4d22:	9104      	str	r1, [sp, #16]
    4d24:	4641      	mov	r1, r8
    4d26:	0409      	lsls	r1, r1, #16
    4d28:	042d      	lsls	r5, r5, #16
    4d2a:	0c09      	lsrs	r1, r1, #16
    4d2c:	4688      	mov	r8, r1
    4d2e:	0029      	movs	r1, r5
    4d30:	0c25      	lsrs	r5, r4, #16
    4d32:	0424      	lsls	r4, r4, #16
    4d34:	4441      	add	r1, r8
    4d36:	0c24      	lsrs	r4, r4, #16
    4d38:	9105      	str	r1, [sp, #20]
    4d3a:	0021      	movs	r1, r4
    4d3c:	4341      	muls	r1, r0
    4d3e:	4688      	mov	r8, r1
    4d40:	0021      	movs	r1, r4
    4d42:	4379      	muls	r1, r7
    4d44:	468a      	mov	sl, r1
    4d46:	4368      	muls	r0, r5
    4d48:	4641      	mov	r1, r8
    4d4a:	4450      	add	r0, sl
    4d4c:	4681      	mov	r9, r0
    4d4e:	0c08      	lsrs	r0, r1, #16
    4d50:	4448      	add	r0, r9
    4d52:	436f      	muls	r7, r5
    4d54:	4582      	cmp	sl, r0
    4d56:	d903      	bls.n	4d60 <__aeabi_dmul+0x278>
    4d58:	2180      	movs	r1, #128	; 0x80
    4d5a:	0249      	lsls	r1, r1, #9
    4d5c:	4689      	mov	r9, r1
    4d5e:	444f      	add	r7, r9
    4d60:	0c01      	lsrs	r1, r0, #16
    4d62:	4689      	mov	r9, r1
    4d64:	0039      	movs	r1, r7
    4d66:	4449      	add	r1, r9
    4d68:	9102      	str	r1, [sp, #8]
    4d6a:	4641      	mov	r1, r8
    4d6c:	040f      	lsls	r7, r1, #16
    4d6e:	9904      	ldr	r1, [sp, #16]
    4d70:	0c3f      	lsrs	r7, r7, #16
    4d72:	4688      	mov	r8, r1
    4d74:	0400      	lsls	r0, r0, #16
    4d76:	19c0      	adds	r0, r0, r7
    4d78:	4480      	add	r8, r0
    4d7a:	4641      	mov	r1, r8
    4d7c:	9104      	str	r1, [sp, #16]
    4d7e:	4659      	mov	r1, fp
    4d80:	0c0f      	lsrs	r7, r1, #16
    4d82:	0409      	lsls	r1, r1, #16
    4d84:	0c09      	lsrs	r1, r1, #16
    4d86:	4688      	mov	r8, r1
    4d88:	4359      	muls	r1, r3
    4d8a:	468a      	mov	sl, r1
    4d8c:	0039      	movs	r1, r7
    4d8e:	4351      	muls	r1, r2
    4d90:	4689      	mov	r9, r1
    4d92:	4641      	mov	r1, r8
    4d94:	434a      	muls	r2, r1
    4d96:	4651      	mov	r1, sl
    4d98:	0c09      	lsrs	r1, r1, #16
    4d9a:	468b      	mov	fp, r1
    4d9c:	437b      	muls	r3, r7
    4d9e:	18d2      	adds	r2, r2, r3
    4da0:	445a      	add	r2, fp
    4da2:	4293      	cmp	r3, r2
    4da4:	d903      	bls.n	4dae <__aeabi_dmul+0x2c6>
    4da6:	2380      	movs	r3, #128	; 0x80
    4da8:	025b      	lsls	r3, r3, #9
    4daa:	469b      	mov	fp, r3
    4dac:	44d9      	add	r9, fp
    4dae:	4651      	mov	r1, sl
    4db0:	0409      	lsls	r1, r1, #16
    4db2:	0c09      	lsrs	r1, r1, #16
    4db4:	468a      	mov	sl, r1
    4db6:	4641      	mov	r1, r8
    4db8:	4361      	muls	r1, r4
    4dba:	437c      	muls	r4, r7
    4dbc:	0c13      	lsrs	r3, r2, #16
    4dbe:	0412      	lsls	r2, r2, #16
    4dc0:	444b      	add	r3, r9
    4dc2:	4452      	add	r2, sl
    4dc4:	46a1      	mov	r9, r4
    4dc6:	468a      	mov	sl, r1
    4dc8:	003c      	movs	r4, r7
    4dca:	4641      	mov	r1, r8
    4dcc:	436c      	muls	r4, r5
    4dce:	434d      	muls	r5, r1
    4dd0:	4651      	mov	r1, sl
    4dd2:	444d      	add	r5, r9
    4dd4:	0c0f      	lsrs	r7, r1, #16
    4dd6:	197d      	adds	r5, r7, r5
    4dd8:	45a9      	cmp	r9, r5
    4dda:	d903      	bls.n	4de4 <__aeabi_dmul+0x2fc>
    4ddc:	2180      	movs	r1, #128	; 0x80
    4dde:	0249      	lsls	r1, r1, #9
    4de0:	4688      	mov	r8, r1
    4de2:	4444      	add	r4, r8
    4de4:	9f04      	ldr	r7, [sp, #16]
    4de6:	9903      	ldr	r1, [sp, #12]
    4de8:	46b8      	mov	r8, r7
    4dea:	4441      	add	r1, r8
    4dec:	468b      	mov	fp, r1
    4dee:	4583      	cmp	fp, r0
    4df0:	4180      	sbcs	r0, r0
    4df2:	4241      	negs	r1, r0
    4df4:	4688      	mov	r8, r1
    4df6:	4651      	mov	r1, sl
    4df8:	0408      	lsls	r0, r1, #16
    4dfa:	042f      	lsls	r7, r5, #16
    4dfc:	0c00      	lsrs	r0, r0, #16
    4dfe:	183f      	adds	r7, r7, r0
    4e00:	4658      	mov	r0, fp
    4e02:	9902      	ldr	r1, [sp, #8]
    4e04:	1810      	adds	r0, r2, r0
    4e06:	4689      	mov	r9, r1
    4e08:	4290      	cmp	r0, r2
    4e0a:	4192      	sbcs	r2, r2
    4e0c:	444f      	add	r7, r9
    4e0e:	46ba      	mov	sl, r7
    4e10:	4252      	negs	r2, r2
    4e12:	4699      	mov	r9, r3
    4e14:	4693      	mov	fp, r2
    4e16:	44c2      	add	sl, r8
    4e18:	44d1      	add	r9, sl
    4e1a:	44cb      	add	fp, r9
    4e1c:	428f      	cmp	r7, r1
    4e1e:	41bf      	sbcs	r7, r7
    4e20:	45c2      	cmp	sl, r8
    4e22:	4189      	sbcs	r1, r1
    4e24:	4599      	cmp	r9, r3
    4e26:	419b      	sbcs	r3, r3
    4e28:	4593      	cmp	fp, r2
    4e2a:	4192      	sbcs	r2, r2
    4e2c:	427f      	negs	r7, r7
    4e2e:	4249      	negs	r1, r1
    4e30:	0c2d      	lsrs	r5, r5, #16
    4e32:	4252      	negs	r2, r2
    4e34:	430f      	orrs	r7, r1
    4e36:	425b      	negs	r3, r3
    4e38:	4313      	orrs	r3, r2
    4e3a:	197f      	adds	r7, r7, r5
    4e3c:	18ff      	adds	r7, r7, r3
    4e3e:	465b      	mov	r3, fp
    4e40:	193c      	adds	r4, r7, r4
    4e42:	0ddb      	lsrs	r3, r3, #23
    4e44:	9a05      	ldr	r2, [sp, #20]
    4e46:	0264      	lsls	r4, r4, #9
    4e48:	431c      	orrs	r4, r3
    4e4a:	0243      	lsls	r3, r0, #9
    4e4c:	4313      	orrs	r3, r2
    4e4e:	1e5d      	subs	r5, r3, #1
    4e50:	41ab      	sbcs	r3, r5
    4e52:	465a      	mov	r2, fp
    4e54:	0dc0      	lsrs	r0, r0, #23
    4e56:	4303      	orrs	r3, r0
    4e58:	0252      	lsls	r2, r2, #9
    4e5a:	4313      	orrs	r3, r2
    4e5c:	01e2      	lsls	r2, r4, #7
    4e5e:	d556      	bpl.n	4f0e <__aeabi_dmul+0x426>
    4e60:	2001      	movs	r0, #1
    4e62:	085a      	lsrs	r2, r3, #1
    4e64:	4003      	ands	r3, r0
    4e66:	4313      	orrs	r3, r2
    4e68:	07e2      	lsls	r2, r4, #31
    4e6a:	4313      	orrs	r3, r2
    4e6c:	0864      	lsrs	r4, r4, #1
    4e6e:	485a      	ldr	r0, [pc, #360]	; (4fd8 <__aeabi_dmul+0x4f0>)
    4e70:	4460      	add	r0, ip
    4e72:	2800      	cmp	r0, #0
    4e74:	dd4d      	ble.n	4f12 <__aeabi_dmul+0x42a>
    4e76:	075a      	lsls	r2, r3, #29
    4e78:	d009      	beq.n	4e8e <__aeabi_dmul+0x3a6>
    4e7a:	220f      	movs	r2, #15
    4e7c:	401a      	ands	r2, r3
    4e7e:	2a04      	cmp	r2, #4
    4e80:	d005      	beq.n	4e8e <__aeabi_dmul+0x3a6>
    4e82:	1d1a      	adds	r2, r3, #4
    4e84:	429a      	cmp	r2, r3
    4e86:	419b      	sbcs	r3, r3
    4e88:	425b      	negs	r3, r3
    4e8a:	18e4      	adds	r4, r4, r3
    4e8c:	0013      	movs	r3, r2
    4e8e:	01e2      	lsls	r2, r4, #7
    4e90:	d504      	bpl.n	4e9c <__aeabi_dmul+0x3b4>
    4e92:	2080      	movs	r0, #128	; 0x80
    4e94:	4a51      	ldr	r2, [pc, #324]	; (4fdc <__aeabi_dmul+0x4f4>)
    4e96:	00c0      	lsls	r0, r0, #3
    4e98:	4014      	ands	r4, r2
    4e9a:	4460      	add	r0, ip
    4e9c:	4a50      	ldr	r2, [pc, #320]	; (4fe0 <__aeabi_dmul+0x4f8>)
    4e9e:	4290      	cmp	r0, r2
    4ea0:	dd00      	ble.n	4ea4 <__aeabi_dmul+0x3bc>
    4ea2:	e6e3      	b.n	4c6c <__aeabi_dmul+0x184>
    4ea4:	2501      	movs	r5, #1
    4ea6:	08db      	lsrs	r3, r3, #3
    4ea8:	0762      	lsls	r2, r4, #29
    4eaa:	431a      	orrs	r2, r3
    4eac:	0264      	lsls	r4, r4, #9
    4eae:	9b01      	ldr	r3, [sp, #4]
    4eb0:	4691      	mov	r9, r2
    4eb2:	0b22      	lsrs	r2, r4, #12
    4eb4:	0544      	lsls	r4, r0, #21
    4eb6:	0d64      	lsrs	r4, r4, #21
    4eb8:	401d      	ands	r5, r3
    4eba:	e67c      	b.n	4bb6 <__aeabi_dmul+0xce>
    4ebc:	2280      	movs	r2, #128	; 0x80
    4ebe:	4659      	mov	r1, fp
    4ec0:	0312      	lsls	r2, r2, #12
    4ec2:	4211      	tst	r1, r2
    4ec4:	d008      	beq.n	4ed8 <__aeabi_dmul+0x3f0>
    4ec6:	4214      	tst	r4, r2
    4ec8:	d106      	bne.n	4ed8 <__aeabi_dmul+0x3f0>
    4eca:	4322      	orrs	r2, r4
    4ecc:	0312      	lsls	r2, r2, #12
    4ece:	0b12      	lsrs	r2, r2, #12
    4ed0:	4645      	mov	r5, r8
    4ed2:	4699      	mov	r9, r3
    4ed4:	4c43      	ldr	r4, [pc, #268]	; (4fe4 <__aeabi_dmul+0x4fc>)
    4ed6:	e66e      	b.n	4bb6 <__aeabi_dmul+0xce>
    4ed8:	465b      	mov	r3, fp
    4eda:	431a      	orrs	r2, r3
    4edc:	0312      	lsls	r2, r2, #12
    4ede:	0b12      	lsrs	r2, r2, #12
    4ee0:	4c40      	ldr	r4, [pc, #256]	; (4fe4 <__aeabi_dmul+0x4fc>)
    4ee2:	e668      	b.n	4bb6 <__aeabi_dmul+0xce>
    4ee4:	0003      	movs	r3, r0
    4ee6:	4654      	mov	r4, sl
    4ee8:	3b28      	subs	r3, #40	; 0x28
    4eea:	409c      	lsls	r4, r3
    4eec:	2300      	movs	r3, #0
    4eee:	e6b9      	b.n	4c64 <__aeabi_dmul+0x17c>
    4ef0:	f000 fbfc 	bl	56ec <__clzsi2>
    4ef4:	3020      	adds	r0, #32
    4ef6:	e6a6      	b.n	4c46 <__aeabi_dmul+0x15e>
    4ef8:	0003      	movs	r3, r0
    4efa:	3b28      	subs	r3, #40	; 0x28
    4efc:	409f      	lsls	r7, r3
    4efe:	2300      	movs	r3, #0
    4f00:	46bb      	mov	fp, r7
    4f02:	4699      	mov	r9, r3
    4f04:	e68a      	b.n	4c1c <__aeabi_dmul+0x134>
    4f06:	f000 fbf1 	bl	56ec <__clzsi2>
    4f0a:	3020      	adds	r0, #32
    4f0c:	e674      	b.n	4bf8 <__aeabi_dmul+0x110>
    4f0e:	46b4      	mov	ip, r6
    4f10:	e7ad      	b.n	4e6e <__aeabi_dmul+0x386>
    4f12:	2501      	movs	r5, #1
    4f14:	1a2a      	subs	r2, r5, r0
    4f16:	2a38      	cmp	r2, #56	; 0x38
    4f18:	dd06      	ble.n	4f28 <__aeabi_dmul+0x440>
    4f1a:	9b01      	ldr	r3, [sp, #4]
    4f1c:	2400      	movs	r4, #0
    4f1e:	401d      	ands	r5, r3
    4f20:	2300      	movs	r3, #0
    4f22:	2200      	movs	r2, #0
    4f24:	4699      	mov	r9, r3
    4f26:	e646      	b.n	4bb6 <__aeabi_dmul+0xce>
    4f28:	2a1f      	cmp	r2, #31
    4f2a:	dc21      	bgt.n	4f70 <__aeabi_dmul+0x488>
    4f2c:	2520      	movs	r5, #32
    4f2e:	0020      	movs	r0, r4
    4f30:	1aad      	subs	r5, r5, r2
    4f32:	001e      	movs	r6, r3
    4f34:	40ab      	lsls	r3, r5
    4f36:	40a8      	lsls	r0, r5
    4f38:	40d6      	lsrs	r6, r2
    4f3a:	1e5d      	subs	r5, r3, #1
    4f3c:	41ab      	sbcs	r3, r5
    4f3e:	4330      	orrs	r0, r6
    4f40:	4318      	orrs	r0, r3
    4f42:	40d4      	lsrs	r4, r2
    4f44:	0743      	lsls	r3, r0, #29
    4f46:	d009      	beq.n	4f5c <__aeabi_dmul+0x474>
    4f48:	230f      	movs	r3, #15
    4f4a:	4003      	ands	r3, r0
    4f4c:	2b04      	cmp	r3, #4
    4f4e:	d005      	beq.n	4f5c <__aeabi_dmul+0x474>
    4f50:	0003      	movs	r3, r0
    4f52:	1d18      	adds	r0, r3, #4
    4f54:	4298      	cmp	r0, r3
    4f56:	419b      	sbcs	r3, r3
    4f58:	425b      	negs	r3, r3
    4f5a:	18e4      	adds	r4, r4, r3
    4f5c:	0223      	lsls	r3, r4, #8
    4f5e:	d521      	bpl.n	4fa4 <__aeabi_dmul+0x4bc>
    4f60:	2501      	movs	r5, #1
    4f62:	9b01      	ldr	r3, [sp, #4]
    4f64:	2401      	movs	r4, #1
    4f66:	401d      	ands	r5, r3
    4f68:	2300      	movs	r3, #0
    4f6a:	2200      	movs	r2, #0
    4f6c:	4699      	mov	r9, r3
    4f6e:	e622      	b.n	4bb6 <__aeabi_dmul+0xce>
    4f70:	251f      	movs	r5, #31
    4f72:	0021      	movs	r1, r4
    4f74:	426d      	negs	r5, r5
    4f76:	1a28      	subs	r0, r5, r0
    4f78:	40c1      	lsrs	r1, r0
    4f7a:	0008      	movs	r0, r1
    4f7c:	2a20      	cmp	r2, #32
    4f7e:	d01d      	beq.n	4fbc <__aeabi_dmul+0x4d4>
    4f80:	355f      	adds	r5, #95	; 0x5f
    4f82:	1aaa      	subs	r2, r5, r2
    4f84:	4094      	lsls	r4, r2
    4f86:	4323      	orrs	r3, r4
    4f88:	1e5c      	subs	r4, r3, #1
    4f8a:	41a3      	sbcs	r3, r4
    4f8c:	2507      	movs	r5, #7
    4f8e:	4303      	orrs	r3, r0
    4f90:	401d      	ands	r5, r3
    4f92:	2200      	movs	r2, #0
    4f94:	2d00      	cmp	r5, #0
    4f96:	d009      	beq.n	4fac <__aeabi_dmul+0x4c4>
    4f98:	220f      	movs	r2, #15
    4f9a:	2400      	movs	r4, #0
    4f9c:	401a      	ands	r2, r3
    4f9e:	0018      	movs	r0, r3
    4fa0:	2a04      	cmp	r2, #4
    4fa2:	d1d6      	bne.n	4f52 <__aeabi_dmul+0x46a>
    4fa4:	0003      	movs	r3, r0
    4fa6:	0765      	lsls	r5, r4, #29
    4fa8:	0264      	lsls	r4, r4, #9
    4faa:	0b22      	lsrs	r2, r4, #12
    4fac:	08db      	lsrs	r3, r3, #3
    4fae:	432b      	orrs	r3, r5
    4fb0:	2501      	movs	r5, #1
    4fb2:	4699      	mov	r9, r3
    4fb4:	9b01      	ldr	r3, [sp, #4]
    4fb6:	2400      	movs	r4, #0
    4fb8:	401d      	ands	r5, r3
    4fba:	e5fc      	b.n	4bb6 <__aeabi_dmul+0xce>
    4fbc:	2400      	movs	r4, #0
    4fbe:	e7e2      	b.n	4f86 <__aeabi_dmul+0x49e>
    4fc0:	2280      	movs	r2, #128	; 0x80
    4fc2:	2501      	movs	r5, #1
    4fc4:	0312      	lsls	r2, r2, #12
    4fc6:	4322      	orrs	r2, r4
    4fc8:	9901      	ldr	r1, [sp, #4]
    4fca:	0312      	lsls	r2, r2, #12
    4fcc:	0b12      	lsrs	r2, r2, #12
    4fce:	400d      	ands	r5, r1
    4fd0:	4699      	mov	r9, r3
    4fd2:	4c04      	ldr	r4, [pc, #16]	; (4fe4 <__aeabi_dmul+0x4fc>)
    4fd4:	e5ef      	b.n	4bb6 <__aeabi_dmul+0xce>
    4fd6:	46c0      	nop			; (mov r8, r8)
    4fd8:	000003ff 	.word	0x000003ff
    4fdc:	feffffff 	.word	0xfeffffff
    4fe0:	000007fe 	.word	0x000007fe
    4fe4:	000007ff 	.word	0x000007ff

00004fe8 <__aeabi_dsub>:
    4fe8:	b5f0      	push	{r4, r5, r6, r7, lr}
    4fea:	4646      	mov	r6, r8
    4fec:	46d6      	mov	lr, sl
    4fee:	464f      	mov	r7, r9
    4ff0:	030c      	lsls	r4, r1, #12
    4ff2:	b5c0      	push	{r6, r7, lr}
    4ff4:	0fcd      	lsrs	r5, r1, #31
    4ff6:	004e      	lsls	r6, r1, #1
    4ff8:	0a61      	lsrs	r1, r4, #9
    4ffa:	0f44      	lsrs	r4, r0, #29
    4ffc:	430c      	orrs	r4, r1
    4ffe:	00c1      	lsls	r1, r0, #3
    5000:	0058      	lsls	r0, r3, #1
    5002:	0d40      	lsrs	r0, r0, #21
    5004:	4684      	mov	ip, r0
    5006:	468a      	mov	sl, r1
    5008:	000f      	movs	r7, r1
    500a:	0319      	lsls	r1, r3, #12
    500c:	0f50      	lsrs	r0, r2, #29
    500e:	0a49      	lsrs	r1, r1, #9
    5010:	4301      	orrs	r1, r0
    5012:	48c6      	ldr	r0, [pc, #792]	; (532c <__aeabi_dsub+0x344>)
    5014:	0d76      	lsrs	r6, r6, #21
    5016:	46a8      	mov	r8, r5
    5018:	0fdb      	lsrs	r3, r3, #31
    501a:	00d2      	lsls	r2, r2, #3
    501c:	4584      	cmp	ip, r0
    501e:	d100      	bne.n	5022 <__aeabi_dsub+0x3a>
    5020:	e0d8      	b.n	51d4 <__aeabi_dsub+0x1ec>
    5022:	2001      	movs	r0, #1
    5024:	4043      	eors	r3, r0
    5026:	42ab      	cmp	r3, r5
    5028:	d100      	bne.n	502c <__aeabi_dsub+0x44>
    502a:	e0a6      	b.n	517a <__aeabi_dsub+0x192>
    502c:	4660      	mov	r0, ip
    502e:	1a35      	subs	r5, r6, r0
    5030:	2d00      	cmp	r5, #0
    5032:	dc00      	bgt.n	5036 <__aeabi_dsub+0x4e>
    5034:	e105      	b.n	5242 <__aeabi_dsub+0x25a>
    5036:	2800      	cmp	r0, #0
    5038:	d110      	bne.n	505c <__aeabi_dsub+0x74>
    503a:	000b      	movs	r3, r1
    503c:	4313      	orrs	r3, r2
    503e:	d100      	bne.n	5042 <__aeabi_dsub+0x5a>
    5040:	e0d7      	b.n	51f2 <__aeabi_dsub+0x20a>
    5042:	1e6b      	subs	r3, r5, #1
    5044:	2b00      	cmp	r3, #0
    5046:	d000      	beq.n	504a <__aeabi_dsub+0x62>
    5048:	e14b      	b.n	52e2 <__aeabi_dsub+0x2fa>
    504a:	4653      	mov	r3, sl
    504c:	1a9f      	subs	r7, r3, r2
    504e:	45ba      	cmp	sl, r7
    5050:	4180      	sbcs	r0, r0
    5052:	1a64      	subs	r4, r4, r1
    5054:	4240      	negs	r0, r0
    5056:	1a24      	subs	r4, r4, r0
    5058:	2601      	movs	r6, #1
    505a:	e01e      	b.n	509a <__aeabi_dsub+0xb2>
    505c:	4bb3      	ldr	r3, [pc, #716]	; (532c <__aeabi_dsub+0x344>)
    505e:	429e      	cmp	r6, r3
    5060:	d048      	beq.n	50f4 <__aeabi_dsub+0x10c>
    5062:	2380      	movs	r3, #128	; 0x80
    5064:	041b      	lsls	r3, r3, #16
    5066:	4319      	orrs	r1, r3
    5068:	2d38      	cmp	r5, #56	; 0x38
    506a:	dd00      	ble.n	506e <__aeabi_dsub+0x86>
    506c:	e119      	b.n	52a2 <__aeabi_dsub+0x2ba>
    506e:	2d1f      	cmp	r5, #31
    5070:	dd00      	ble.n	5074 <__aeabi_dsub+0x8c>
    5072:	e14c      	b.n	530e <__aeabi_dsub+0x326>
    5074:	2320      	movs	r3, #32
    5076:	000f      	movs	r7, r1
    5078:	1b5b      	subs	r3, r3, r5
    507a:	0010      	movs	r0, r2
    507c:	409a      	lsls	r2, r3
    507e:	409f      	lsls	r7, r3
    5080:	40e8      	lsrs	r0, r5
    5082:	1e53      	subs	r3, r2, #1
    5084:	419a      	sbcs	r2, r3
    5086:	40e9      	lsrs	r1, r5
    5088:	4307      	orrs	r7, r0
    508a:	4317      	orrs	r7, r2
    508c:	4653      	mov	r3, sl
    508e:	1bdf      	subs	r7, r3, r7
    5090:	1a61      	subs	r1, r4, r1
    5092:	45ba      	cmp	sl, r7
    5094:	41a4      	sbcs	r4, r4
    5096:	4264      	negs	r4, r4
    5098:	1b0c      	subs	r4, r1, r4
    509a:	0223      	lsls	r3, r4, #8
    509c:	d400      	bmi.n	50a0 <__aeabi_dsub+0xb8>
    509e:	e0c5      	b.n	522c <__aeabi_dsub+0x244>
    50a0:	0264      	lsls	r4, r4, #9
    50a2:	0a65      	lsrs	r5, r4, #9
    50a4:	2d00      	cmp	r5, #0
    50a6:	d100      	bne.n	50aa <__aeabi_dsub+0xc2>
    50a8:	e0f6      	b.n	5298 <__aeabi_dsub+0x2b0>
    50aa:	0028      	movs	r0, r5
    50ac:	f000 fb1e 	bl	56ec <__clzsi2>
    50b0:	0003      	movs	r3, r0
    50b2:	3b08      	subs	r3, #8
    50b4:	2b1f      	cmp	r3, #31
    50b6:	dd00      	ble.n	50ba <__aeabi_dsub+0xd2>
    50b8:	e0e9      	b.n	528e <__aeabi_dsub+0x2a6>
    50ba:	2220      	movs	r2, #32
    50bc:	003c      	movs	r4, r7
    50be:	1ad2      	subs	r2, r2, r3
    50c0:	409d      	lsls	r5, r3
    50c2:	40d4      	lsrs	r4, r2
    50c4:	409f      	lsls	r7, r3
    50c6:	4325      	orrs	r5, r4
    50c8:	429e      	cmp	r6, r3
    50ca:	dd00      	ble.n	50ce <__aeabi_dsub+0xe6>
    50cc:	e0db      	b.n	5286 <__aeabi_dsub+0x29e>
    50ce:	1b9e      	subs	r6, r3, r6
    50d0:	1c73      	adds	r3, r6, #1
    50d2:	2b1f      	cmp	r3, #31
    50d4:	dd00      	ble.n	50d8 <__aeabi_dsub+0xf0>
    50d6:	e10a      	b.n	52ee <__aeabi_dsub+0x306>
    50d8:	2220      	movs	r2, #32
    50da:	0038      	movs	r0, r7
    50dc:	1ad2      	subs	r2, r2, r3
    50de:	0029      	movs	r1, r5
    50e0:	4097      	lsls	r7, r2
    50e2:	002c      	movs	r4, r5
    50e4:	4091      	lsls	r1, r2
    50e6:	40d8      	lsrs	r0, r3
    50e8:	1e7a      	subs	r2, r7, #1
    50ea:	4197      	sbcs	r7, r2
    50ec:	40dc      	lsrs	r4, r3
    50ee:	2600      	movs	r6, #0
    50f0:	4301      	orrs	r1, r0
    50f2:	430f      	orrs	r7, r1
    50f4:	077b      	lsls	r3, r7, #29
    50f6:	d009      	beq.n	510c <__aeabi_dsub+0x124>
    50f8:	230f      	movs	r3, #15
    50fa:	403b      	ands	r3, r7
    50fc:	2b04      	cmp	r3, #4
    50fe:	d005      	beq.n	510c <__aeabi_dsub+0x124>
    5100:	1d3b      	adds	r3, r7, #4
    5102:	42bb      	cmp	r3, r7
    5104:	41bf      	sbcs	r7, r7
    5106:	427f      	negs	r7, r7
    5108:	19e4      	adds	r4, r4, r7
    510a:	001f      	movs	r7, r3
    510c:	0223      	lsls	r3, r4, #8
    510e:	d525      	bpl.n	515c <__aeabi_dsub+0x174>
    5110:	4b86      	ldr	r3, [pc, #536]	; (532c <__aeabi_dsub+0x344>)
    5112:	3601      	adds	r6, #1
    5114:	429e      	cmp	r6, r3
    5116:	d100      	bne.n	511a <__aeabi_dsub+0x132>
    5118:	e0af      	b.n	527a <__aeabi_dsub+0x292>
    511a:	4b85      	ldr	r3, [pc, #532]	; (5330 <__aeabi_dsub+0x348>)
    511c:	2501      	movs	r5, #1
    511e:	401c      	ands	r4, r3
    5120:	4643      	mov	r3, r8
    5122:	0762      	lsls	r2, r4, #29
    5124:	08ff      	lsrs	r7, r7, #3
    5126:	0264      	lsls	r4, r4, #9
    5128:	0576      	lsls	r6, r6, #21
    512a:	4317      	orrs	r7, r2
    512c:	0b24      	lsrs	r4, r4, #12
    512e:	0d76      	lsrs	r6, r6, #21
    5130:	401d      	ands	r5, r3
    5132:	2100      	movs	r1, #0
    5134:	0324      	lsls	r4, r4, #12
    5136:	0b23      	lsrs	r3, r4, #12
    5138:	0d0c      	lsrs	r4, r1, #20
    513a:	4a7e      	ldr	r2, [pc, #504]	; (5334 <__aeabi_dsub+0x34c>)
    513c:	0524      	lsls	r4, r4, #20
    513e:	431c      	orrs	r4, r3
    5140:	4014      	ands	r4, r2
    5142:	0533      	lsls	r3, r6, #20
    5144:	4323      	orrs	r3, r4
    5146:	005b      	lsls	r3, r3, #1
    5148:	07ed      	lsls	r5, r5, #31
    514a:	085b      	lsrs	r3, r3, #1
    514c:	432b      	orrs	r3, r5
    514e:	0038      	movs	r0, r7
    5150:	0019      	movs	r1, r3
    5152:	bc1c      	pop	{r2, r3, r4}
    5154:	4690      	mov	r8, r2
    5156:	4699      	mov	r9, r3
    5158:	46a2      	mov	sl, r4
    515a:	bdf0      	pop	{r4, r5, r6, r7, pc}
    515c:	2501      	movs	r5, #1
    515e:	4643      	mov	r3, r8
    5160:	0762      	lsls	r2, r4, #29
    5162:	08ff      	lsrs	r7, r7, #3
    5164:	4317      	orrs	r7, r2
    5166:	08e4      	lsrs	r4, r4, #3
    5168:	401d      	ands	r5, r3
    516a:	4b70      	ldr	r3, [pc, #448]	; (532c <__aeabi_dsub+0x344>)
    516c:	429e      	cmp	r6, r3
    516e:	d036      	beq.n	51de <__aeabi_dsub+0x1f6>
    5170:	0324      	lsls	r4, r4, #12
    5172:	0576      	lsls	r6, r6, #21
    5174:	0b24      	lsrs	r4, r4, #12
    5176:	0d76      	lsrs	r6, r6, #21
    5178:	e7db      	b.n	5132 <__aeabi_dsub+0x14a>
    517a:	4663      	mov	r3, ip
    517c:	1af3      	subs	r3, r6, r3
    517e:	2b00      	cmp	r3, #0
    5180:	dc00      	bgt.n	5184 <__aeabi_dsub+0x19c>
    5182:	e094      	b.n	52ae <__aeabi_dsub+0x2c6>
    5184:	4660      	mov	r0, ip
    5186:	2800      	cmp	r0, #0
    5188:	d035      	beq.n	51f6 <__aeabi_dsub+0x20e>
    518a:	4868      	ldr	r0, [pc, #416]	; (532c <__aeabi_dsub+0x344>)
    518c:	4286      	cmp	r6, r0
    518e:	d0b1      	beq.n	50f4 <__aeabi_dsub+0x10c>
    5190:	2780      	movs	r7, #128	; 0x80
    5192:	043f      	lsls	r7, r7, #16
    5194:	4339      	orrs	r1, r7
    5196:	2b38      	cmp	r3, #56	; 0x38
    5198:	dc00      	bgt.n	519c <__aeabi_dsub+0x1b4>
    519a:	e0fd      	b.n	5398 <__aeabi_dsub+0x3b0>
    519c:	430a      	orrs	r2, r1
    519e:	0017      	movs	r7, r2
    51a0:	2100      	movs	r1, #0
    51a2:	1e7a      	subs	r2, r7, #1
    51a4:	4197      	sbcs	r7, r2
    51a6:	4457      	add	r7, sl
    51a8:	4557      	cmp	r7, sl
    51aa:	4180      	sbcs	r0, r0
    51ac:	1909      	adds	r1, r1, r4
    51ae:	4244      	negs	r4, r0
    51b0:	190c      	adds	r4, r1, r4
    51b2:	0223      	lsls	r3, r4, #8
    51b4:	d53a      	bpl.n	522c <__aeabi_dsub+0x244>
    51b6:	4b5d      	ldr	r3, [pc, #372]	; (532c <__aeabi_dsub+0x344>)
    51b8:	3601      	adds	r6, #1
    51ba:	429e      	cmp	r6, r3
    51bc:	d100      	bne.n	51c0 <__aeabi_dsub+0x1d8>
    51be:	e14b      	b.n	5458 <__aeabi_dsub+0x470>
    51c0:	2201      	movs	r2, #1
    51c2:	4b5b      	ldr	r3, [pc, #364]	; (5330 <__aeabi_dsub+0x348>)
    51c4:	401c      	ands	r4, r3
    51c6:	087b      	lsrs	r3, r7, #1
    51c8:	4017      	ands	r7, r2
    51ca:	431f      	orrs	r7, r3
    51cc:	07e2      	lsls	r2, r4, #31
    51ce:	4317      	orrs	r7, r2
    51d0:	0864      	lsrs	r4, r4, #1
    51d2:	e78f      	b.n	50f4 <__aeabi_dsub+0x10c>
    51d4:	0008      	movs	r0, r1
    51d6:	4310      	orrs	r0, r2
    51d8:	d000      	beq.n	51dc <__aeabi_dsub+0x1f4>
    51da:	e724      	b.n	5026 <__aeabi_dsub+0x3e>
    51dc:	e721      	b.n	5022 <__aeabi_dsub+0x3a>
    51de:	0023      	movs	r3, r4
    51e0:	433b      	orrs	r3, r7
    51e2:	d100      	bne.n	51e6 <__aeabi_dsub+0x1fe>
    51e4:	e1b9      	b.n	555a <__aeabi_dsub+0x572>
    51e6:	2280      	movs	r2, #128	; 0x80
    51e8:	0312      	lsls	r2, r2, #12
    51ea:	4314      	orrs	r4, r2
    51ec:	0324      	lsls	r4, r4, #12
    51ee:	0b24      	lsrs	r4, r4, #12
    51f0:	e79f      	b.n	5132 <__aeabi_dsub+0x14a>
    51f2:	002e      	movs	r6, r5
    51f4:	e77e      	b.n	50f4 <__aeabi_dsub+0x10c>
    51f6:	0008      	movs	r0, r1
    51f8:	4310      	orrs	r0, r2
    51fa:	d100      	bne.n	51fe <__aeabi_dsub+0x216>
    51fc:	e0ca      	b.n	5394 <__aeabi_dsub+0x3ac>
    51fe:	1e58      	subs	r0, r3, #1
    5200:	4684      	mov	ip, r0
    5202:	2800      	cmp	r0, #0
    5204:	d000      	beq.n	5208 <__aeabi_dsub+0x220>
    5206:	e0e7      	b.n	53d8 <__aeabi_dsub+0x3f0>
    5208:	4452      	add	r2, sl
    520a:	4552      	cmp	r2, sl
    520c:	4180      	sbcs	r0, r0
    520e:	1864      	adds	r4, r4, r1
    5210:	4240      	negs	r0, r0
    5212:	1824      	adds	r4, r4, r0
    5214:	0017      	movs	r7, r2
    5216:	2601      	movs	r6, #1
    5218:	0223      	lsls	r3, r4, #8
    521a:	d507      	bpl.n	522c <__aeabi_dsub+0x244>
    521c:	2602      	movs	r6, #2
    521e:	e7cf      	b.n	51c0 <__aeabi_dsub+0x1d8>
    5220:	4664      	mov	r4, ip
    5222:	432c      	orrs	r4, r5
    5224:	d100      	bne.n	5228 <__aeabi_dsub+0x240>
    5226:	e1b3      	b.n	5590 <__aeabi_dsub+0x5a8>
    5228:	002c      	movs	r4, r5
    522a:	4667      	mov	r7, ip
    522c:	077b      	lsls	r3, r7, #29
    522e:	d000      	beq.n	5232 <__aeabi_dsub+0x24a>
    5230:	e762      	b.n	50f8 <__aeabi_dsub+0x110>
    5232:	0763      	lsls	r3, r4, #29
    5234:	08ff      	lsrs	r7, r7, #3
    5236:	431f      	orrs	r7, r3
    5238:	2501      	movs	r5, #1
    523a:	4643      	mov	r3, r8
    523c:	08e4      	lsrs	r4, r4, #3
    523e:	401d      	ands	r5, r3
    5240:	e793      	b.n	516a <__aeabi_dsub+0x182>
    5242:	2d00      	cmp	r5, #0
    5244:	d178      	bne.n	5338 <__aeabi_dsub+0x350>
    5246:	1c75      	adds	r5, r6, #1
    5248:	056d      	lsls	r5, r5, #21
    524a:	0d6d      	lsrs	r5, r5, #21
    524c:	2d01      	cmp	r5, #1
    524e:	dc00      	bgt.n	5252 <__aeabi_dsub+0x26a>
    5250:	e0f2      	b.n	5438 <__aeabi_dsub+0x450>
    5252:	4650      	mov	r0, sl
    5254:	1a80      	subs	r0, r0, r2
    5256:	4582      	cmp	sl, r0
    5258:	41bf      	sbcs	r7, r7
    525a:	1a65      	subs	r5, r4, r1
    525c:	427f      	negs	r7, r7
    525e:	1bed      	subs	r5, r5, r7
    5260:	4684      	mov	ip, r0
    5262:	0228      	lsls	r0, r5, #8
    5264:	d400      	bmi.n	5268 <__aeabi_dsub+0x280>
    5266:	e08c      	b.n	5382 <__aeabi_dsub+0x39a>
    5268:	4650      	mov	r0, sl
    526a:	1a17      	subs	r7, r2, r0
    526c:	42ba      	cmp	r2, r7
    526e:	4192      	sbcs	r2, r2
    5270:	1b0c      	subs	r4, r1, r4
    5272:	4255      	negs	r5, r2
    5274:	1b65      	subs	r5, r4, r5
    5276:	4698      	mov	r8, r3
    5278:	e714      	b.n	50a4 <__aeabi_dsub+0xbc>
    527a:	2501      	movs	r5, #1
    527c:	4643      	mov	r3, r8
    527e:	2400      	movs	r4, #0
    5280:	401d      	ands	r5, r3
    5282:	2700      	movs	r7, #0
    5284:	e755      	b.n	5132 <__aeabi_dsub+0x14a>
    5286:	4c2a      	ldr	r4, [pc, #168]	; (5330 <__aeabi_dsub+0x348>)
    5288:	1af6      	subs	r6, r6, r3
    528a:	402c      	ands	r4, r5
    528c:	e732      	b.n	50f4 <__aeabi_dsub+0x10c>
    528e:	003d      	movs	r5, r7
    5290:	3828      	subs	r0, #40	; 0x28
    5292:	4085      	lsls	r5, r0
    5294:	2700      	movs	r7, #0
    5296:	e717      	b.n	50c8 <__aeabi_dsub+0xe0>
    5298:	0038      	movs	r0, r7
    529a:	f000 fa27 	bl	56ec <__clzsi2>
    529e:	3020      	adds	r0, #32
    52a0:	e706      	b.n	50b0 <__aeabi_dsub+0xc8>
    52a2:	430a      	orrs	r2, r1
    52a4:	0017      	movs	r7, r2
    52a6:	2100      	movs	r1, #0
    52a8:	1e7a      	subs	r2, r7, #1
    52aa:	4197      	sbcs	r7, r2
    52ac:	e6ee      	b.n	508c <__aeabi_dsub+0xa4>
    52ae:	2b00      	cmp	r3, #0
    52b0:	d000      	beq.n	52b4 <__aeabi_dsub+0x2cc>
    52b2:	e0e5      	b.n	5480 <__aeabi_dsub+0x498>
    52b4:	1c73      	adds	r3, r6, #1
    52b6:	469c      	mov	ip, r3
    52b8:	055b      	lsls	r3, r3, #21
    52ba:	0d5b      	lsrs	r3, r3, #21
    52bc:	2b01      	cmp	r3, #1
    52be:	dc00      	bgt.n	52c2 <__aeabi_dsub+0x2da>
    52c0:	e09f      	b.n	5402 <__aeabi_dsub+0x41a>
    52c2:	4b1a      	ldr	r3, [pc, #104]	; (532c <__aeabi_dsub+0x344>)
    52c4:	459c      	cmp	ip, r3
    52c6:	d100      	bne.n	52ca <__aeabi_dsub+0x2e2>
    52c8:	e0c5      	b.n	5456 <__aeabi_dsub+0x46e>
    52ca:	4452      	add	r2, sl
    52cc:	4552      	cmp	r2, sl
    52ce:	4180      	sbcs	r0, r0
    52d0:	1864      	adds	r4, r4, r1
    52d2:	4240      	negs	r0, r0
    52d4:	1824      	adds	r4, r4, r0
    52d6:	07e7      	lsls	r7, r4, #31
    52d8:	0852      	lsrs	r2, r2, #1
    52da:	4317      	orrs	r7, r2
    52dc:	0864      	lsrs	r4, r4, #1
    52de:	4666      	mov	r6, ip
    52e0:	e708      	b.n	50f4 <__aeabi_dsub+0x10c>
    52e2:	4812      	ldr	r0, [pc, #72]	; (532c <__aeabi_dsub+0x344>)
    52e4:	4285      	cmp	r5, r0
    52e6:	d100      	bne.n	52ea <__aeabi_dsub+0x302>
    52e8:	e085      	b.n	53f6 <__aeabi_dsub+0x40e>
    52ea:	001d      	movs	r5, r3
    52ec:	e6bc      	b.n	5068 <__aeabi_dsub+0x80>
    52ee:	0029      	movs	r1, r5
    52f0:	3e1f      	subs	r6, #31
    52f2:	40f1      	lsrs	r1, r6
    52f4:	2b20      	cmp	r3, #32
    52f6:	d100      	bne.n	52fa <__aeabi_dsub+0x312>
    52f8:	e07f      	b.n	53fa <__aeabi_dsub+0x412>
    52fa:	2240      	movs	r2, #64	; 0x40
    52fc:	1ad3      	subs	r3, r2, r3
    52fe:	409d      	lsls	r5, r3
    5300:	432f      	orrs	r7, r5
    5302:	1e7d      	subs	r5, r7, #1
    5304:	41af      	sbcs	r7, r5
    5306:	2400      	movs	r4, #0
    5308:	430f      	orrs	r7, r1
    530a:	2600      	movs	r6, #0
    530c:	e78e      	b.n	522c <__aeabi_dsub+0x244>
    530e:	002b      	movs	r3, r5
    5310:	000f      	movs	r7, r1
    5312:	3b20      	subs	r3, #32
    5314:	40df      	lsrs	r7, r3
    5316:	2d20      	cmp	r5, #32
    5318:	d071      	beq.n	53fe <__aeabi_dsub+0x416>
    531a:	2340      	movs	r3, #64	; 0x40
    531c:	1b5d      	subs	r5, r3, r5
    531e:	40a9      	lsls	r1, r5
    5320:	430a      	orrs	r2, r1
    5322:	1e51      	subs	r1, r2, #1
    5324:	418a      	sbcs	r2, r1
    5326:	2100      	movs	r1, #0
    5328:	4317      	orrs	r7, r2
    532a:	e6af      	b.n	508c <__aeabi_dsub+0xa4>
    532c:	000007ff 	.word	0x000007ff
    5330:	ff7fffff 	.word	0xff7fffff
    5334:	800fffff 	.word	0x800fffff
    5338:	2e00      	cmp	r6, #0
    533a:	d03e      	beq.n	53ba <__aeabi_dsub+0x3d2>
    533c:	4eb3      	ldr	r6, [pc, #716]	; (560c <__aeabi_dsub+0x624>)
    533e:	45b4      	cmp	ip, r6
    5340:	d045      	beq.n	53ce <__aeabi_dsub+0x3e6>
    5342:	2680      	movs	r6, #128	; 0x80
    5344:	0436      	lsls	r6, r6, #16
    5346:	426d      	negs	r5, r5
    5348:	4334      	orrs	r4, r6
    534a:	2d38      	cmp	r5, #56	; 0x38
    534c:	dd00      	ble.n	5350 <__aeabi_dsub+0x368>
    534e:	e0a8      	b.n	54a2 <__aeabi_dsub+0x4ba>
    5350:	2d1f      	cmp	r5, #31
    5352:	dd00      	ble.n	5356 <__aeabi_dsub+0x36e>
    5354:	e11f      	b.n	5596 <__aeabi_dsub+0x5ae>
    5356:	2620      	movs	r6, #32
    5358:	0027      	movs	r7, r4
    535a:	4650      	mov	r0, sl
    535c:	1b76      	subs	r6, r6, r5
    535e:	40b7      	lsls	r7, r6
    5360:	40e8      	lsrs	r0, r5
    5362:	4307      	orrs	r7, r0
    5364:	4650      	mov	r0, sl
    5366:	40b0      	lsls	r0, r6
    5368:	1e46      	subs	r6, r0, #1
    536a:	41b0      	sbcs	r0, r6
    536c:	40ec      	lsrs	r4, r5
    536e:	4338      	orrs	r0, r7
    5370:	1a17      	subs	r7, r2, r0
    5372:	42ba      	cmp	r2, r7
    5374:	4192      	sbcs	r2, r2
    5376:	1b0c      	subs	r4, r1, r4
    5378:	4252      	negs	r2, r2
    537a:	1aa4      	subs	r4, r4, r2
    537c:	4666      	mov	r6, ip
    537e:	4698      	mov	r8, r3
    5380:	e68b      	b.n	509a <__aeabi_dsub+0xb2>
    5382:	4664      	mov	r4, ip
    5384:	4667      	mov	r7, ip
    5386:	432c      	orrs	r4, r5
    5388:	d000      	beq.n	538c <__aeabi_dsub+0x3a4>
    538a:	e68b      	b.n	50a4 <__aeabi_dsub+0xbc>
    538c:	2500      	movs	r5, #0
    538e:	2600      	movs	r6, #0
    5390:	2700      	movs	r7, #0
    5392:	e6ea      	b.n	516a <__aeabi_dsub+0x182>
    5394:	001e      	movs	r6, r3
    5396:	e6ad      	b.n	50f4 <__aeabi_dsub+0x10c>
    5398:	2b1f      	cmp	r3, #31
    539a:	dc60      	bgt.n	545e <__aeabi_dsub+0x476>
    539c:	2720      	movs	r7, #32
    539e:	1af8      	subs	r0, r7, r3
    53a0:	000f      	movs	r7, r1
    53a2:	4684      	mov	ip, r0
    53a4:	4087      	lsls	r7, r0
    53a6:	0010      	movs	r0, r2
    53a8:	40d8      	lsrs	r0, r3
    53aa:	4307      	orrs	r7, r0
    53ac:	4660      	mov	r0, ip
    53ae:	4082      	lsls	r2, r0
    53b0:	1e50      	subs	r0, r2, #1
    53b2:	4182      	sbcs	r2, r0
    53b4:	40d9      	lsrs	r1, r3
    53b6:	4317      	orrs	r7, r2
    53b8:	e6f5      	b.n	51a6 <__aeabi_dsub+0x1be>
    53ba:	0026      	movs	r6, r4
    53bc:	4650      	mov	r0, sl
    53be:	4306      	orrs	r6, r0
    53c0:	d005      	beq.n	53ce <__aeabi_dsub+0x3e6>
    53c2:	43ed      	mvns	r5, r5
    53c4:	2d00      	cmp	r5, #0
    53c6:	d0d3      	beq.n	5370 <__aeabi_dsub+0x388>
    53c8:	4e90      	ldr	r6, [pc, #576]	; (560c <__aeabi_dsub+0x624>)
    53ca:	45b4      	cmp	ip, r6
    53cc:	d1bd      	bne.n	534a <__aeabi_dsub+0x362>
    53ce:	000c      	movs	r4, r1
    53d0:	0017      	movs	r7, r2
    53d2:	4666      	mov	r6, ip
    53d4:	4698      	mov	r8, r3
    53d6:	e68d      	b.n	50f4 <__aeabi_dsub+0x10c>
    53d8:	488c      	ldr	r0, [pc, #560]	; (560c <__aeabi_dsub+0x624>)
    53da:	4283      	cmp	r3, r0
    53dc:	d00b      	beq.n	53f6 <__aeabi_dsub+0x40e>
    53de:	4663      	mov	r3, ip
    53e0:	e6d9      	b.n	5196 <__aeabi_dsub+0x1ae>
    53e2:	2d00      	cmp	r5, #0
    53e4:	d000      	beq.n	53e8 <__aeabi_dsub+0x400>
    53e6:	e096      	b.n	5516 <__aeabi_dsub+0x52e>
    53e8:	0008      	movs	r0, r1
    53ea:	4310      	orrs	r0, r2
    53ec:	d100      	bne.n	53f0 <__aeabi_dsub+0x408>
    53ee:	e0e2      	b.n	55b6 <__aeabi_dsub+0x5ce>
    53f0:	000c      	movs	r4, r1
    53f2:	0017      	movs	r7, r2
    53f4:	4698      	mov	r8, r3
    53f6:	4e85      	ldr	r6, [pc, #532]	; (560c <__aeabi_dsub+0x624>)
    53f8:	e67c      	b.n	50f4 <__aeabi_dsub+0x10c>
    53fa:	2500      	movs	r5, #0
    53fc:	e780      	b.n	5300 <__aeabi_dsub+0x318>
    53fe:	2100      	movs	r1, #0
    5400:	e78e      	b.n	5320 <__aeabi_dsub+0x338>
    5402:	0023      	movs	r3, r4
    5404:	4650      	mov	r0, sl
    5406:	4303      	orrs	r3, r0
    5408:	2e00      	cmp	r6, #0
    540a:	d000      	beq.n	540e <__aeabi_dsub+0x426>
    540c:	e0a8      	b.n	5560 <__aeabi_dsub+0x578>
    540e:	2b00      	cmp	r3, #0
    5410:	d100      	bne.n	5414 <__aeabi_dsub+0x42c>
    5412:	e0de      	b.n	55d2 <__aeabi_dsub+0x5ea>
    5414:	000b      	movs	r3, r1
    5416:	4313      	orrs	r3, r2
    5418:	d100      	bne.n	541c <__aeabi_dsub+0x434>
    541a:	e66b      	b.n	50f4 <__aeabi_dsub+0x10c>
    541c:	4452      	add	r2, sl
    541e:	4552      	cmp	r2, sl
    5420:	4180      	sbcs	r0, r0
    5422:	1864      	adds	r4, r4, r1
    5424:	4240      	negs	r0, r0
    5426:	1824      	adds	r4, r4, r0
    5428:	0017      	movs	r7, r2
    542a:	0223      	lsls	r3, r4, #8
    542c:	d400      	bmi.n	5430 <__aeabi_dsub+0x448>
    542e:	e6fd      	b.n	522c <__aeabi_dsub+0x244>
    5430:	4b77      	ldr	r3, [pc, #476]	; (5610 <__aeabi_dsub+0x628>)
    5432:	4666      	mov	r6, ip
    5434:	401c      	ands	r4, r3
    5436:	e65d      	b.n	50f4 <__aeabi_dsub+0x10c>
    5438:	0025      	movs	r5, r4
    543a:	4650      	mov	r0, sl
    543c:	4305      	orrs	r5, r0
    543e:	2e00      	cmp	r6, #0
    5440:	d1cf      	bne.n	53e2 <__aeabi_dsub+0x3fa>
    5442:	2d00      	cmp	r5, #0
    5444:	d14f      	bne.n	54e6 <__aeabi_dsub+0x4fe>
    5446:	000c      	movs	r4, r1
    5448:	4314      	orrs	r4, r2
    544a:	d100      	bne.n	544e <__aeabi_dsub+0x466>
    544c:	e0a0      	b.n	5590 <__aeabi_dsub+0x5a8>
    544e:	000c      	movs	r4, r1
    5450:	0017      	movs	r7, r2
    5452:	4698      	mov	r8, r3
    5454:	e64e      	b.n	50f4 <__aeabi_dsub+0x10c>
    5456:	4666      	mov	r6, ip
    5458:	2400      	movs	r4, #0
    545a:	2700      	movs	r7, #0
    545c:	e685      	b.n	516a <__aeabi_dsub+0x182>
    545e:	001f      	movs	r7, r3
    5460:	0008      	movs	r0, r1
    5462:	3f20      	subs	r7, #32
    5464:	40f8      	lsrs	r0, r7
    5466:	0007      	movs	r7, r0
    5468:	2b20      	cmp	r3, #32
    546a:	d100      	bne.n	546e <__aeabi_dsub+0x486>
    546c:	e08e      	b.n	558c <__aeabi_dsub+0x5a4>
    546e:	2040      	movs	r0, #64	; 0x40
    5470:	1ac3      	subs	r3, r0, r3
    5472:	4099      	lsls	r1, r3
    5474:	430a      	orrs	r2, r1
    5476:	1e51      	subs	r1, r2, #1
    5478:	418a      	sbcs	r2, r1
    547a:	2100      	movs	r1, #0
    547c:	4317      	orrs	r7, r2
    547e:	e692      	b.n	51a6 <__aeabi_dsub+0x1be>
    5480:	2e00      	cmp	r6, #0
    5482:	d114      	bne.n	54ae <__aeabi_dsub+0x4c6>
    5484:	0026      	movs	r6, r4
    5486:	4650      	mov	r0, sl
    5488:	4306      	orrs	r6, r0
    548a:	d062      	beq.n	5552 <__aeabi_dsub+0x56a>
    548c:	43db      	mvns	r3, r3
    548e:	2b00      	cmp	r3, #0
    5490:	d15c      	bne.n	554c <__aeabi_dsub+0x564>
    5492:	1887      	adds	r7, r0, r2
    5494:	4297      	cmp	r7, r2
    5496:	4192      	sbcs	r2, r2
    5498:	1864      	adds	r4, r4, r1
    549a:	4252      	negs	r2, r2
    549c:	18a4      	adds	r4, r4, r2
    549e:	4666      	mov	r6, ip
    54a0:	e687      	b.n	51b2 <__aeabi_dsub+0x1ca>
    54a2:	4650      	mov	r0, sl
    54a4:	4320      	orrs	r0, r4
    54a6:	1e44      	subs	r4, r0, #1
    54a8:	41a0      	sbcs	r0, r4
    54aa:	2400      	movs	r4, #0
    54ac:	e760      	b.n	5370 <__aeabi_dsub+0x388>
    54ae:	4e57      	ldr	r6, [pc, #348]	; (560c <__aeabi_dsub+0x624>)
    54b0:	45b4      	cmp	ip, r6
    54b2:	d04e      	beq.n	5552 <__aeabi_dsub+0x56a>
    54b4:	2680      	movs	r6, #128	; 0x80
    54b6:	0436      	lsls	r6, r6, #16
    54b8:	425b      	negs	r3, r3
    54ba:	4334      	orrs	r4, r6
    54bc:	2b38      	cmp	r3, #56	; 0x38
    54be:	dd00      	ble.n	54c2 <__aeabi_dsub+0x4da>
    54c0:	e07f      	b.n	55c2 <__aeabi_dsub+0x5da>
    54c2:	2b1f      	cmp	r3, #31
    54c4:	dd00      	ble.n	54c8 <__aeabi_dsub+0x4e0>
    54c6:	e08b      	b.n	55e0 <__aeabi_dsub+0x5f8>
    54c8:	2620      	movs	r6, #32
    54ca:	0027      	movs	r7, r4
    54cc:	4650      	mov	r0, sl
    54ce:	1af6      	subs	r6, r6, r3
    54d0:	40b7      	lsls	r7, r6
    54d2:	40d8      	lsrs	r0, r3
    54d4:	4307      	orrs	r7, r0
    54d6:	4650      	mov	r0, sl
    54d8:	40b0      	lsls	r0, r6
    54da:	1e46      	subs	r6, r0, #1
    54dc:	41b0      	sbcs	r0, r6
    54de:	4307      	orrs	r7, r0
    54e0:	40dc      	lsrs	r4, r3
    54e2:	18bf      	adds	r7, r7, r2
    54e4:	e7d6      	b.n	5494 <__aeabi_dsub+0x4ac>
    54e6:	000d      	movs	r5, r1
    54e8:	4315      	orrs	r5, r2
    54ea:	d100      	bne.n	54ee <__aeabi_dsub+0x506>
    54ec:	e602      	b.n	50f4 <__aeabi_dsub+0x10c>
    54ee:	4650      	mov	r0, sl
    54f0:	1a80      	subs	r0, r0, r2
    54f2:	4582      	cmp	sl, r0
    54f4:	41bf      	sbcs	r7, r7
    54f6:	1a65      	subs	r5, r4, r1
    54f8:	427f      	negs	r7, r7
    54fa:	1bed      	subs	r5, r5, r7
    54fc:	4684      	mov	ip, r0
    54fe:	0228      	lsls	r0, r5, #8
    5500:	d400      	bmi.n	5504 <__aeabi_dsub+0x51c>
    5502:	e68d      	b.n	5220 <__aeabi_dsub+0x238>
    5504:	4650      	mov	r0, sl
    5506:	1a17      	subs	r7, r2, r0
    5508:	42ba      	cmp	r2, r7
    550a:	4192      	sbcs	r2, r2
    550c:	1b0c      	subs	r4, r1, r4
    550e:	4252      	negs	r2, r2
    5510:	1aa4      	subs	r4, r4, r2
    5512:	4698      	mov	r8, r3
    5514:	e5ee      	b.n	50f4 <__aeabi_dsub+0x10c>
    5516:	000d      	movs	r5, r1
    5518:	4315      	orrs	r5, r2
    551a:	d100      	bne.n	551e <__aeabi_dsub+0x536>
    551c:	e76b      	b.n	53f6 <__aeabi_dsub+0x40e>
    551e:	4650      	mov	r0, sl
    5520:	0767      	lsls	r7, r4, #29
    5522:	08c0      	lsrs	r0, r0, #3
    5524:	4307      	orrs	r7, r0
    5526:	2080      	movs	r0, #128	; 0x80
    5528:	08e4      	lsrs	r4, r4, #3
    552a:	0300      	lsls	r0, r0, #12
    552c:	4204      	tst	r4, r0
    552e:	d007      	beq.n	5540 <__aeabi_dsub+0x558>
    5530:	08cd      	lsrs	r5, r1, #3
    5532:	4205      	tst	r5, r0
    5534:	d104      	bne.n	5540 <__aeabi_dsub+0x558>
    5536:	002c      	movs	r4, r5
    5538:	4698      	mov	r8, r3
    553a:	08d7      	lsrs	r7, r2, #3
    553c:	0749      	lsls	r1, r1, #29
    553e:	430f      	orrs	r7, r1
    5540:	0f7b      	lsrs	r3, r7, #29
    5542:	00e4      	lsls	r4, r4, #3
    5544:	431c      	orrs	r4, r3
    5546:	00ff      	lsls	r7, r7, #3
    5548:	4e30      	ldr	r6, [pc, #192]	; (560c <__aeabi_dsub+0x624>)
    554a:	e5d3      	b.n	50f4 <__aeabi_dsub+0x10c>
    554c:	4e2f      	ldr	r6, [pc, #188]	; (560c <__aeabi_dsub+0x624>)
    554e:	45b4      	cmp	ip, r6
    5550:	d1b4      	bne.n	54bc <__aeabi_dsub+0x4d4>
    5552:	000c      	movs	r4, r1
    5554:	0017      	movs	r7, r2
    5556:	4666      	mov	r6, ip
    5558:	e5cc      	b.n	50f4 <__aeabi_dsub+0x10c>
    555a:	2700      	movs	r7, #0
    555c:	2400      	movs	r4, #0
    555e:	e5e8      	b.n	5132 <__aeabi_dsub+0x14a>
    5560:	2b00      	cmp	r3, #0
    5562:	d039      	beq.n	55d8 <__aeabi_dsub+0x5f0>
    5564:	000b      	movs	r3, r1
    5566:	4313      	orrs	r3, r2
    5568:	d100      	bne.n	556c <__aeabi_dsub+0x584>
    556a:	e744      	b.n	53f6 <__aeabi_dsub+0x40e>
    556c:	08c0      	lsrs	r0, r0, #3
    556e:	0767      	lsls	r7, r4, #29
    5570:	4307      	orrs	r7, r0
    5572:	2080      	movs	r0, #128	; 0x80
    5574:	08e4      	lsrs	r4, r4, #3
    5576:	0300      	lsls	r0, r0, #12
    5578:	4204      	tst	r4, r0
    557a:	d0e1      	beq.n	5540 <__aeabi_dsub+0x558>
    557c:	08cb      	lsrs	r3, r1, #3
    557e:	4203      	tst	r3, r0
    5580:	d1de      	bne.n	5540 <__aeabi_dsub+0x558>
    5582:	08d7      	lsrs	r7, r2, #3
    5584:	0749      	lsls	r1, r1, #29
    5586:	430f      	orrs	r7, r1
    5588:	001c      	movs	r4, r3
    558a:	e7d9      	b.n	5540 <__aeabi_dsub+0x558>
    558c:	2100      	movs	r1, #0
    558e:	e771      	b.n	5474 <__aeabi_dsub+0x48c>
    5590:	2500      	movs	r5, #0
    5592:	2700      	movs	r7, #0
    5594:	e5e9      	b.n	516a <__aeabi_dsub+0x182>
    5596:	002e      	movs	r6, r5
    5598:	0027      	movs	r7, r4
    559a:	3e20      	subs	r6, #32
    559c:	40f7      	lsrs	r7, r6
    559e:	2d20      	cmp	r5, #32
    55a0:	d02f      	beq.n	5602 <__aeabi_dsub+0x61a>
    55a2:	2640      	movs	r6, #64	; 0x40
    55a4:	1b75      	subs	r5, r6, r5
    55a6:	40ac      	lsls	r4, r5
    55a8:	4650      	mov	r0, sl
    55aa:	4320      	orrs	r0, r4
    55ac:	1e44      	subs	r4, r0, #1
    55ae:	41a0      	sbcs	r0, r4
    55b0:	2400      	movs	r4, #0
    55b2:	4338      	orrs	r0, r7
    55b4:	e6dc      	b.n	5370 <__aeabi_dsub+0x388>
    55b6:	2480      	movs	r4, #128	; 0x80
    55b8:	2500      	movs	r5, #0
    55ba:	0324      	lsls	r4, r4, #12
    55bc:	4e13      	ldr	r6, [pc, #76]	; (560c <__aeabi_dsub+0x624>)
    55be:	2700      	movs	r7, #0
    55c0:	e5d3      	b.n	516a <__aeabi_dsub+0x182>
    55c2:	4650      	mov	r0, sl
    55c4:	4320      	orrs	r0, r4
    55c6:	0007      	movs	r7, r0
    55c8:	1e78      	subs	r0, r7, #1
    55ca:	4187      	sbcs	r7, r0
    55cc:	2400      	movs	r4, #0
    55ce:	18bf      	adds	r7, r7, r2
    55d0:	e760      	b.n	5494 <__aeabi_dsub+0x4ac>
    55d2:	000c      	movs	r4, r1
    55d4:	0017      	movs	r7, r2
    55d6:	e58d      	b.n	50f4 <__aeabi_dsub+0x10c>
    55d8:	000c      	movs	r4, r1
    55da:	0017      	movs	r7, r2
    55dc:	4e0b      	ldr	r6, [pc, #44]	; (560c <__aeabi_dsub+0x624>)
    55de:	e589      	b.n	50f4 <__aeabi_dsub+0x10c>
    55e0:	001e      	movs	r6, r3
    55e2:	0027      	movs	r7, r4
    55e4:	3e20      	subs	r6, #32
    55e6:	40f7      	lsrs	r7, r6
    55e8:	2b20      	cmp	r3, #32
    55ea:	d00c      	beq.n	5606 <__aeabi_dsub+0x61e>
    55ec:	2640      	movs	r6, #64	; 0x40
    55ee:	1af3      	subs	r3, r6, r3
    55f0:	409c      	lsls	r4, r3
    55f2:	4650      	mov	r0, sl
    55f4:	4320      	orrs	r0, r4
    55f6:	1e44      	subs	r4, r0, #1
    55f8:	41a0      	sbcs	r0, r4
    55fa:	4307      	orrs	r7, r0
    55fc:	2400      	movs	r4, #0
    55fe:	18bf      	adds	r7, r7, r2
    5600:	e748      	b.n	5494 <__aeabi_dsub+0x4ac>
    5602:	2400      	movs	r4, #0
    5604:	e7d0      	b.n	55a8 <__aeabi_dsub+0x5c0>
    5606:	2400      	movs	r4, #0
    5608:	e7f3      	b.n	55f2 <__aeabi_dsub+0x60a>
    560a:	46c0      	nop			; (mov r8, r8)
    560c:	000007ff 	.word	0x000007ff
    5610:	ff7fffff 	.word	0xff7fffff

00005614 <__aeabi_d2iz>:
    5614:	b530      	push	{r4, r5, lr}
    5616:	4d13      	ldr	r5, [pc, #76]	; (5664 <__aeabi_d2iz+0x50>)
    5618:	030a      	lsls	r2, r1, #12
    561a:	004b      	lsls	r3, r1, #1
    561c:	0b12      	lsrs	r2, r2, #12
    561e:	0d5b      	lsrs	r3, r3, #21
    5620:	0fc9      	lsrs	r1, r1, #31
    5622:	2400      	movs	r4, #0
    5624:	42ab      	cmp	r3, r5
    5626:	dd10      	ble.n	564a <__aeabi_d2iz+0x36>
    5628:	4c0f      	ldr	r4, [pc, #60]	; (5668 <__aeabi_d2iz+0x54>)
    562a:	42a3      	cmp	r3, r4
    562c:	dc0f      	bgt.n	564e <__aeabi_d2iz+0x3a>
    562e:	2480      	movs	r4, #128	; 0x80
    5630:	4d0e      	ldr	r5, [pc, #56]	; (566c <__aeabi_d2iz+0x58>)
    5632:	0364      	lsls	r4, r4, #13
    5634:	4322      	orrs	r2, r4
    5636:	1aed      	subs	r5, r5, r3
    5638:	2d1f      	cmp	r5, #31
    563a:	dd0b      	ble.n	5654 <__aeabi_d2iz+0x40>
    563c:	480c      	ldr	r0, [pc, #48]	; (5670 <__aeabi_d2iz+0x5c>)
    563e:	1ac3      	subs	r3, r0, r3
    5640:	40da      	lsrs	r2, r3
    5642:	4254      	negs	r4, r2
    5644:	2900      	cmp	r1, #0
    5646:	d100      	bne.n	564a <__aeabi_d2iz+0x36>
    5648:	0014      	movs	r4, r2
    564a:	0020      	movs	r0, r4
    564c:	bd30      	pop	{r4, r5, pc}
    564e:	4b09      	ldr	r3, [pc, #36]	; (5674 <__aeabi_d2iz+0x60>)
    5650:	18cc      	adds	r4, r1, r3
    5652:	e7fa      	b.n	564a <__aeabi_d2iz+0x36>
    5654:	4c08      	ldr	r4, [pc, #32]	; (5678 <__aeabi_d2iz+0x64>)
    5656:	40e8      	lsrs	r0, r5
    5658:	46a4      	mov	ip, r4
    565a:	4463      	add	r3, ip
    565c:	409a      	lsls	r2, r3
    565e:	4302      	orrs	r2, r0
    5660:	e7ef      	b.n	5642 <__aeabi_d2iz+0x2e>
    5662:	46c0      	nop			; (mov r8, r8)
    5664:	000003fe 	.word	0x000003fe
    5668:	0000041d 	.word	0x0000041d
    566c:	00000433 	.word	0x00000433
    5670:	00000413 	.word	0x00000413
    5674:	7fffffff 	.word	0x7fffffff
    5678:	fffffbed 	.word	0xfffffbed

0000567c <__aeabi_ui2d>:
    567c:	b510      	push	{r4, lr}
    567e:	1e04      	subs	r4, r0, #0
    5680:	d028      	beq.n	56d4 <__aeabi_ui2d+0x58>
    5682:	f000 f833 	bl	56ec <__clzsi2>
    5686:	4b15      	ldr	r3, [pc, #84]	; (56dc <__aeabi_ui2d+0x60>)
    5688:	4a15      	ldr	r2, [pc, #84]	; (56e0 <__aeabi_ui2d+0x64>)
    568a:	1a1b      	subs	r3, r3, r0
    568c:	1ad2      	subs	r2, r2, r3
    568e:	2a1f      	cmp	r2, #31
    5690:	dd15      	ble.n	56be <__aeabi_ui2d+0x42>
    5692:	4a14      	ldr	r2, [pc, #80]	; (56e4 <__aeabi_ui2d+0x68>)
    5694:	1ad2      	subs	r2, r2, r3
    5696:	4094      	lsls	r4, r2
    5698:	2200      	movs	r2, #0
    569a:	0324      	lsls	r4, r4, #12
    569c:	055b      	lsls	r3, r3, #21
    569e:	0b24      	lsrs	r4, r4, #12
    56a0:	0d5b      	lsrs	r3, r3, #21
    56a2:	2100      	movs	r1, #0
    56a4:	0010      	movs	r0, r2
    56a6:	0324      	lsls	r4, r4, #12
    56a8:	0d0a      	lsrs	r2, r1, #20
    56aa:	0b24      	lsrs	r4, r4, #12
    56ac:	0512      	lsls	r2, r2, #20
    56ae:	4322      	orrs	r2, r4
    56b0:	4c0d      	ldr	r4, [pc, #52]	; (56e8 <__aeabi_ui2d+0x6c>)
    56b2:	051b      	lsls	r3, r3, #20
    56b4:	4022      	ands	r2, r4
    56b6:	4313      	orrs	r3, r2
    56b8:	005b      	lsls	r3, r3, #1
    56ba:	0859      	lsrs	r1, r3, #1
    56bc:	bd10      	pop	{r4, pc}
    56be:	0021      	movs	r1, r4
    56c0:	4091      	lsls	r1, r2
    56c2:	000a      	movs	r2, r1
    56c4:	210b      	movs	r1, #11
    56c6:	1a08      	subs	r0, r1, r0
    56c8:	40c4      	lsrs	r4, r0
    56ca:	055b      	lsls	r3, r3, #21
    56cc:	0324      	lsls	r4, r4, #12
    56ce:	0b24      	lsrs	r4, r4, #12
    56d0:	0d5b      	lsrs	r3, r3, #21
    56d2:	e7e6      	b.n	56a2 <__aeabi_ui2d+0x26>
    56d4:	2300      	movs	r3, #0
    56d6:	2400      	movs	r4, #0
    56d8:	2200      	movs	r2, #0
    56da:	e7e2      	b.n	56a2 <__aeabi_ui2d+0x26>
    56dc:	0000041e 	.word	0x0000041e
    56e0:	00000433 	.word	0x00000433
    56e4:	00000413 	.word	0x00000413
    56e8:	800fffff 	.word	0x800fffff

000056ec <__clzsi2>:
    56ec:	211c      	movs	r1, #28
    56ee:	2301      	movs	r3, #1
    56f0:	041b      	lsls	r3, r3, #16
    56f2:	4298      	cmp	r0, r3
    56f4:	d301      	bcc.n	56fa <__clzsi2+0xe>
    56f6:	0c00      	lsrs	r0, r0, #16
    56f8:	3910      	subs	r1, #16
    56fa:	0a1b      	lsrs	r3, r3, #8
    56fc:	4298      	cmp	r0, r3
    56fe:	d301      	bcc.n	5704 <__clzsi2+0x18>
    5700:	0a00      	lsrs	r0, r0, #8
    5702:	3908      	subs	r1, #8
    5704:	091b      	lsrs	r3, r3, #4
    5706:	4298      	cmp	r0, r3
    5708:	d301      	bcc.n	570e <__clzsi2+0x22>
    570a:	0900      	lsrs	r0, r0, #4
    570c:	3904      	subs	r1, #4
    570e:	a202      	add	r2, pc, #8	; (adr r2, 5718 <__clzsi2+0x2c>)
    5710:	5c10      	ldrb	r0, [r2, r0]
    5712:	1840      	adds	r0, r0, r1
    5714:	4770      	bx	lr
    5716:	46c0      	nop			; (mov r8, r8)
    5718:	02020304 	.word	0x02020304
    571c:	01010101 	.word	0x01010101
	...

00005728 <__libc_init_array>:
    5728:	b570      	push	{r4, r5, r6, lr}
    572a:	2600      	movs	r6, #0
    572c:	4d0c      	ldr	r5, [pc, #48]	; (5760 <__libc_init_array+0x38>)
    572e:	4c0d      	ldr	r4, [pc, #52]	; (5764 <__libc_init_array+0x3c>)
    5730:	1b64      	subs	r4, r4, r5
    5732:	10a4      	asrs	r4, r4, #2
    5734:	42a6      	cmp	r6, r4
    5736:	d109      	bne.n	574c <__libc_init_array+0x24>
    5738:	2600      	movs	r6, #0
    573a:	f000 fa01 	bl	5b40 <_init>
    573e:	4d0a      	ldr	r5, [pc, #40]	; (5768 <__libc_init_array+0x40>)
    5740:	4c0a      	ldr	r4, [pc, #40]	; (576c <__libc_init_array+0x44>)
    5742:	1b64      	subs	r4, r4, r5
    5744:	10a4      	asrs	r4, r4, #2
    5746:	42a6      	cmp	r6, r4
    5748:	d105      	bne.n	5756 <__libc_init_array+0x2e>
    574a:	bd70      	pop	{r4, r5, r6, pc}
    574c:	00b3      	lsls	r3, r6, #2
    574e:	58eb      	ldr	r3, [r5, r3]
    5750:	4798      	blx	r3
    5752:	3601      	adds	r6, #1
    5754:	e7ee      	b.n	5734 <__libc_init_array+0xc>
    5756:	00b3      	lsls	r3, r6, #2
    5758:	58eb      	ldr	r3, [r5, r3]
    575a:	4798      	blx	r3
    575c:	3601      	adds	r6, #1
    575e:	e7f2      	b.n	5746 <__libc_init_array+0x1e>
    5760:	00005b4c 	.word	0x00005b4c
    5764:	00005b4c 	.word	0x00005b4c
    5768:	00005b4c 	.word	0x00005b4c
    576c:	00005b50 	.word	0x00005b50

00005770 <malloc>:
    5770:	b510      	push	{r4, lr}
    5772:	4b03      	ldr	r3, [pc, #12]	; (5780 <malloc+0x10>)
    5774:	0001      	movs	r1, r0
    5776:	6818      	ldr	r0, [r3, #0]
    5778:	f000 f80e 	bl	5798 <_malloc_r>
    577c:	bd10      	pop	{r4, pc}
    577e:	46c0      	nop			; (mov r8, r8)
    5780:	20000058 	.word	0x20000058

00005784 <memcpy>:
    5784:	2300      	movs	r3, #0
    5786:	b510      	push	{r4, lr}
    5788:	429a      	cmp	r2, r3
    578a:	d100      	bne.n	578e <memcpy+0xa>
    578c:	bd10      	pop	{r4, pc}
    578e:	5ccc      	ldrb	r4, [r1, r3]
    5790:	54c4      	strb	r4, [r0, r3]
    5792:	3301      	adds	r3, #1
    5794:	e7f8      	b.n	5788 <memcpy+0x4>
	...

00005798 <_malloc_r>:
    5798:	2303      	movs	r3, #3
    579a:	b570      	push	{r4, r5, r6, lr}
    579c:	1ccd      	adds	r5, r1, #3
    579e:	439d      	bics	r5, r3
    57a0:	3508      	adds	r5, #8
    57a2:	0006      	movs	r6, r0
    57a4:	2d0c      	cmp	r5, #12
    57a6:	d21e      	bcs.n	57e6 <_malloc_r+0x4e>
    57a8:	250c      	movs	r5, #12
    57aa:	42a9      	cmp	r1, r5
    57ac:	d81d      	bhi.n	57ea <_malloc_r+0x52>
    57ae:	0030      	movs	r0, r6
    57b0:	f000 f862 	bl	5878 <__malloc_lock>
    57b4:	4a25      	ldr	r2, [pc, #148]	; (584c <_malloc_r+0xb4>)
    57b6:	6814      	ldr	r4, [r2, #0]
    57b8:	0021      	movs	r1, r4
    57ba:	2900      	cmp	r1, #0
    57bc:	d119      	bne.n	57f2 <_malloc_r+0x5a>
    57be:	4c24      	ldr	r4, [pc, #144]	; (5850 <_malloc_r+0xb8>)
    57c0:	6823      	ldr	r3, [r4, #0]
    57c2:	2b00      	cmp	r3, #0
    57c4:	d103      	bne.n	57ce <_malloc_r+0x36>
    57c6:	0030      	movs	r0, r6
    57c8:	f000 f844 	bl	5854 <_sbrk_r>
    57cc:	6020      	str	r0, [r4, #0]
    57ce:	0029      	movs	r1, r5
    57d0:	0030      	movs	r0, r6
    57d2:	f000 f83f 	bl	5854 <_sbrk_r>
    57d6:	1c43      	adds	r3, r0, #1
    57d8:	d12c      	bne.n	5834 <_malloc_r+0x9c>
    57da:	230c      	movs	r3, #12
    57dc:	0030      	movs	r0, r6
    57de:	6033      	str	r3, [r6, #0]
    57e0:	f000 f84b 	bl	587a <__malloc_unlock>
    57e4:	e003      	b.n	57ee <_malloc_r+0x56>
    57e6:	2d00      	cmp	r5, #0
    57e8:	dadf      	bge.n	57aa <_malloc_r+0x12>
    57ea:	230c      	movs	r3, #12
    57ec:	6033      	str	r3, [r6, #0]
    57ee:	2000      	movs	r0, #0
    57f0:	bd70      	pop	{r4, r5, r6, pc}
    57f2:	680b      	ldr	r3, [r1, #0]
    57f4:	1b5b      	subs	r3, r3, r5
    57f6:	d41a      	bmi.n	582e <_malloc_r+0x96>
    57f8:	2b0b      	cmp	r3, #11
    57fa:	d903      	bls.n	5804 <_malloc_r+0x6c>
    57fc:	600b      	str	r3, [r1, #0]
    57fe:	18cc      	adds	r4, r1, r3
    5800:	6025      	str	r5, [r4, #0]
    5802:	e003      	b.n	580c <_malloc_r+0x74>
    5804:	428c      	cmp	r4, r1
    5806:	d10e      	bne.n	5826 <_malloc_r+0x8e>
    5808:	6863      	ldr	r3, [r4, #4]
    580a:	6013      	str	r3, [r2, #0]
    580c:	0030      	movs	r0, r6
    580e:	f000 f834 	bl	587a <__malloc_unlock>
    5812:	0020      	movs	r0, r4
    5814:	2207      	movs	r2, #7
    5816:	300b      	adds	r0, #11
    5818:	1d23      	adds	r3, r4, #4
    581a:	4390      	bics	r0, r2
    581c:	1ac3      	subs	r3, r0, r3
    581e:	d0e7      	beq.n	57f0 <_malloc_r+0x58>
    5820:	425a      	negs	r2, r3
    5822:	50e2      	str	r2, [r4, r3]
    5824:	e7e4      	b.n	57f0 <_malloc_r+0x58>
    5826:	684b      	ldr	r3, [r1, #4]
    5828:	6063      	str	r3, [r4, #4]
    582a:	000c      	movs	r4, r1
    582c:	e7ee      	b.n	580c <_malloc_r+0x74>
    582e:	000c      	movs	r4, r1
    5830:	6849      	ldr	r1, [r1, #4]
    5832:	e7c2      	b.n	57ba <_malloc_r+0x22>
    5834:	2303      	movs	r3, #3
    5836:	1cc4      	adds	r4, r0, #3
    5838:	439c      	bics	r4, r3
    583a:	42a0      	cmp	r0, r4
    583c:	d0e0      	beq.n	5800 <_malloc_r+0x68>
    583e:	1a21      	subs	r1, r4, r0
    5840:	0030      	movs	r0, r6
    5842:	f000 f807 	bl	5854 <_sbrk_r>
    5846:	1c43      	adds	r3, r0, #1
    5848:	d1da      	bne.n	5800 <_malloc_r+0x68>
    584a:	e7c6      	b.n	57da <_malloc_r+0x42>
    584c:	20000e18 	.word	0x20000e18
    5850:	20000e1c 	.word	0x20000e1c

00005854 <_sbrk_r>:
    5854:	2300      	movs	r3, #0
    5856:	b570      	push	{r4, r5, r6, lr}
    5858:	4c06      	ldr	r4, [pc, #24]	; (5874 <_sbrk_r+0x20>)
    585a:	0005      	movs	r5, r0
    585c:	0008      	movs	r0, r1
    585e:	6023      	str	r3, [r4, #0]
    5860:	f7fe f9f6 	bl	3c50 <_sbrk>
    5864:	1c43      	adds	r3, r0, #1
    5866:	d103      	bne.n	5870 <_sbrk_r+0x1c>
    5868:	6823      	ldr	r3, [r4, #0]
    586a:	2b00      	cmp	r3, #0
    586c:	d000      	beq.n	5870 <_sbrk_r+0x1c>
    586e:	602b      	str	r3, [r5, #0]
    5870:	bd70      	pop	{r4, r5, r6, pc}
    5872:	46c0      	nop			; (mov r8, r8)
    5874:	20001268 	.word	0x20001268

00005878 <__malloc_lock>:
    5878:	4770      	bx	lr

0000587a <__malloc_unlock>:
    587a:	4770      	bx	lr

0000587c <_tcc_intflag>:
    587c:	0001 0000 0002 0000 0004 0000 0008 0000     ................
    588c:	1000 0000 2000 0000 4000 0000 8000 0000     ..... ...@......
    589c:	0000 0001 0000 0002 0000 0004 0000 0008     ................
    58ac:	2c00 4200 3000 4200 3400 4200 3800 4200     .,.B.0.B.4.B.8.B
    58bc:	3c00 4200 0800 1000 2000 4000 8000 0000     .<.B..... .@....
    58cc:	1166 0000 10e6 0000 1172 0000 11f4 0000     f.......r.......
    58dc:	1278 0000 12fe 0000 1602 0000 15b6 0000     x...............
    58ec:	1604 0000 1652 0000 16a0 0000 16e6 0000     ....R...........
    58fc:	1792 0000 175e 0000 1794 0000 17ca 0000     ....^...........
    590c:	1800 0000 1836 0000                         ....6...

00005914 <tc_interrupt_vectors.13123>:
    5914:	1312 1514 0016 0000 1e76 0000 20c2 0000     ........v.... ..
    5924:	20c2 0000 20c2 0000 20c2 0000 20c2 0000     . ... ... ... ..
    5934:	20c2 0000 20c2 0000 20c2 0000 20c2 0000     . ... ... ... ..
    5944:	20c2 0000 20c2 0000 20c2 0000 20c2 0000     . ... ... ... ..
    5954:	20c2 0000 20c2 0000 1e5e 0000 20c2 0000     . ... ..^.... ..
    5964:	20c2 0000 20c2 0000 20c2 0000 20c2 0000     . ... ... ... ..
    5974:	20c2 0000 20c2 0000 20c2 0000 20c2 0000     . ... ... ... ..
    5984:	20c2 0000 20c2 0000 20c2 0000 20c2 0000     . ... ... ... ..
    5994:	20c2 0000 20c2 0000 1e6e 0000 20c2 0000     . ... ..n.... ..
    59a4:	20c2 0000 20c2 0000 20c2 0000 20c2 0000     . ... ... ... ..
    59b4:	20c2 0000 20c2 0000 20c2 0000 20c2 0000     . ... ... ... ..
    59c4:	20c2 0000 20c2 0000 20c2 0000 20c2 0000     . ... ... ... ..
    59d4:	20c2 0000 20c2 0000 1e66 0000 1e7e 0000     . ... ..f...~...
    59e4:	1e46 0000 1e56 0000 1e4e 0000 0002 0000     F...V...N.......
    59f4:	0003 0000 0028 0000 0029 0000 0004 0000     ....(...).......
    5a04:	0005 0000 0006 0000 0007 0000 0020 0000     ............ ...
    5a14:	0021 0000 0022 0000 0023 0000 0024 0000     !..."...#...$...
    5a24:	0025 0000 0026 0000 0027 0000 0008 0000     %...&...'.......
    5a34:	0009 0000 000a 0000 000b 0000 0800 4200     ...............B
    5a44:	0c00 4200 1000 4200 1400 4200 1800 4200     ...B...B...B...B
    5a54:	1c00 4200 2efe 0000 2eba 0000 2ee6 0000     ...B............
    5a64:	2eda 0000 2ef2 0000 2eb0 0000               ............

00005a70 <inputAnalogChannles>:
    5a70:	0c00 0013                                   ....

00005a74 <outputDetectAnalogChannles>:
    5a74:	0504 0806 33fe 0000 33fa 0000 33fa 0000     .....3...3...3..
    5a84:	345c 0000 345c 0000 3412 0000 3404 0000     \4..\4...4...4..
    5a94:	3418 0000 344a 0000 35e0 0000 35c0 0000     .4..J4...5...5..
    5aa4:	35c0 0000 364c 0000 35d2 0000 35ee 0000     .5..L6...5...5..
    5ab4:	35c4 0000 35fc 0000 363c 0000 4678 0000     .5...5..<6..xF..
    5ac4:	465a 0000 4614 0000 4532 0000 4614 0000     ZF...F..2E...F..
    5ad4:	464c 0000 4614 0000 4532 0000 465a 0000     LF...F..2E..ZF..
    5ae4:	465a 0000 464c 0000 4532 0000 452a 0000     ZF..LF..2E..*E..
    5af4:	452a 0000 452a 0000 4890 0000 4cd8 0000     *E..*E...H...L..
    5b04:	4b98 0000 4b98 0000 4b94 0000 4cb0 0000     .K...K...K...L..
    5b14:	4cb0 0000 4ca2 0000 4b94 0000 4cb0 0000     .L...L...K...L..
    5b24:	4ca2 0000 4cb0 0000 4b94 0000 4cb8 0000     .L...L...K...L..
    5b34:	4cb8 0000 4cb8 0000 4ebc 0000               .L...L...N..

00005b40 <_init>:
    5b40:	b5f8      	push	{r3, r4, r5, r6, r7, lr}
    5b42:	46c0      	nop			; (mov r8, r8)
    5b44:	bcf8      	pop	{r3, r4, r5, r6, r7}
    5b46:	bc08      	pop	{r3}
    5b48:	469e      	mov	lr, r3
    5b4a:	4770      	bx	lr

00005b4c <__init_array_start>:
    5b4c:	000000dd 	.word	0x000000dd

00005b50 <_fini>:
    5b50:	b5f8      	push	{r3, r4, r5, r6, r7, lr}
    5b52:	46c0      	nop			; (mov r8, r8)
    5b54:	bcf8      	pop	{r3, r4, r5, r6, r7}
    5b56:	bc08      	pop	{r3}
    5b58:	469e      	mov	lr, r3
    5b5a:	4770      	bx	lr

00005b5c <__fini_array_start>:
    5b5c:	000000b5 	.word	0x000000b5
